(dp1
S'output'
p2
S"<type 'exceptions.NameError'> name 'false' is not defined"
p3
sS'layer'
p4
S'/home/nairelys/Descargas/Sigulab/web2py/applications/sigulab2/views/informacion_documentada/ficha.html'
p5
sS'code'
p6
S'response.write(\'<!DOCTYPE html>\\n<html lang="es">\\n<head>\\n  <title>SIGULAB</title>    \\n  \\n  <!-- http://dev.w3.org/html5/markup/meta.name.html -->\\n  <meta name="application-name" content="SIGULAB">\\n\\n  <meta charset="utf-8">\\n  <meta name="viewport" content="width=device-width, initial-scale=1.0">\\n\\n  <!-- www.phpied.com/conditional-comments-block-downloads/ -->\\n  <!-- Always force latest IE rendering engine\\n       (even in intranet) & Chrome Frame\\n       Remove this if you use the .htaccess -->\\n  <meta http-equiv="X-UA-Compatible" content="IE=edge">\\n\\n  <!-- Avoid search sites from indexing this website -->\\n  <meta name="robots" content="noindex" />\\n\\n  <link rel="icon" type="image/png" sizes="16x16" href="\', escape=False)\nresponse.write(URL(\'static\', \'favicon.ico\'))\nresponse.write(\'">\\n    \\n\\n  <link rel="stylesheet" href="\', escape=False)\nresponse.write(URL(\'static\', \'css/bootstrap.min.css\'))\nresponse.write(\'">\\n  <link rel="stylesheet" href="\', escape=False)\nresponse.write(URL(\'static\',\'css/servicios.css\'))\nresponse.write(\'">\\n  <link rel="stylesheet" href="\', escape=False)\nresponse.write(URL(\'static\',\'font-awesome-4.7.0/css/font-awesome.min.css\'))\nresponse.write(\'">\\n  \\n  <script src="\', escape=False)\nresponse.write(URL(\'static\',\'js/jquery.min.js\'))\nresponse.write(\'"></script>\\n  <script src="\', escape=False)\nresponse.write(URL(\'static\',\'js/bootstrap.min.js\'))\nresponse.write(\'"></script>\\n\\n  <!--[if lt IE 9]>\\n  <script src="https://oss.maxcdn.com/libs/html5shiv/3.7.0/html5shiv.js"></script>\\n  <script src="https://oss.maxcdn.com/libs/respond.js/1.4.2/respond.min.js"></script>\\n  <![endif]-->\\n  \\n  \', escape=False)\nresponse.write(\'\\n  <link rel="stylesheet" href="https://cdn.linearicons.com/free/1.0.0/icon-font.min.css">\\n  <meta name="viewport" content="width=device-width, initial-scale=1">\\n  <link rel="stylesheet" href="https://cdnjs.cloudflare.com/ajax/libs/meyer-reset/2.0/reset.min.css">\\n  <link rel="stylesheet" href="\', escape=False)\nresponse.write(URL(\'static\', \'css/agregarDoc.css\'))\nresponse.write(\'">\\n  <link rel=\\\'stylesheet prefetch\\\' href=\\\'https://fonts.googleapis.com/css?family=Poppins:300,400,700\\\'>\\n  <style type="text/css">\\n    \\n    .wrapper {\\n      max-width: 80%;\\n      margin: auto;\\n      margin-top: 10px;\\n    }\\n\\n    .tab-wrapper2 {\\n      text-align: center;\\n      display: block;\\n      margin: auto;\\n      max-width: 1200px;\\n    }\\n\\n    .tabs {\\n      margin: 0;\\n      padding: 0;\\n      display: flex;\\n      justify-content: center;\\n    }\\n\\n    .tab-link {\\n      margin: 0 1%;\\n      list-style: none;\\n      padding: 10px 40px;\\n      font-size: 25px;\\n      color: #aaa;\\n      cursor: pointer;\\n      font-weight: 700;\\n      transition: all ease 0.5s;\\n      border-bottom: solid 3px rgba(255, 255, 255, 0);\\n      letter-spacing: 1px;\\n    }\\n\\n    .tab-link:hover {\\n      color: #999;\\n      border-color: #999;\\n    }\\n\\n    .tab-link.active {\\n      color: #333;\\n      border-color: #333;\\n    }\\n\\n    .tab-link:nth-of-type(1).active {\\n      color: #60e8f2;\\n      border-color: #60e8f2;\\n    }\\n\\n    .tab-link:nth-of-type(2).active {\\n      color: #60e8f2;\\n      border-color: #60e8f2;\\n    }\\n\\n    .tab-link:nth-of-type(3).active {\\n      color: #60e8f2;\\n      border-color: #60e8f2;\\n    }\\n\\n    .content-wrapper {\\n      margin-top: 30px;\\n      padding: 40px 80px;\\n    }\\n\\n    .tab-content {\\n      display: none;\\n      text-align: left;\\n      color: #888;\\n      font-weight: 300;\\n      font-size: 15px;\\n      opacity: 0;\\n      transform: translateY(15px);\\n      animation: fadeIn 0.5s ease 1 forwards;\\n    }\\n\\n    .tab-content.active {\\n      display: block;\\n    }\\n\\n    @keyframes fadeIn {\\n      100% {\\n        opacity: 1;\\n        transform: none;\\n      }\\n    }\\n\\n  </style>\\n\\n\', escape=False)\nresponse.write(\' \\n</head>\\n<body>\\n\\n<!-- Barra de navegaci\\xc3\\xb3n principal -->\\n<div class="container" id="logo">\\n<a class="navbar-brand" href="\', escape=False)\nresponse.write(URL(\'..\', \'sigulab2\'))\nresponse.write(\'"><div class="logotext">SIGULAB</div></a>\\n</div>\\n<nav class="navbar navbar-inverse navbar-fixed-top">\\n  <div class="container-fluid">\\n      <div class="navbar-header">\\n        <button type="button" class="navbar-toggle" data-toggle="collapse" data-target="#myNavbar">\\n          <span class="icon-bar"></span>\\n          <span class="icon-bar"></span>\\n          <span class="icon-bar"></span> \\n          </button>\\n          <a class="navbar-brand" id="hide" href="#"><div class="logotext">SIGULAB</div></a>\\n      </div>\\n      <div class="collapse navbar-collapse" id="myNavbar">\\n\\n        <ul class="nav navbar-nav">\\n            \\n            <li class="dropdown active-item" id="inicio">\\n              <a class="dropdown-toggle" href="\', escape=False)\nresponse.write(URL(\'..\', \'sigulab2\'))\nresponse.write(\'">INICIO</a>\\n            </li>\\n\\n            <li class="dropdown active-item" id="personal">\\n              <a href="#" class="dropdown-toggle" data-toggle="dropdown" role="button" aria-haspopup="true" aria-expanded="false">PERSONAL<span class="caret"></span></a>\\n              <ul class=" dropdown-menu">\\n                <li><a href="\', escape=False)\nresponse.write(URL(\'personal\',\'index\'))\nresponse.write(\'">P\\xc3\\xa1gina Principal</a></li>\\n                <li><a href="\', escape=False)\nresponse.write(URL(\'personal\',\'listado\'))\nresponse.write(\'">Listado General de Personal</a></li>\\n                <li><a href="#">Listado por Categor\\xc3\\xadas de Personal</a></li>\\n                <li><a href="#">Listado por Dependencias de Personal</a></li>\\n                <li><a href="#">Listado por A\\xc3\\xb1os de Servicio de Personal</a></li>\\n              </ul>\\n            </li>\\n            \\n            <li class="dropdown active-item" id="servicios">\\n\\n              <a href="#" class="dropdown-toggle" data-toggle="dropdown" role="button" aria-haspopup="true" aria-expanded="false">SERVICIOS<span class="caret"></span></a>\\n                <ul class=" dropdown-menu">\\n                <li><a href="\', escape=False)\nresponse.write(URL(\'servicios\',\'index\'))\nresponse.write(\'">P\\xc3\\xa1gina Principal</a></li>\\n                <li><a href="\', escape=False)\nresponse.write(URL(\'servicios\',\'listado\'))\nresponse.write(\'">Listado de Servicios</a></li>\\n                <li><a href="\', escape=False)\nresponse.write(URL(\'servicios\',\'solicitudes\'))\nresponse.write(\'">Solicitudes de Servicios</a></li>\\n                <li><a href="\', escape=False)\nresponse.write(URL(\'servicios\',\'certificaciones\'))\nresponse.write(\'">Certificar un servicio</a></li>\\n                <li><a href="\', escape=False)\nresponse.write(URL(\'servicios\',\'historial\'))\nresponse.write(\'">Historial de servicios</a></li>\\n                <li><a href="\', escape=False)\nresponse.write(URL(\'servicios\',\'catalogoServicios\'))\nresponse.write(\'">Cat\\xc3\\xa1logo de Servicios</a></li>\\n              </ul>\\n            </li>\\n\\n            <li class="dropdown active-item" id="smydp">\\n              <a href="#" class="dropdown-toggle" data-toggle="dropdown" role="button" aria-haspopup="true" aria-expanded="false">SMyDP<span class="caret"></span></a>\\n                <ul class="dropdown-menu">\\n                <li><a href="\', escape=False)\nresponse.write(URL(\'smydp\', \'index\'))\nresponse.write(\'">P\\xc3\\xa1gina Principal</a></li>\\n                  <li><a href="\', escape=False)\nresponse.write(URL(\'smydp\', \'catalogo\'))\nresponse.write(\'">Listado de Sustancias</a></li>\\n                  <li><a href="\', escape=False)\nresponse.write(URL(\'smydp\', \'inventarios\'))\nresponse.write(\'">Inventario</a></li>\\n                 </ul>\\n            </li> \\n            <li class="dropdown active-item" id="smydp">\\n              <a href="#" class="dropdown-toggle" data-toggle="dropdown" role="button" aria-haspopup="true" aria-expanded="false">Informaci\\xc3\\xb3n Documentada<span class="caret"></span></a>\\n                <ul class="dropdown-menu">\\n                <li><a href="\', escape=False)\nresponse.write(URL(\'informacion_documentada\', \'index\'))\nresponse.write(\'">P\\xc3\\xa1gina Principal</a></li>\\n                  <li><a href="\', escape=False)\nresponse.write(URL(\'informacion_documentada\', \'lista_documentos\'))\nresponse.write(\'">Listado de Documentos</a></li>\\n                 </ul>\\n            </li> \\n\\n        </ul>\\n\\n      <ul class="nav navbar-nav navbar-right">\\n      \', escape=False)\nif auth.has_membership(\'ADMINISTRADOR PERSONAL\') \\\nor auth.has_membership(\'WEBMASTER\')\\\nor auth.has_membership(\'DIRECTOR\'):\n    response.write(\'\\n        <li class="dropdown">\\n          <div class="dropdown">\\n            <button class="btn btn-primary dropdown-toggle" type="button" data-toggle="dropdown">\\n              <i id="iconoInfo" class="fa fa-cog" aria-hidden="true"></i>\\n            </button>\\n            <ul class="dropdown-menu">\\n              <li><a href="\', escape=False)\n    response.write(URL(\'modulos\',\'register\'))\n    response.write(\'">Registrar Usuario</a></li>\\n              <li><a href="\', escape=False)\n    response.write(URL(\'gestion\',\'usuarios\'))\n    response.write(\'">Usuarios Autorizados</a></li>\\n              <li><a href="\', escape=False)\n    response.write(URL(\'gestion\',\'dependencias\'))\n    response.write(\'">Dependencias</a></li>\\n              <li><a href="\', escape=False)\n    response.write(URL(\'gestion\',\'espacios_fisicos\'))\n    response.write(\'">Espacios F\\xc3\\xadsicos</a></li>\\n            </ul>\\n          </div>\\n        </li>\\n        \', escape=False)\n    pass\nresponse.write(\'\\n\\n        <li class="dropdown">\\n          <div class="dropdown">\\n            <button class="btn btn-primary dropdown-toggle" type="button" data-toggle="dropdown">\\n              <span id="iconoUser" class="glyphicon glyphicon-user dropdown-toggle"></span>\\n            </button>\\n            <ul class="dropdown-menu">\\n              <li>\', escape=False)\nif auth.is_logged_in():\n    response.write(\'<a href="\', escape=False)\n    response.write(URL(\'modulos\', \'editprofile\', args=\'profile\'))\n    response.write(\'">\', escape=False)\n    response.write(auth.user.first_name)\n    response.write(\'  \', escape=False)\n    response.write(auth.user.last_name)\n    response.write(\'</a>\', escape=False)\n    pass\nresponse.write(\'</li>\\n              <li><a href="\', escape=False)\nresponse.write(URL(\'modulos\',\'logout\'))\nresponse.write(\'">Salir</a></li>\\n            </ul>\\n          </div>\\n        </li>\\n      </ul> \\n     </div>\\n  </div>\\n</nav>\\n<!-- Fin de la barra de navegaci\\xc3\\xb3n principal -->\\n\\n<div class="fondoblanco"></div> \\n<div class="separador"></div>\\n\\n\', escape=False)\nresponse.write(\'\\n<nav class="navbar navbar-inverse navbar-fixed-top breadcrumbs">\\n  <div class="breadcrumb">\\n  <a class="breadcrumb-item" href="\', escape=False)\nresponse.write(URL(\'..\', \'sigulab2\'))\nresponse.write(\'">Inicio</a>\\n  <a class="breadcrumb-item" href="\', escape=False)\nresponse.write(URL(\'..\', \'sigulab2\',\'informacion_documentada\',\'\'))\nresponse.write(\'">Informaci\\xc3\\xb3n Documentada</a>\\n  <a class="breadcrumb-item" href="\', escape=False)\nresponse.write(URL(\'..\', \'sigulab2\',\'informacion_documentada\',\'\'))\nresponse.write(\'">Listado de Documentos</a>\\n  <span class="breadcrumb-item active">Ficha</span>\\n  </div>\\n</nav>\\n  \', escape=False)\nfor doc in message:\n    response.write(\'\\n\\n\\n\\n<div class="wrapper">\\n    \\n  <div class="tab-wrapper2">\\n    <ul class="tabs">\\n        <li class="tab-link active" data-tab="1">Informaci\\xc3\\xb3n General</li>\\n        <li class="tab-link" data-tab="2">Historial de Revisi\\xc3\\xb3n</li>\\n        <li class="tab-link" data-tab="3">Ubicaci\\xc3\\xb3n</li>\\n    </ul>\\n  </div>\\n\\n  <div class="content-wrapper">\\n    <div id="tab-1" class="tab-content active">\\n\\n      <p><span style="color: #52798c; font-size: 1.2em;">C\\xc3\\xb3digo:  \', escape=False)\n    response.write(doc.codigo)\n    response.write(\'  </span></p>\\n      <p><span style="color: #52798c; font-size: 1.2em;">Tipo:    \', escape=False)\n    response.write(doc.tipo_doc)\n    response.write(\'  </span></p>\\n      <p><span style="color: #52798c; font-size: 1.2em;">Documento: \', escape=False)\n    response.write(doc.nombre_doc)\n    response.write(\'    </span> </p>\\n      <p><span style="color: #52798c; font-size: 1.2em;">Objetivo: \', escape=False)\n    response.write(doc.objetivo)\n    response.write(\'       </span></p>\\n      <p><span style="color: #52798c; font-size: 1.2em;">Estatus:  \', escape=False)\n    response.write(doc.estatus)\n    response.write(\'    </span></p>\\n      <p><span style="color: #52798c; font-size: 1.2em;">Per\\xc3\\xadodo de Revisi\\xc3\\xb3n:  \', escape=False)\n    response.write(doc.periodo_rev)\n    response.write(\'   </span></p>\\n\\n      <div style="margin-top: 50px; float: right;">\\n        <div class="row container-fluid">\\n            <form method="POST">\\n                <button type="button" class="btn btn-primary btn-lg" id="botonModal" style="margin-right: 15px;">Editar</button>\\n                <button type="button" class="btn btn-info btn-lg" style="margin-right: 15px;">Ocultar</button>\\n                <button type="submit" class="btn btn-danger btn-lg" name="eliminar" value="eliminar">Eliminar</button>\\n            </form>\\n        </div>\\n      </div>  \\n    \\n\\n    </div>\\n\\n\\n\\n    <div id="tab-2" class="tab-content">\\n\\n\\n\\n      <table class="container">\\n        <thead>\\n          <tr>\\n            <th>Responsable</th>\\n            <th>Elaborado por</th>\\n            <th>Revisi\\xc3\\xb3n de contenido realizado por</th>\\n            <th>Fecha de revisi\\xc3\\xb3n de contenido</th>\\n            <th>Revisi\\xc3\\xb3n de especificaciones del documento realizado por</th>\\n            <th>Fecha de revisi\\xc3\\xb3n de especificaciones del documento</th>\\n            <th>Revisi\\xc3\\xb3n por el Consejo Asesor</th>\\n            <th>Fecha de revisi\\xc3\\xb3n por el Consejo Asesor</th>\\n\\n          </tr>\\n        </thead>\\n        <tbody>\\n          <tr>\\n\\n            <td>\', escape=False)\n    response.write(doc.responsable)\n    response.write(\'</td>\\n            <td>\', escape=False)\n    response.write(doc.elaborado_actualizado_por)\n    response.write(\'</td>\\n            <td>\', escape=False)\n    response.write(doc.rev_contenido_realizado_por)\n    response.write(\'</td>\\n            <td>\', escape=False)\n    response.write(doc.fecha_rev_contenido)\n    response.write(\'</td>\\n            <td>\', escape=False)\n    response.write(doc.rev_especficaciones_doc_realizado_por)\n    response.write(\'</td>\\n            <td>\', escape=False)\n    response.write(doc.fecha_rev_especificaciones_doc)\n    response.write(\'</td>\\n            <td>\', escape=False)\n    response.write(doc.rev_por_consejo_asesor)\n    response.write(\'</td>\\n            <td>\', escape=False)\n    response.write(doc.fecha_rev_por_consejo_asesor)\n    response.write(\'</td>\\n            \\n          </tr>\\n\\n        </tbody>\\n      </table>\\n\\n\\n\\n    </div>\\n    <div id="tab-3" class="tab-content">\\n  \\n      <p><span style="color: #52798c; font-size: 1.2em;">C\\xc3\\xb3digo de registro de Ubicacion: \', escape=False)\n    response.write(doc.registro)\n    response.write(\'  </span></p>\\n      <p><span style="color: #52798c; font-size: 1.2em;">Fecha de registro de Ubicacion:      </span></p>\\n      <p><span style="color: #52798c; font-size: 1.2em;">Carpeta electr\\xc3\\xb3nica:     </span> </p>\\n      <p><span style="color: #52798c; font-size: 1.2em;">Archivo electr\\xc3\\xb3nico:   \', escape=False)\n    response.write(doc.ubicacion_electronica)\n    response.write(\'  </span></p>\\n      <p><span style="color: #52798c; font-size: 1.2em;">Ubicaci\\xc3\\xb3n f\\xc3\\xadsica del documento: \', escape=False)\n    response.write(doc.ubicacion_fisica)\n    response.write(\'     </span></p>\\n    \\n\\n    </div>\\n  </div>\\n  \\n</div>    \\n\', escape=False)\n    if false:\n        response.write(\'\\n <input type="text" class="input" name="nombre_documento" id="nombre_documento" value="\', escape=False)\n        response.write(doc.nombre_doc)\n        response.write(\'" required>\\n\', escape=False)\n        pass\n    response.write(\'\\n\\n\\n<script>\\n  jQuery(document).ready(function(){\\n   if(doc.estatus):\\n    print ("mkm")\\n        \\n});\\n</script>\\n\\n\\n\\n\\n\\n\\n\\n\\n\\n\\n\\n\\n\\n\\n\\n\\n\\n\\n\\n\\n\\n\\n\\n\\n<div id="modal" class="modal">\\n\\n  <form id="form-wrapper" class="form-wrapper" name="form" method="POST">\\n\\n      <nav id="progress-bar" class="progress-bar">\\n          <ul class="progress-bar__container">  \\n              <li class="progress-bar__item current"><a href="#" class="link">Informaci\\xc3\\xb3n General</a></li>\\n              <li class="progress-bar__item"><a href="#" class="link">Informaci\\xc3\\xb3n de Elaboraci\\xc3\\xb3n</a></li>\\n              <li class="progress-bar__item"><a href="#" class="link">Informaci\\xc3\\xb3n de Revisi\\xc3\\xb3n</a></li>\\n              <li class="progress-bar__item"><a href="#" class="link">Aprobado </a></li> \\n              <li class="progress-bar__item"><a href="#" class="link">Ubicaci\\xc3\\xb3n del Documento</a></li>\\n\\n          </ul>\\n      </nav>\\n      \\n      <div id="fieldset-container" class="tab-wrapper ">\\n\\n          <fieldset class="tab-panel">\\n              <legend>Editar Documento / Informaci\\xc3\\xb3n General</legend>\\n\\n              <input type="hidden" name="indicador" value="agregar">\\n\\n              <div class="input-group focus">\\n                  <input type="text" class="input" name="nombre_documento" id="nombre_documento" value="\', escape=False)\n    response.write(doc.nombre_doc)\n    response.write(\'" required>\\n                  <label class="label" for="nombre_documento"><i class="lnr lnr-user"></i> Nombre del Documento</label>\\n              </div>\\n\\n              <div class="input-group"> \\n                  <select name="tipo" id="tipo" class="input" >\\n                    <option value=""></option>\\n\\n            <option value="Referente Estrategico">Referente Estrat\\xc3\\xa9gico</option>\\n            <option value="Reglamento">Reglameto</option>\\n            <option value="Manual">Manual de Organizaci\\xc3\\xb3n</option>\\n            <option value="Manual">Manual de Calidad</option>\\n            <option value="Manual">Manual de Proceso de Gesti\\xc3\\xb3n</option>\\n            <option value="Manual">Manual de Proceso T\\xc3\\xa9cnico</option>\\n            <option value="Manual">Manual de Uso</option>\\n            <option value="Otro">Manual de Uso</option>\\n\\n          </select>\\n                  <label class="label" for="tipo">Tipo del Documento</label>\\n              </div>\\n\\n              <div class="input-group"> \\n                  <select name="responsable" id="responsable" class="input">\\n                    <option value=""></option>\\n\\n            <option value="DIRECCI\\xc3\\x93N">DIRECCI\\xc3\\x93N</option>\\n            <option value="LABORATORIO A">LABORATORIO A</option>\\n            <option value="LABORATORIO B">LABORATORIO B</option>\\n            <option value="LABORATORIO C">LABORATORIO C</option>\\n            <option value="LABORATORIO D">LABORATORIO D</option>\\n            <option value="LABORATORIO E">LABORATORIO E</option>\\n            <option value="LABORATORIO F">LABORATORIO F</option>\\n            <option value="LABORATORIO G">LABORATORIO H</option>\\n            <option value="UNIDAD DE ADMINISTRACI\\xc3\\x93N">UNIDAD DE ADMINISTRACI\\xc3\\x93N</option>\\n            <option value="COORDINACI\\xc3\\x93N DE ADQUISICIONES">COORDINACI\\xc3\\x93N DE ADQUISICIONES</option>\\n            <option value="COORDINACI\\xc3\\x93N DE IMPORTACIONES">COORDINACI\\xc3\\x93N DE IMPORTACIONES</option>\\n            <option value="COORDINACI\\xc3\\x93N DE LA CALIDAD">COORDINACI\\xc3\\x93N DE LA CALIDAD</option>\\n            <option value="OFICINA DE PROTECCI\\xc3\\x93N RADIOL\\xc3\\x93GICA">OFICINA DE PROTECCI\\xc3\\x93N RADIOL\\xc3\\x93GICA</option>\\n          \\n          </select>\\n                  <label class="label" for="responsable">Responsable</label>\\n              </div>\\n\\n        <!--<div class="input-group">\\n                  <input type="text" class="input" name="responsable" id="responsable"> \\n                  <label class="label" for="responsable"><i class="lnr lnr-users"></i> Responsable </label>\\n              </div>-->\\n        \\n        <div class="input-group focus">\\n                  <input type="date" class="input" name="fecha_prox_rev" id="fecha_prox_rev" value="\', escape=False)\n    response.write(doc.fecha_prox_rev)\n    response.write(\'">\\n                  <label class="label" for="fecha_prox_rev"><i class="lnr lnr-calendar-full"></i> Fecha de entrega para revisi\\xc3\\xb3n</label>\\n              </div>\\n          </fieldset>\\n\\n          <fieldset class="tab-panel">\\n              <legend>Editar Documento / Informaci\\xc3\\xb3n Elaboraci\\xc3\\xb3n</legend>\\n              \\n              <div class="input-group focus" >\\n                  <input type="text" class="input" name="codigo" id="codigo" value="\', escape=False)\n    response.write(doc.codigo)\n    response.write(\'" disabled="true" required> \\n                  <label class="label" for="codigo"><i class="lnr lnr-code"></i> C\\xc3\\xb3digo Documento</label>\\n              </div>\\n              <div class="input-group focus">\\n                  <input type="text" class="input" name="objetivos" id="objetivos" value="\', escape=False)\n    response.write(doc.objetivo)\n    response.write(\'"> \\n                  <label class="label" for="objetivos"><i class="lnr lnr-flag"></i> Objetivos </label>\\n              </div>\\n        <div class="input-group">\\n\\n\\n                  <select name="periodo" id="periodo" class="input">\\n            <option value=""></option>\\n\\n            <option value="Quincenal">Quincenal</option>\\n            <option value="Mensual">Mensual</option>\\n            <option value="Trimestral">Trimestral</option>\\n            <option value="Semestral">Semestral</option>\\n            <option value="Anual">Anual</option>\\n            <option value="Bienal">Bienal</option>\\n            <option value="Trienal">Trienal</option>\\n\\n          </select> \\n\\n\\n                  <label class="label" for="periodo"><i class="lnr lnr-map-marker"></i>Per\\xc3\\xadodo de Revisi\\xc3\\xb3n</label>\\n              </div>\\n              <!--<div class="input-group">\\n\\n                  <input type="number" class="input" name="anexos" id="anexos" min="0" max="30"> \\n\\n                  <label class="label" for="anexos"><i class="lnr lnr-paperclip"></i> Cantidad de Anexos </label>\\n              </div>-->\\n              <div class="input-group focus">\\n                  <input type="text" class="input" name="elaborado" id="elaborado" value="\', escape=False)\n    response.write(doc.elaborado_actualizado_por)\n    response.write(\'"> \\n                  <label class="label" for="elaborado"><i class="lnr lnr-pencil"></i> Elaborado por </label>\\n              </div>\\n         \\n              <div class="input-group"> \\n                  <select name="estatus" id="estatus" class="input">\\n                    <option value=""></option>\\n\\n            <option value="Planificado">En planificaci\\xc3\\xb3n</option>\\n            <option value="Elaborado">En elaboraci\\xc3\\xb3n</option>\\n            <option value="Revisado">En revisi\\xc3\\xb3n</option>\\n            <option value="Aprobado">Aprobado</option>\\n\\n          </select>\\n                  <label class="label" for="estatus">Estatus</label>\\n              </div>\\n\\n              \\n\\n\\n          </fieldset>\\n\\n          <fieldset class="tab-panel">\\n              <legend>Editar Documento / Informaci\\xc3\\xb3n Revisi\\xc3\\xb3n</legend>\\n\\n        <div class="input-group focus">\\n                  <input type="text" class="input" name="revision_contenido" id="revision_contenido" value="\', escape=False)\n    response.write(doc.rev_contenido_realizado_por)\n    response.write(\'">\\n                  <label class="label" for="revision_contenido"><i class="lnr lnr-spell-check"></i>Revisi\\xc3\\xb3n de contenido realizado por:</label>\\n              </div> \\n              <div class="input-group focus">\\n                  <input type="date" class="input" name="fecha_revision_contenidos" id="fecha_revision_contenidos" value="\', escape=False)\n    response.write(doc.fecha_rev_contenido)\n    response.write(\'">\\n                  <label class="label" for="fecha_revision_contenidos"><i class="lnr lnr-calendar-full"></i> Fecha de registro de revisi\\xc3\\xb3n de contenidos</label>\\n              </div> \\n              \\n              <div class="input-group focus">\\n                  <input type="text" class="input" name="revision_especificaciones" id="revision_especificaciones" value="\', escape=False)\n    response.write(doc.rev_especficaciones_doc_realizado_por)\n    response.write(\'">\\n                  <label class="label" for="revision_especificaciones"><i class="lnr lnr-spell-check"></i>Revisi\\xc3\\xb3n de especificaciones del documento realizado por:</label>\\n              </div> \\n\\n              <div class="input-group focus">\\n                  <input type="date" class="input" name="fecha_revision_especificaciones" id="fecha_revision_especificaciones" value="\', escape=False)\n    response.write(doc.fecha_rev_especificaciones_doc)\n    response.write(\'">\\n                  <label class="label" for="fecha_revision_especificaciones"><i class="lnr lnr-calendar-full"></i> Fecha de revisi\\xc3\\xb3n de especificaciones del documento</label>\\n              </div> \\n              <div class="input-group focus">\\n                  <input type="text" class="input" name="revision_consejo" id="revision_consejo" value="\', escape=False)\n    response.write(doc.rev_por_consejo_asesor)\n    response.write(\'">\\n                  <label class="label" for="revision_consejo"><i class="lnr lnr-spell-check" ></i>Revisi\\xc3\\xb3n por el Consejo Asesor</label>\\n              </div> \\n              <div class="input-group focus">\\n                  <input type="date" class="input" name="fecha_revision_consejo" id="fecha_revision_consejo" value="\', escape=False)\n    response.write(doc.fecha_rev_por_consejo_asesor)\n    response.write(\'">\\n                  <label class="label" for="fecha_revision_consejo"><i class="lnr lnr-calendar-full"></i> Fecha de revisi\\xc3\\xb3n por el Consejo Asesor</label>\\n              </div> \\n\\n              <!--<div class="input-group">\\n\\n\\n                  <input type="text" class="input" name="periodocant" id="periodocant">\\n\\n                  <label class="label" for="periodocant"><i class="lnr lnr-map-redo"></i>Per\\xc3\\xadodo de Revisi\\xc3\\xb3n (cantidad)</label>\\n              </div>-->\\n\\n\\n\\n\\n          </fieldset>\\n          \\n          <fieldset class="tab-panel">\\n              <legend>Editar Documento / Aprobado </legend>\\n\\n\\n              <div class="input-group focus">\\n                  <input type="text" class="input" name="aprobado" id="aprobado" value="\', escape=False)\n    response.write(doc.aprobado_por)\n    response.write(\'">\\n                  <label class="label" for="aprobado"><i class="icon-thumbs-up"></i> Aprobado Por:</label>\\n              </div>\\n              <div class="input-group focus">\\n          <input type="date" class="input" name="fechaAprobacion" id="fechaAprobacion" >\\n          <label class="label" for="fechaAprobacion"><i class="lnr lnr-calendar-full"></i>Fecha de Aprobaci\\xc3\\xb3n</label>\\n        </div>  \\n              <div class="input-group focus">\\n\\n                  <input type="text" class="input" name="cod_registro" id="cod_registro" value="cod_aprob">\\n                  <label class="label" for="cod_registro"><i class="lnr lnr-code"></i> C\\xc3\\xb3digo de Registro de Aprobacion</label>\\n              </div>\\n               <div class="input-group focus">\\n                  <input type="text" class="input" name="cod_controlCambios" id="cod_controlCambios" disabled="true">\\n                  <label class="label" for="cod_controlCambios"><i class="lnr lnr-code"></i> Cod Registro de control de cambios</label>\\n              </div>\\n\\n              <div class="input-group focus">\\n                  <input type="date" class="input" disabled="" name="fechaControlCambios" id="fechaControlCambios">\\n                  <label class="label" for="fechaControlCambios"><i class="lnr lnr-calendar-full"></i> Fecha de reg de control de cambios</label>\\n              </div>\\n              \\n\\n\\n\\n\\n          </fieldset>\\n\\n          <fieldset class="tab-panel">\\n              <legend>Ubicaci\\xc3\\xb3n del Documento</legend>\\n\\n              <div class="input-group focus">\\n                  <input type="text" class="input" name="ubicacion_fisica" id="ubicacion_fisica" ">\\n                  <label class="label" for="ubicacion_fisica"><i class="lnr lnr-pushpin"></i>Ubicaci\\xc3\\xb3n f\\xc3\\xadsica del documento</label>\\n              </div>  \\n             <!--<div class="input-group">\\n                  <input type="text" class="input" name="archivo_el" id="archivo_el" value="\', escape=False)\n    response.write(doc.ubicacion_electronica)\n    response.write(\'>\\n                  <label class="label" for="archivo_el"><i class="lnr lnr-file-empty"></i>Archivo electr\\xc3\\xb3nico</label>\\n              </div>-->\\n              <div class="input-group focus">\\n                  <input type="text" class="input" name="carpeta_el" id="carpeta_el">\\n                  <label class="label" for="carpeta_el"><i class="lnr lnr-enter"></i>Carpeta electr\\xc3\\xb3nica</label>\\n              </div>\\n              \\n                        \\n              \\n                  \\n                  \\n\\n\\n\\n          </fieldset>\\n  \\n\\n         \\n      </div>\\n      <button type="submit" form="form-wrapper" class="submit-button button" value="Submit" name="button" id="edit_send">Guardar</button>\\n      <span class="close">&times;</span>\\n      \\n      <nav id="tab-nav" class="tab-nav">\\n          <button class="tab-nav__button nav-button prev lnr lnr-arrow-up"></button>\\n          <button class="tab-nav__button nav-button next lnr lnr-arrow-down"></button>\\n      </nav>\\n      \\n  </form>\\n\\n</div>\\n\\n\\n\\n\\n\\n\\n\\n  \', escape=False)\n    pass\nresponse.write(\'\\n  <script src=\\\'https://cdnjs.cloudflare.com/ajax/libs/jquery/3.3.1/jquery.min.js\\\'></script>\\n  <script type="text/javascript">\\n    var ficha = "\', escape=False)\nresponse.write(URL(\'informacion_documentada\',\'ficha\',args=[doc.codigo]))\nresponse.write(\'";\\n    $(\\\'.tab-link\\\').click( function() {\\n    \\n    var tabID = $(this).attr(\\\'data-tab\\\');\\n    \\n    $(this).addClass(\\\'active\\\').siblings().removeClass(\\\'active\\\');\\n    \\n    $(\\\'#tab-\\\'+tabID).addClass(\\\'active\\\').siblings().removeClass(\\\'active\\\');\\n  });\\n  </script>\\n  <script type="text/javascript">\\n    // Get the modal\\n    var modal = document.getElementById(\\\'modal\\\');\\n\\n    // Get the button that opens the modal\\n    var btn = document.getElementById("botonModal");\\n\\n    // Get the <span> element that closes the modal\\n    var span = document.getElementsByClassName("close")[0];\\n\\n    // When the user clicks on the button, open the modal \\n    btn.onclick = function() {\\n        modal.style.display = "block";\\n    }\\n\\n    // When the user clicks on <span> (x), close the modal\\n    span.onclick = function() {\\n        modal.style.display = "none";\\n    }\\n\\n    // When the user clicks anywhere outside of the modal, close it\\n    window.onclick = function(event) {\\n        if (event.target == modal) {\\n            modal.style.display = "none";\\n        }\\n    }\\n\\n    $(\\\'#edit_send\\\').click(function(event){\\n        window.reload();\\n    });\\n  </script>\\n<script src=\\\'https://cdnjs.cloudflare.com/ajax/libs/jquery/3.3.1/jquery.min.js\\\'></script>\\n<script src="\', escape=False)\nresponse.write(URL(\'static\',\'js/agregarDoc.js\'))\nresponse.write(\'"></script>\\n\', escape=False)\nresponse.write(\'\\n\\n<script type="text/javascript">\\n  if(window.location.pathname.includes(\\\'personal\\\')){\\n    $(\\\'li#personal\\\').addClass("active");\\n  }\\n  else if (window.location.pathname.includes(\\\'servicios\\\')){\\n    $(\\\'li#servicios\\\').addClass("active");\\n  }\\n</script>\\n</body>\\n</html>\\n\', escape=False)'
p7
sS'snapshot'
p8
(dp9
S'exception'
p10
(dp11
S'__getslice__'
p12
S"<method-wrapper '__getslice__' of exceptions.NameError object>"
p13
sS'__str__'
p14
S"<method-wrapper '__str__' of exceptions.NameError object>"
p15
sS'__reduce__'
p16
S'<built-in method __reduce__ of exceptions.NameError object>'
p17
sS'__dict__'
p18
S'{}'
p19
sS'message'
p20
S'"name \'false\' is not defined"'
p21
sS'__sizeof__'
p22
S'<built-in method __sizeof__ of exceptions.NameError object>'
p23
sS'__init__'
p24
S"<method-wrapper '__init__' of exceptions.NameError object>"
p25
sS'__setattr__'
p26
S"<method-wrapper '__setattr__' of exceptions.NameError object>"
p27
sS'__reduce_ex__'
p28
S'<built-in method __reduce_ex__ of exceptions.NameError object>'
p29
sS'__new__'
p30
S'<built-in method __new__ of type object>'
p31
sS'__format__'
p32
S'<built-in method __format__ of exceptions.NameError object>'
p33
sS'__class__'
p34
S"<type 'exceptions.NameError'>"
p35
sS'__doc__'
p36
S"'Name not found globally.'"
p37
sS'__getitem__'
p38
S"<method-wrapper '__getitem__' of exceptions.NameError object>"
p39
sS'__setstate__'
p40
S'<built-in method __setstate__ of exceptions.NameError object>'
p41
sS'__getattribute__'
p42
S"<method-wrapper '__getattribute__' of exceptions.NameError object>"
p43
sS'args'
p44
S'("name \'false\' is not defined",)'
p45
sS'__subclasshook__'
p46
S'<built-in method __subclasshook__ of type object>'
p47
sS'__unicode__'
p48
S'<built-in method __unicode__ of exceptions.NameError object>'
p49
sS'__delattr__'
p50
S"<method-wrapper '__delattr__' of exceptions.NameError object>"
p51
sS'__repr__'
p52
S"<method-wrapper '__repr__' of exceptions.NameError object>"
p53
sS'__hash__'
p54
S"<method-wrapper '__hash__' of exceptions.NameError object>"
p55
ssS'evalue'
p56
S"name 'false' is not defined"
p57
sS'request'
p58
cgluon.html
XML_unpickle
p59
(S's\xd4d\x00\x00<div><table><tr><td style="font-weight:bold;vertical-align:top;">ajax</td><td style="vertical-align:top;">:</td><td><div>False</div></td></tr><tr><td style="font-weight:bold;vertical-align:top;">application</td><td style="vertical-align:top;">:</td><td><div>sigulab2</div></td></tr><tr><td style="font-weight:bold;vertical-align:top;">args</td><td style="vertical-align:top;">:</td><td><div><table><tr><td><div>nmnjn</div></td></tr></table></div></td></tr><tr><td style="font-weight:bold;vertical-align:top;">cid</td><td style="vertical-align:top;">:</td><td><div>None</div></td></tr><tr><td style="font-weight:bold;vertical-align:top;">client</td><td style="vertical-align:top;">:</td><td><div>127.0.0.1</div></td></tr><tr><td style="font-weight:bold;vertical-align:top;">controller</td><td style="vertical-align:top;">:</td><td><div>informacion_documentada</div></td></tr><tr><td style="font-weight:bold;vertical-align:top;">cookies</td><td style="vertical-align:top;">:</td><td><div><table><tr><td style="font-weight:bold;vertical-align:top;">csrftoken</td><td style="vertical-align:top;">:</td><td><div>V5qZDP9RSfIA9t9ZEr3gCjO16Mg6ALevDygMm7MSuBHGoBTDZBL5zIc7kBdYY5Bd<table><tr><td style="font-weight:bold;vertical-align:top;">comment</td><td style="vertical-align:top;">:</td><td><div></div></td></tr><tr><td style="font-weight:bold;vertical-align:top;">domain</td><td style="vertical-align:top;">:</td><td><div></div></td></tr><tr><td style="font-weight:bold;vertical-align:top;">expires</td><td style="vertical-align:top;">:</td><td><div></div></td></tr><tr><td style="font-weight:bold;vertical-align:top;">httponly</td><td style="vertical-align:top;">:</td><td><div></div></td></tr><tr><td style="font-weight:bold;vertical-align:top;">max-age</td><td style="vertical-align:top;">:</td><td><div></div></td></tr><tr><td style="font-weight:bold;vertical-align:top;">path</td><td style="vertical-align:top;">:</td><td><div></div></td></tr><tr><td style="font-weight:bold;vertical-align:top;">secure</td><td style="vertical-align:top;">:</td><td><div></div></td></tr><tr><td style="font-weight:bold;vertical-align:top;">version</td><td style="vertical-align:top;">:</td><td><div></div></td></tr></table></div></td></tr><tr><td style="font-weight:bold;vertical-align:top;">session_id_admin</td><td style="vertical-align:top;">:</td><td><div>127.0.0.1-49fb89b1-7c4b-44bf-aef9-ad6912710eac<table><tr><td style="font-weight:bold;vertical-align:top;">comment</td><td style="vertical-align:top;">:</td><td><div></div></td></tr><tr><td style="font-weight:bold;vertical-align:top;">domain</td><td style="vertical-align:top;">:</td><td><div></div></td></tr><tr><td style="font-weight:bold;vertical-align:top;">expires</td><td style="vertical-align:top;">:</td><td><div></div></td></tr><tr><td style="font-weight:bold;vertical-align:top;">httponly</td><td style="vertical-align:top;">:</td><td><div></div></td></tr><tr><td style="font-weight:bold;vertical-align:top;">max-age</td><td style="vertical-align:top;">:</td><td><div></div></td></tr><tr><td style="font-weight:bold;vertical-align:top;">path</td><td style="vertical-align:top;">:</td><td><div></div></td></tr><tr><td style="font-weight:bold;vertical-align:top;">secure</td><td style="vertical-align:top;">:</td><td><div></div></td></tr><tr><td style="font-weight:bold;vertical-align:top;">version</td><td style="vertical-align:top;">:</td><td><div></div></td></tr></table></div></td></tr><tr><td style="font-weight:bold;vertical-align:top;">session_id_sigulab2</td><td style="vertical-align:top;">:</td><td><div>127.0.0.1-47c6e738-3eba-4c2d-9f69-972889ca9f17<table><tr><td style="font-weight:bold;vertical-align:top;">comment</td><td style="vertical-align:top;">:</td><td><div></div></td></tr><tr><td style="font-weight:bold;vertical-align:top;">domain</td><td style="vertical-align:top;">:</td><td><div></div></td></tr><tr><td style="font-weight:bold;vertical-align:top;">expires</td><td style="vertical-align:top;">:</td><td><div></div></td></tr><tr><td style="font-weight:bold;vertical-align:top;">httponly</td><td style="vertical-align:top;">:</td><td><div></div></td></tr><tr><td style="font-weight:bold;vertical-align:top;">max-age</td><td style="vertical-align:top;">:</td><td><div></div></td></tr><tr><td style="font-weight:bold;vertical-align:top;">path</td><td style="vertical-align:top;">:</td><td><div></div></td></tr><tr><td style="font-weight:bold;vertical-align:top;">secure</td><td style="vertical-align:top;">:</td><td><div></div></td></tr><tr><td style="font-weight:bold;vertical-align:top;">version</td><td style="vertical-align:top;">:</td><td><div></div></td></tr></table></div></td></tr><tr><td style="font-weight:bold;vertical-align:top;">session_id_welcome</td><td style="vertical-align:top;">:</td><td><div>127.0.0.1-6807927a-da3a-46f7-8714-e3a87c8f9447<table><tr><td style="font-weight:bold;vertical-align:top;">comment</td><td style="vertical-align:top;">:</td><td><div></div></td></tr><tr><td style="font-weight:bold;vertical-align:top;">domain</td><td style="vertical-align:top;">:</td><td><div></div></td></tr><tr><td style="font-weight:bold;vertical-align:top;">expires</td><td style="vertical-align:top;">:</td><td><div></div></td></tr><tr><td style="font-weight:bold;vertical-align:top;">httponly</td><td style="vertical-align:top;">:</td><td><div></div></td></tr><tr><td style="font-weight:bold;vertical-align:top;">max-age</td><td style="vertical-align:top;">:</td><td><div></div></td></tr><tr><td style="font-weight:bold;vertical-align:top;">path</td><td style="vertical-align:top;">:</td><td><div></div></td></tr><tr><td style="font-weight:bold;vertical-align:top;">secure</td><td style="vertical-align:top;">:</td><td><div></div></td></tr><tr><td style="font-weight:bold;vertical-align:top;">version</td><td style="vertical-align:top;">:</td><td><div></div></td></tr></table></div></td></tr></table></div></td></tr><tr><td style="font-weight:bold;vertical-align:top;">env</td><td style="vertical-align:top;">:</td><td><div><table><tr><td style="font-weight:bold;vertical-align:top;">HTTP_ACCEPT</td><td style="vertical-align:top;">:</td><td><div>text/html,application/xhtml+xml,application/xml;q=0.9,image/webp,image/apng,*/*;q=0.8</div></td></tr><tr><td style="font-weight:bold;vertical-align:top;">HTTP_ACCEPT_ENCODING</td><td style="vertical-align:top;">:</td><td><div>gzip, deflate, br</div></td></tr><tr><td style="font-weight:bold;vertical-align:top;">HTTP_ACCEPT_LANGUAGE</td><td style="vertical-align:top;">:</td><td><div>es-419,es;q=0.9</div></td></tr><tr><td style="font-weight:bold;vertical-align:top;">HTTP_CACHE_CONTROL</td><td style="vertical-align:top;">:</td><td><div>max-age=0</div></td></tr><tr><td style="font-weight:bold;vertical-align:top;">HTTP_CONNECTION</td><td style="vertical-align:top;">:</td><td><div>keep-alive</div></td></tr><tr><td style="font-weight:bold;vertical-align:top;">HTTP_COOKIE</td><td style="vertical-align:top;">:</td><td><div>csrftoken=V5qZDP9RSfIA9t9ZEr3gCjO16Mg6ALevDygMm7MSuBHGoBTDZBL5zIc7kBdYY5Bd; session_id_admin=127.0.0.1-49fb89b1-7c4b-44bf-aef9-ad6912710eac; session_id_welcome=127.0.0.1-6807927a-da3a-46f7-8714-e3a87c8f9447; session_id_sigulab2=127.0.0.1-47c6e738-3eba-4c2d-9f69-972889ca9f17</div></td></tr><tr><td style="font-weight:bold;vertical-align:top;">HTTP_HOST</td><td style="vertical-align:top;">:</td><td><div>127.0.0.1:8000</div></td></tr><tr><td style="font-weight:bold;vertical-align:top;">HTTP_REFERER</td><td style="vertical-align:top;">:</td><td><div>http://127.0.0.1:8000/sigulab2/informacion_documentada/lista_documentos</div></td></tr><tr><td style="font-weight:bold;vertical-align:top;">HTTP_UPGRADE_INSECURE_REQUESTS</td><td style="vertical-align:top;">:</td><td><div>1</div></td></tr><tr><td style="font-weight:bold;vertical-align:top;">HTTP_USER_AGENT</td><td style="vertical-align:top;">:</td><td><div>Mozilla/5.0 (X11; Linux i686) AppleWebKit/537.36 (KHTML, like Gecko) Ubuntu Chromium/63.0.3239.84 Chrome/63.0.3239.84 Safari/537.36</div></td></tr><tr><td style="font-weight:bold;vertical-align:top;">PATH_INFO</td><td style="vertical-align:top;">:</td><td><div>/sigulab2/informacion_documentada/ficha/nmnjn</div></td></tr><tr><td style="font-weight:bold;vertical-align:top;">QUERY_STRING</td><td style="vertical-align:top;">:</td><td><div></div></td></tr><tr><td style="font-weight:bold;vertical-align:top;">REMOTE_ADDR</td><td style="vertical-align:top;">:</td><td><div>127.0.0.1</div></td></tr><tr><td style="font-weight:bold;vertical-align:top;">REMOTE_PORT</td><td style="vertical-align:top;">:</td><td><div>53408</div></td></tr><tr><td style="font-weight:bold;vertical-align:top;">REQUEST_METHOD</td><td style="vertical-align:top;">:</td><td><div>GET</div></td></tr><tr><td style="font-weight:bold;vertical-align:top;">SCRIPT_NAME</td><td style="vertical-align:top;">:</td><td><div></div></td></tr><tr><td style="font-weight:bold;vertical-align:top;">SERVER_NAME</td><td style="vertical-align:top;">:</td><td><div>nairelys-VIT-P2402</div></td></tr><tr><td style="font-weight:bold;vertical-align:top;">SERVER_PORT</td><td style="vertical-align:top;">:</td><td><div>8000</div></td></tr><tr><td style="font-weight:bold;vertical-align:top;">SERVER_PROTOCOL</td><td style="vertical-align:top;">:</td><td><div>HTTP/1.1</div></td></tr><tr><td style="font-weight:bold;vertical-align:top;">SERVER_SOFTWARE</td><td style="vertical-align:top;">:</td><td><div>Rocket 1.2.6</div></td></tr><tr><td style="font-weight:bold;vertical-align:top;">app_folders</td><td style="vertical-align:top;">:</td><td><div>set([&#x27;/home/nairelys/Descargas/Sigulab/web2py/applications/admin/&#x27;, &#x27;/home/nairelys/Descargas/Sigulab/web2py/applications/welcome/&#x27;, &#x27;/home/nairelys/Descargas/Sigulab/web2py/applications/sigulab2/&#x27;])</div></td></tr><tr><td style="font-weight:bold;vertical-align:top;">applications_parent</td><td style="vertical-align:top;">:</td><td><div>/home/nairelys/Descargas/Sigulab/web2py</div></td></tr><tr><td style="font-weight:bold;vertical-align:top;">cmd_args</td><td style="vertical-align:top;">:</td><td><div><table></table></div></td></tr><tr><td style="font-weight:bold;vertical-align:top;">cmd_options</td><td style="vertical-align:top;">:</td><td><div>&lt;Values at 0xb4962cec: {&#x27;verbose&#x27;: False, &#x27;ip&#x27;: &#x27;127.0.0.1&#x27;, &#x27;debuglevel&#x27;: 30, &#x27;with_scheduler&#x27;: False, &#x27;shutdown_timeout&#x27;: 5, &#x27;taskbar&#x27;: False, &#x27;with_coverage&#x27;: False, &#x27;pid_filename&#x27;: &#x27;httpserver.pid&#x27;, &#x27;maxthreads&#x27;: None, &#x27;softcron&#x27;: False, &#x27;server_name&#x27;: &#x27;nairelys-VIT-P2402&#x27;, &#x27;bpython&#x27;: False, &#x27;nogui&#x27;: False, &#x27;port&#x27;: 8000, &#x27;print_errors&#x27;: False, &#x27;extcron&#x27;: False, &#x27;runcron&#x27;: False, &#x27;run_system_tests&#x27;: False, &#x27;test&#x27;: None, &#x27;folder&#x27;: &#x27;/home/nairelys/Descargas/Sigulab/web2py&#x27;, &#x27;config&#x27;: &#x27;&#x27;, &#x27;minthreads&#x27;: None, &#x27;shell&#x27;: None, &#x27;run&#x27;: &#x27;&#x27;, &#x27;log_filename&#x27;: &#x27;httpserver.log&#x27;, &#x27;profiler_dir&#x27;: None, &#x27;args&#x27;: [&#x27;&#x27;], &#x27;socket_timeout&#x27;: 5, &#x27;ssl_ca_certificate&#x27;: None, &#x27;scheduler&#x27;: None, &#x27;interfaces&#x27;: None, &#x27;ssl_private_key&#x27;: &#x27;&#x27;, &#x27;gae&#x27;: None, &#x27;password&#x27;: &#x27;******&#x27;, &#x27;request_queue_size&#x27;: 5, &#x27;ssl_certificate&#x27;: &#x27;&#x27;, &#x27;cronjob&#x27;: False, &#x27;numthreads&#x27;: None, &#x27;quiet&#x27;: False, &#x27;import_models&#x27;: False, &#x27;timeout&#x27;: 10, &#x27;plain&#x27;: False, &#x27;nobanner&#x27;: False}&gt;</div></td></tr><tr><td style="font-weight:bold;vertical-align:top;">db_sessions</td><td style="vertical-align:top;">:</td><td><div>set([])</div></td></tr><tr><td style="font-weight:bold;vertical-align:top;">debugging</td><td style="vertical-align:top;">:</td><td><div>False</div></td></tr><tr><td style="font-weight:bold;vertical-align:top;">gluon_parent</td><td style="vertical-align:top;">:</td><td><div>/home/nairelys/Descargas/Sigulab/web2py</div></td></tr><tr><td style="font-weight:bold;vertical-align:top;">http_accept</td><td style="vertical-align:top;">:</td><td><div>text/html,application/xhtml+xml,application/xml;q=0.9,image/webp,image/apng,*/*;q=0.8</div></td></tr><tr><td style="font-weight:bold;vertical-align:top;">http_accept_encoding</td><td style="vertical-align:top;">:</td><td><div>gzip, deflate, br</div></td></tr><tr><td style="font-weight:bold;vertical-align:top;">http_accept_language</td><td style="vertical-align:top;">:</td><td><div>es-419,es;q=0.9</div></td></tr><tr><td style="font-weight:bold;vertical-align:top;">http_cache_control</td><td style="vertical-align:top;">:</td><td><div>max-age=0</div></td></tr><tr><td style="font-weight:bold;vertical-align:top;">http_connection</td><td style="vertical-align:top;">:</td><td><div>keep-alive</div></td></tr><tr><td style="font-weight:bold;vertical-align:top;">http_cookie</td><td style="vertical-align:top;">:</td><td><div>csrftoken=V5qZDP9RSfIA9t9ZEr3gCjO16Mg6ALevDygMm7MSuBHGoBTDZBL5zIc7kBdYY5Bd; session_id_admin=127.0.0.1-49fb89b1-7c4b-44bf-aef9-ad6912710eac; session_id_welcome=127.0.0.1-6807927a-da3a-46f7-8714-e3a87c8f9447; session_id_sigulab2=127.0.0.1-47c6e738-3eba-4c2d-9f69-972889ca9f17</div></td></tr><tr><td style="font-weight:bold;vertical-align:top;">http_host</td><td style="vertical-align:top;">:</td><td><div>127.0.0.1:8000</div></td></tr><tr><td style="font-weight:bold;vertical-align:top;">http_referer</td><td style="vertical-align:top;">:</td><td><div>http://127.0.0.1:8000/sigulab2/informacion_documentada/lista_documentos</div></td></tr><tr><td style="font-weight:bold;vertical-align:top;">http_upgrade_insecure_requests</td><td style="vertical-align:top;">:</td><td><div>1</div></td></tr><tr><td style="font-weight:bold;vertical-align:top;">http_user_agent</td><td style="vertical-align:top;">:</td><td><div>Mozilla/5.0 (X11; Linux i686) AppleWebKit/537.36 (KHTML, like Gecko) Ubuntu Chromium/63.0.3239.84 Chrome/63.0.3239.84 Safari/537.36</div></td></tr><tr><td style="font-weight:bold;vertical-align:top;">is_jython</td><td style="vertical-align:top;">:</td><td><div>False</div></td></tr><tr><td style="font-weight:bold;vertical-align:top;">is_py2</td><td style="vertical-align:top;">:</td><td><div>True</div></td></tr><tr><td style="font-weight:bold;vertical-align:top;">is_pypy</td><td style="vertical-align:top;">:</td><td><div>False</div></td></tr><tr><td style="font-weight:bold;vertical-align:top;">is_source</td><td style="vertical-align:top;">:</td><td><div>True</div></td></tr><tr><td style="font-weight:bold;vertical-align:top;">local_hosts</td><td style="vertical-align:top;">:</td><td><div><table><tr><td><div>nairelys-VIT-P2402</div></td></tr><tr><td><div>::1</div></td></tr><tr><td><div>127.0.1.1</div></td></tr><tr><td><div>::ffff:127.0.0.1</div></td></tr><tr><td><div>127.0.0.1</div></td></tr></table></div></td></tr><tr><td style="font-weight:bold;vertical-align:top;">path_info</td><td style="vertical-align:top;">:</td><td><div>/sigulab2/informacion_documentada/ficha/nmnjn</div></td></tr><tr><td style="font-weight:bold;vertical-align:top;">query_string</td><td style="vertical-align:top;">:</td><td><div></div></td></tr><tr><td style="font-weight:bold;vertical-align:top;">remote_addr</td><td style="vertical-align:top;">:</td><td><div>127.0.0.1</div></td></tr><tr><td style="font-weight:bold;vertical-align:top;">remote_port</td><td style="vertical-align:top;">:</td><td><div>53408</div></td></tr><tr><td style="font-weight:bold;vertical-align:top;">request_method</td><td style="vertical-align:top;">:</td><td><div>GET</div></td></tr><tr><td style="font-weight:bold;vertical-align:top;">request_uri</td><td style="vertical-align:top;">:</td><td><div>/sigulab2/informacion_documentada/ficha/nmnjn</div></td></tr><tr><td style="font-weight:bold;vertical-align:top;">script_name</td><td style="vertical-align:top;">:</td><td><div></div></td></tr><tr><td style="font-weight:bold;vertical-align:top;">server_name</td><td style="vertical-align:top;">:</td><td><div>nairelys-VIT-P2402</div></td></tr><tr><td style="font-weight:bold;vertical-align:top;">server_port</td><td style="vertical-align:top;">:</td><td><div>8000</div></td></tr><tr><td style="font-weight:bold;vertical-align:top;">server_protocol</td><td style="vertical-align:top;">:</td><td><div>HTTP/1.1</div></td></tr><tr><td style="font-weight:bold;vertical-align:top;">server_software</td><td style="vertical-align:top;">:</td><td><div>Rocket 1.2.6</div></td></tr><tr><td style="font-weight:bold;vertical-align:top;">web2py_path</td><td style="vertical-align:top;">:</td><td><div>/home/nairelys/Descargas/Sigulab/web2py</div></td></tr><tr><td style="font-weight:bold;vertical-align:top;">web2py_version</td><td style="vertical-align:top;">:</td><td><div>2.15.4-stable+timestamp.2017.09.02.04.02.22</div></td></tr><tr><td style="font-weight:bold;vertical-align:top;">wsgi.errors</td><td style="vertical-align:top;">:</td><td><div>&lt;open file &#x27;&lt;stderr&gt;&#x27;, mode &#x27;w&#x27; at 0xb74e30d0&gt;</div></td></tr><tr><td style="font-weight:bold;vertical-align:top;">wsgi.file_wrapper</td><td style="vertical-align:top;">:</td><td><div>&lt;class wsgiref.util.FileWrapper at 0xb6e17b3c&gt;</div></td></tr><tr><td style="font-weight:bold;vertical-align:top;">wsgi.input</td><td style="vertical-align:top;">:</td><td><div>&lt;socket._fileobject object at 0xac9db4ac&gt;</div></td></tr><tr><td style="font-weight:bold;vertical-align:top;">wsgi.multiprocess</td><td style="vertical-align:top;">:</td><td><div>False</div></td></tr><tr><td style="font-weight:bold;vertical-align:top;">wsgi.multithread</td><td style="vertical-align:top;">:</td><td><div>True</div></td></tr><tr><td style="font-weight:bold;vertical-align:top;">wsgi.run_once</td><td style="vertical-align:top;">:</td><td><div>False</div></td></tr><tr><td style="font-weight:bold;vertical-align:top;">wsgi.url_scheme</td><td style="vertical-align:top;">:</td><td><div>http</div></td></tr><tr><td style="font-weight:bold;vertical-align:top;">wsgi.version</td><td style="vertical-align:top;">:</td><td><div><table><tr><td><div>1</div></td></tr><tr><td><div>0</div></td></tr></table></div></td></tr><tr><td style="font-weight:bold;vertical-align:top;">wsgi_errors</td><td style="vertical-align:top;">:</td><td><div>&lt;open file &#x27;&lt;stderr&gt;&#x27;, mode &#x27;w&#x27; at 0xb74e30d0&gt;</div></td></tr><tr><td style="font-weight:bold;vertical-align:top;">wsgi_file_wrapper</td><td style="vertical-align:top;">:</td><td><div>&lt;class wsgiref.util.FileWrapper at 0xb6e17b3c&gt;</div></td></tr><tr><td style="font-weight:bold;vertical-align:top;">wsgi_input</td><td style="vertical-align:top;">:</td><td><div>&lt;socket._fileobject object at 0xac9db4ac&gt;</div></td></tr><tr><td style="font-weight:bold;vertical-align:top;">wsgi_multiprocess</td><td style="vertical-align:top;">:</td><td><div>False</div></td></tr><tr><td style="font-weight:bold;vertical-align:top;">wsgi_multithread</td><td style="vertical-align:top;">:</td><td><div>True</div></td></tr><tr><td style="font-weight:bold;vertical-align:top;">wsgi_run_once</td><td style="vertical-align:top;">:</td><td><div>False</div></td></tr><tr><td style="font-weight:bold;vertical-align:top;">wsgi_url_scheme</td><td style="vertical-align:top;">:</td><td><div>http</div></td></tr><tr><td style="font-weight:bold;vertical-align:top;">wsgi_version</td><td style="vertical-align:top;">:</td><td><div><table><tr><td><div>1</div></td></tr><tr><td><div>0</div></td></tr></table></div></td></tr></table></div></td></tr><tr><td style="font-weight:bold;vertical-align:top;">extension</td><td style="vertical-align:top;">:</td><td><div>html</div></td></tr><tr><td style="font-weight:bold;vertical-align:top;">folder</td><td style="vertical-align:top;">:</td><td><div>/home/nairelys/Descargas/Sigulab/web2py/applications/sigulab2/</div></td></tr><tr><td style="font-weight:bold;vertical-align:top;">function</td><td style="vertical-align:top;">:</td><td><div>ficha</div></td></tr><tr><td style="font-weight:bold;vertical-align:top;">global_settings</td><td style="vertical-align:top;">:</td><td><div><table><tr><td style="font-weight:bold;vertical-align:top;">app_folders</td><td style="vertical-align:top;">:</td><td><div>set([&#x27;/home/nairelys/Descargas/Sigulab/web2py/applications/admin/&#x27;, &#x27;/home/nairelys/Descargas/Sigulab/web2py/applications/welcome/&#x27;, &#x27;/home/nairelys/Descargas/Sigulab/web2py/applications/sigulab2/&#x27;])</div></td></tr><tr><td style="font-weight:bold;vertical-align:top;">applications_parent</td><td style="vertical-align:top;">:</td><td><div>/home/nairelys/Descargas/Sigulab/web2py</div></td></tr><tr><td style="font-weight:bold;vertical-align:top;">cmd_args</td><td style="vertical-align:top;">:</td><td><div><table></table></div></td></tr><tr><td style="font-weight:bold;vertical-align:top;">cmd_options</td><td style="vertical-align:top;">:</td><td><div>&lt;Values at 0xb4962cec: {&#x27;verbose&#x27;: False, &#x27;ip&#x27;: &#x27;127.0.0.1&#x27;, &#x27;debuglevel&#x27;: 30, &#x27;with_scheduler&#x27;: False, &#x27;shutdown_timeout&#x27;: 5, &#x27;taskbar&#x27;: False, &#x27;with_coverage&#x27;: False, &#x27;pid_filename&#x27;: &#x27;httpserver.pid&#x27;, &#x27;maxthreads&#x27;: None, &#x27;softcron&#x27;: False, &#x27;server_name&#x27;: &#x27;nairelys-VIT-P2402&#x27;, &#x27;bpython&#x27;: False, &#x27;nogui&#x27;: False, &#x27;port&#x27;: 8000, &#x27;print_errors&#x27;: False, &#x27;extcron&#x27;: False, &#x27;runcron&#x27;: False, &#x27;run_system_tests&#x27;: False, &#x27;test&#x27;: None, &#x27;folder&#x27;: &#x27;/home/nairelys/Descargas/Sigulab/web2py&#x27;, &#x27;config&#x27;: &#x27;&#x27;, &#x27;minthreads&#x27;: None, &#x27;shell&#x27;: None, &#x27;run&#x27;: &#x27;&#x27;, &#x27;log_filename&#x27;: &#x27;httpserver.log&#x27;, &#x27;profiler_dir&#x27;: None, &#x27;args&#x27;: [&#x27;&#x27;], &#x27;socket_timeout&#x27;: 5, &#x27;ssl_ca_certificate&#x27;: None, &#x27;scheduler&#x27;: None, &#x27;interfaces&#x27;: None, &#x27;ssl_private_key&#x27;: &#x27;&#x27;, &#x27;gae&#x27;: None, &#x27;password&#x27;: &#x27;******&#x27;, &#x27;request_queue_size&#x27;: 5, &#x27;ssl_certificate&#x27;: &#x27;&#x27;, &#x27;cronjob&#x27;: False, &#x27;numthreads&#x27;: None, &#x27;quiet&#x27;: False, &#x27;import_models&#x27;: False, &#x27;timeout&#x27;: 10, &#x27;plain&#x27;: False, &#x27;nobanner&#x27;: False}&gt;</div></td></tr><tr><td style="font-weight:bold;vertical-align:top;">db_sessions</td><td style="vertical-align:top;">:</td><td><div>set([])</div></td></tr><tr><td style="font-weight:bold;vertical-align:top;">debugging</td><td style="vertical-align:top;">:</td><td><div>False</div></td></tr><tr><td style="font-weight:bold;vertical-align:top;">gluon_parent</td><td style="vertical-align:top;">:</td><td><div>/home/nairelys/Descargas/Sigulab/web2py</div></td></tr><tr><td style="font-weight:bold;vertical-align:top;">is_jython</td><td style="vertical-align:top;">:</td><td><div>False</div></td></tr><tr><td style="font-weight:bold;vertical-align:top;">is_py2</td><td style="vertical-align:top;">:</td><td><div>True</div></td></tr><tr><td style="font-weight:bold;vertical-align:top;">is_pypy</td><td style="vertical-align:top;">:</td><td><div>False</div></td></tr><tr><td style="font-weight:bold;vertical-align:top;">is_source</td><td style="vertical-align:top;">:</td><td><div>True</div></td></tr><tr><td style="font-weight:bold;vertical-align:top;">local_hosts</td><td style="vertical-align:top;">:</td><td><div><table><tr><td><div>nairelys-VIT-P2402</div></td></tr><tr><td><div>::1</div></td></tr><tr><td><div>127.0.1.1</div></td></tr><tr><td><div>::ffff:127.0.0.1</div></td></tr><tr><td><div>127.0.0.1</div></td></tr></table></div></td></tr><tr><td style="font-weight:bold;vertical-align:top;">web2py_version</td><td style="vertical-align:top;">:</td><td><div>2.15.4-stable+timestamp.2017.09.02.04.02.22</div></td></tr></table></div></td></tr><tr><td style="font-weight:bold;vertical-align:top;">is_https</td><td style="vertical-align:top;">:</td><td><div>False</div></td></tr><tr><td style="font-weight:bold;vertical-align:top;">is_local</td><td style="vertical-align:top;">:</td><td><div>True</div></td></tr><tr><td style="font-weight:bold;vertical-align:top;">is_restful</td><td style="vertical-align:top;">:</td><td><div>False</div></td></tr><tr><td style="font-weight:bold;vertical-align:top;">is_scheduler</td><td style="vertical-align:top;">:</td><td><div>False</div></td></tr><tr><td style="font-weight:bold;vertical-align:top;">is_shell</td><td style="vertical-align:top;">:</td><td><div>False</div></td></tr><tr><td style="font-weight:bold;vertical-align:top;">now</td><td style="vertical-align:top;">:</td><td><div>datetime.datetime(2018, 6, 17, 16, 37, 39, 157854)</div></td></tr><tr><td style="font-weight:bold;vertical-align:top;">raw_args</td><td style="vertical-align:top;">:</td><td><div>nmnjn</div></td></tr><tr><td style="font-weight:bold;vertical-align:top;">raw_extension</td><td style="vertical-align:top;">:</td><td><div>None</div></td></tr><tr><td style="font-weight:bold;vertical-align:top;">url</td><td style="vertical-align:top;">:</td><td><div>/sigulab2/informacion_documentada/ficha/nmnjn</div></td></tr><tr><td style="font-weight:bold;vertical-align:top;">utcnow</td><td style="vertical-align:top;">:</td><td><div>datetime.datetime(2018, 6, 17, 20, 37, 39, 157882)</div></td></tr><tr><td style="font-weight:bold;vertical-align:top;">wsgi</td><td style="vertical-align:top;">:</td><td><div>&lt;gluon.main.LazyWSGI object at 0xabf09dac&gt;</div></td></tr></table></div>'
tRp60
sS'frames'
p61
(lp62
(dp63
S'file'
p64
S'/home/nairelys/Descargas/Sigulab/web2py/gluon/restricted.py'
p65
sS'dump'
p66
(dp67
S'environment'
p68
S"{'A': <class 'gluon.html.A'>, 'ANY_OF': <class 'gluon.validators.ANY_OF'>, 'ASSIGNJS': <function ASSIGNJS>, 'AppConfig': <function AppConfig>, 'Auth': <class 'gluon.tools.Auth'>, 'B': <class 'gluon.html.B'>, 'BEAUTIFY': <class 'gluon.html.BEAUTIFY'>, 'BODY': <class 'gluon.html.BODY'>, 'BR': <class 'gluon.html.BR'>, 'BUTTON': <class 'gluon.html.BUTTON'>, ...}"
p69
sS'ccode'
p70
S'<code object <module> at 0xabf5f4a0, file "/home...iews/informacion_documentada/ficha.html", line 1>'
p71
ssS'lnum'
p72
I219
sS'lines'
p73
(dp74
I214
S'    if environment is None:'
p75
sI215
S'        environment = {}'
p76
sI216
S"    environment['__file__'] = layer"
p77
sI217
S"    environment['__name__'] = '__restricted__'"
p78
sI218
S'    try:'
p79
sI219
S'        exec(ccode, environment)'
p80
sI220
S'    except HTTP:'
p81
sI221
S'        raise'
p82
sI222
S'    except RestrictedError:'
p83
sI223
S'        # do not encapsulate (obfuscate) the original RestrictedError'
p84
ssS'call'
p85
S'(ccode=<code object <module> at 0xabf5f4a0, file "/home...iews/informacion_documentada/ficha.html", line 1>, environment={\'A\': <class \'gluon.html.A\'>, \'ANY_OF\': <class \'gluon.validators.ANY_OF\'>, \'ASSIGNJS\': <function ASSIGNJS>, \'AppConfig\': <function AppConfig>, \'Auth\': <class \'gluon.tools.Auth\'>, \'B\': <class \'gluon.html.B\'>, \'BEAUTIFY\': <class \'gluon.html.BEAUTIFY\'>, \'BODY\': <class \'gluon.html.BODY\'>, \'BR\': <class \'gluon.html.BR\'>, \'BUTTON\': <class \'gluon.html.BUTTON\'>, ...}, layer=\'/home/nairelys/Descargas/Sigulab/web2py/applicat...sigulab2/views/informacion_documentada/ficha.html\', scode=\'response.write(\\\'<!DOCTYPE html>\\\\n<html lang="es"... }\\\\n</script>\\\\n</body>\\\\n</html>\\\\n\\\', escape=False)\')'
p86
sS'func'
p87
S'restricted'
p88
sa(dp89
g64
S'/home/nairelys/Descargas/Sigulab/web2py/applications/sigulab2/views/informacion_documentada/ficha.html'
p90
sg66
(dp91
S'div'
p92
S'undefined'
p93
ssg72
I117
sg73
(dp94
I108
S"    response.write('</td>\\n            <td>', escape=False)"
p95
sI109
S'    response.write(doc.fecha_rev_por_consejo_asesor)'
p96
sI110
S'    response.write(\'</td>\\n            \\n          </tr>\\n\\n        </tbody>\\n      </table>\\n\\n\\n\\n    </div>\\n    <div id="tab-3" class="tab-content">\\n  \\n      <p><span style="color: #52798c; font-size: 1.2em;">C\\xc3\\xb3digo de registro de Ubicacion: \', escape=False)'
p97
sI111
S'    response.write(doc.registro)'
p98
sI112
S'    response.write(\'  </span></p>\\n      <p><span style="color: #52798c; font-size: 1.2em;">Fecha de registro de Ubicacion:      </span></p>\\n      <p><span style="color: #52798c; font-size: 1.2em;">Carpeta electr\\xc3\\xb3nica:     </span> </p>\\n      <p><span style="color: #52798c; font-size: 1.2em;">Archivo electr\\xc3\\xb3nico:   \', escape=False)'
p99
sI113
S'    response.write(doc.ubicacion_electronica)'
p100
sI114
S'    response.write(\'  </span></p>\\n      <p><span style="color: #52798c; font-size: 1.2em;">Ubicaci\\xc3\\xb3n f\\xc3\\xadsica del documento: \', escape=False)'
p101
sI115
S'    response.write(doc.ubicacion_fisica)'
p102
sI116
S"    response.write('     </span></p>\\n    \\n\\n    </div>\\n  </div>\\n  \\n</div>    \\n', escape=False)"
p103
sI117
S'    if false:'
p104
sI118
S'        response.write(\'\\n <input type="text" class="input" name="nombre_documento" id="nombre_documento" value="\', escape=False)'
p105
sI119
S'        response.write(doc.nombre_doc)'
p106
sI120
S'        response.write(\'" required>\\n\', escape=False)'
p107
sI121
S'        pass'
p108
sI122
S'    response.write(\'\\n\\n\\n<script>\\n  jQuery(document).ready(function(){\\n   if(doc.estatus):\\n    print ("mkm")\\n        \\n});\\n</script>\\n\\n\\n\\n\\n\\n\\n\\n\\n\\n\\n\\n\\n\\n\\n\\n\\n\\n\\n\\n\\n\\n\\n\\n\\n<div id="modal" class="modal">\\n\\n  <form id="form-wrapper" class="form-wrapper" name="form" method="POST">\\n\\n      <nav id="progress-bar" class="progress-bar">\\n          <ul class="progress-bar__container">  \\n              <li class="progress-bar__item current"><a href="#" class="link">Informaci\\xc3\\xb3n General</a></li>\\n              <li class="progress-bar__item"><a href="#" class="link">Informaci\\xc3\\xb3n de Elaboraci\\xc3\\xb3n</a></li>\\n              <li class="progress-bar__item"><a href="#" class="link">Informaci\\xc3\\xb3n de Revisi\\xc3\\xb3n</a></li>\\n              <li class="progress-bar__item"><a href="#" class="link">Aprobado </a></li> \\n              <li class="progress-bar__item"><a href="#" class="link">Ubicaci\\xc3\\xb3n del Documento</a></li>\\n\\n          </ul>\\n      </nav>\\n      \\n      <div id="fieldset-container" class="tab-wrapper ">\\n\\n          <fieldset class="tab-panel">\\n              <legend>Editar Documento / Informaci\\xc3\\xb3n General</legend>\\n\\n              <input type="hidden" name="indicador" value="agregar">\\n\\n              <div class="input-group focus">\\n                  <input type="text" class="input" name="nombre_documento" id="nombre_documento" value="\', escape=False)'
p109
sI123
S'    response.write(doc.nombre_doc)'
p110
sI124
S'    response.write(\'" required>\\n                  <label class="label" for="nombre_documento"><i class="lnr lnr-user"></i> Nombre del Documento</label>\\n              </div>\\n\\n              <div class="input-group"> \\n                  <select name="tipo" id="tipo" class="input" >\\n                    <option value=""></option>\\n\\n            <option value="Referente Estrategico">Referente Estrat\\xc3\\xa9gico</option>\\n            <option value="Reglamento">Reglameto</option>\\n            <option value="Manual">Manual de Organizaci\\xc3\\xb3n</option>\\n            <option value="Manual">Manual de Calidad</option>\\n            <option value="Manual">Manual de Proceso de Gesti\\xc3\\xb3n</option>\\n            <option value="Manual">Manual de Proceso T\\xc3\\xa9cnico</option>\\n            <option value="Manual">Manual de Uso</option>\\n            <option value="Otro">Manual de Uso</option>\\n\\n          </select>\\n                  <label class="label" for="tipo">Tipo del Documento</label>\\n              </div>\\n\\n              <div class="input-group"> \\n                  <select name="responsable" id="responsable" class="input">\\n                    <option value=""></option>\\n\\n            <option value="DIRECCI\\xc3\\x93N">DIRECCI\\xc3\\x93N</option>\\n            <option value="LABORATORIO A">LABORATORIO A</option>\\n            <option value="LABORATORIO B">LABORATORIO B</option>\\n            <option value="LABORATORIO C">LABORATORIO C</option>\\n            <option value="LABORATORIO D">LABORATORIO D</option>\\n            <option value="LABORATORIO E">LABORATORIO E</option>\\n            <option value="LABORATORIO F">LABORATORIO F</option>\\n            <option value="LABORATORIO G">LABORATORIO H</option>\\n            <option value="UNIDAD DE ADMINISTRACI\\xc3\\x93N">UNIDAD DE ADMINISTRACI\\xc3\\x93N</option>\\n            <option value="COORDINACI\\xc3\\x93N DE ADQUISICIONES">COORDINACI\\xc3\\x93N DE ADQUISICIONES</option>\\n            <option value="COORDINACI\\xc3\\x93N DE IMPORTACIONES">COORDINACI\\xc3\\x93N DE IMPORTACIONES</option>\\n            <option value="COORDINACI\\xc3\\x93N DE LA CALIDAD">COORDINACI\\xc3\\x93N DE LA CALIDAD</option>\\n            <option value="OFICINA DE PROTECCI\\xc3\\x93N RADIOL\\xc3\\x93GICA">OFICINA DE PROTECCI\\xc3\\x93N RADIOL\\xc3\\x93GICA</option>\\n          \\n          </select>\\n                  <label class="label" for="responsable">Responsable</label>\\n              </div>\\n\\n        <!--<div class="input-group">\\n                  <input type="text" class="input" name="responsable" id="responsable"> \\n                  <label class="label" for="responsable"><i class="lnr lnr-users"></i> Responsable </label>\\n              </div>-->\\n        \\n        <div class="input-group focus">\\n                  <input type="date" class="input" name="fecha_prox_rev" id="fecha_prox_rev" value="\', escape=False)'
p111
sI125
S'    response.write(doc.fecha_prox_rev)'
p112
sI126
S'    response.write(\'">\\n                  <label class="label" for="fecha_prox_rev"><i class="lnr lnr-calendar-full"></i> Fecha de entrega para revisi\\xc3\\xb3n</label>\\n              </div>\\n          </fieldset>\\n\\n          <fieldset class="tab-panel">\\n              <legend>Editar Documento / Informaci\\xc3\\xb3n Elaboraci\\xc3\\xb3n</legend>\\n              \\n              <div class="input-group focus" >\\n                  <input type="text" class="input" name="codigo" id="codigo" value="\', escape=False)'
p113
sI127
S'    response.write(doc.codigo)'
p114
ssg85
S'()'
p115
sg87
S'<module>'
p116
sasS'pyver'
p117
S'Python 2.7.6: /usr/bin/python (prefix: /usr)'
p118
sS'session'
p119
g59
(S's\xe6\x07\x00\x00<div><table><tr><td style="font-weight:bold;vertical-align:top;">auth</td><td style="vertical-align:top;">:</td><td><div><table><tr><td style="font-weight:bold;vertical-align:top;">expiration</td><td style="vertical-align:top;">:</td><td><div>3600</div></td></tr><tr><td style="font-weight:bold;vertical-align:top;">hmac_key</td><td style="vertical-align:top;">:</td><td><div>67368f0b-7bb4-496c-9060-80a33726fdad</div></td></tr><tr><td style="font-weight:bold;vertical-align:top;">last_visit</td><td style="vertical-align:top;">:</td><td><div>datetime.datetime(2018, 6, 17, 16, 37, 39, 157854)</div></td></tr><tr><td style="font-weight:bold;vertical-align:top;">user</td><td style="vertical-align:top;">:</td><td><div><table><tr><td style="font-weight:bold;vertical-align:top;">email</td><td style="vertical-align:top;">:</td><td><div>sigulabusb@gmail.com</div></td></tr><tr><td style="font-weight:bold;vertical-align:top;">first_name</td><td style="vertical-align:top;">:</td><td><div>Super Usuario</div></td></tr><tr><td style="font-weight:bold;vertical-align:top;">id</td><td style="vertical-align:top;">:</td><td><div>1L</div></td></tr><tr><td style="font-weight:bold;vertical-align:top;">last_name</td><td style="vertical-align:top;">:</td><td><div></div></td></tr><tr><td style="font-weight:bold;vertical-align:top;">registration_id</td><td style="vertical-align:top;">:</td><td><div></div></td></tr><tr><td style="font-weight:bold;vertical-align:top;">registration_key</td><td style="vertical-align:top;">:</td><td><div></div></td></tr><tr><td style="font-weight:bold;vertical-align:top;">reset_password_key</td><td style="vertical-align:top;">:</td><td><div></div></td></tr></table></div></td></tr><tr><td style="font-weight:bold;vertical-align:top;">user_groups</td><td style="vertical-align:top;">:</td><td><div><table><tr><td style="font-weight:bold;vertical-align:top;">1</td><td style="vertical-align:top;">:</td><td><div>WEBMASTER</div></td></tr></table></div></td></tr></table></div></td></tr></table></div>'
tRp120
sS'etype'
p121
S"<type 'exceptions.NameError'>"
p122
sS'date'
p123
S'Sun Jun 17 16:37:39 2018'
p124
sS'response'
p125
g59
(S's\x0b@\x00\x00<div><table><tr><td style="font-weight:bold;vertical-align:top;">body</td><td style="vertical-align:top;">:</td><td><div>&lt;cStringIO.StringO object at 0xac95d040&gt;</div></td></tr><tr><td style="font-weight:bold;vertical-align:top;">cookies</td><td style="vertical-align:top;">:</td><td><div><table><tr><td style="font-weight:bold;vertical-align:top;">session_id_sigulab2</td><td style="vertical-align:top;">:</td><td><div>127.0.0.1-47c6e738-3eba-4c2d-9f69-972889ca9f17<table><tr><td style="font-weight:bold;vertical-align:top;">comment</td><td style="vertical-align:top;">:</td><td><div></div></td></tr><tr><td style="font-weight:bold;vertical-align:top;">domain</td><td style="vertical-align:top;">:</td><td><div></div></td></tr><tr><td style="font-weight:bold;vertical-align:top;">expires</td><td style="vertical-align:top;">:</td><td><div></div></td></tr><tr><td style="font-weight:bold;vertical-align:top;">httponly</td><td style="vertical-align:top;">:</td><td><div></div></td></tr><tr><td style="font-weight:bold;vertical-align:top;">max-age</td><td style="vertical-align:top;">:</td><td><div></div></td></tr><tr><td style="font-weight:bold;vertical-align:top;">path</td><td style="vertical-align:top;">:</td><td><div>/</div></td></tr><tr><td style="font-weight:bold;vertical-align:top;">secure</td><td style="vertical-align:top;">:</td><td><div></div></td></tr><tr><td style="font-weight:bold;vertical-align:top;">version</td><td style="vertical-align:top;">:</td><td><div></div></td></tr></table></div></td></tr></table></div></td></tr><tr><td style="font-weight:bold;vertical-align:top;">delimiters</td><td style="vertical-align:top;">:</td><td><div><table><tr><td><div>{{</div></td></tr><tr><td><div>}}</div></td></tr></table></div></td></tr><tr><td style="font-weight:bold;vertical-align:top;">files</td><td style="vertical-align:top;">:</td><td><div><table></table></div></td></tr><tr><td style="font-weight:bold;vertical-align:top;">flash</td><td style="vertical-align:top;">:</td><td><div></div></td></tr><tr><td style="font-weight:bold;vertical-align:top;">form_label_separator</td><td style="vertical-align:top;">:</td><td><div></div></td></tr><tr><td style="font-weight:bold;vertical-align:top;">formstyle</td><td style="vertical-align:top;">:</td><td><div>bootstrap3_inline</div></td></tr><tr><td style="font-weight:bold;vertical-align:top;">generic_patterns</td><td style="vertical-align:top;">:</td><td><div><table><tr><td><div>*</div></td></tr></table></div></td></tr><tr><td style="font-weight:bold;vertical-align:top;">google_analytics_id</td><td style="vertical-align:top;">:</td><td><div>None</div></td></tr><tr><td style="font-weight:bold;vertical-align:top;">headers</td><td style="vertical-align:top;">:</td><td><div><table><tr><td style="font-weight:bold;vertical-align:top;">X-Powered-By</td><td style="vertical-align:top;">:</td><td><div>web2py</div></td></tr></table></div></td></tr><tr><td style="font-weight:bold;vertical-align:top;">logo</td><td style="vertical-align:top;">:</td><td><div><a class="navbar-brand" href="http://www.web2py.com/" id="web2py-logo"><b>web<span>2</span>py</b>&trade;&nbsp;</a></div></td></tr><tr><td style="font-weight:bold;vertical-align:top;">menu</td><td style="vertical-align:top;">:</td><td><div><table><tr><td><div><table><tr><td><div>Inicio</div></td></tr><tr><td><div>False</div></td></tr><tr><td><div>/sigulab2/default/index</div></td></tr><tr><td><div><table></table></div></td></tr></table></div></td></tr><tr><td><div><table><tr><td><div>Mis Sitios</div></td></tr><tr><td><div>False</div></td></tr><tr><td><div>/admin/default/site</div></td></tr></table></div></td></tr><tr><td><div><table><tr><td><div>Esta Aplicaci\xc3\xb3n</div></td></tr><tr><td><div>False</div></td></tr><tr><td><div>#</div></td></tr><tr><td><div><table><tr><td><div><table><tr><td><div>Dise\xc3\xb1o</div></td></tr><tr><td><div>False</div></td></tr><tr><td><div>/admin/default/design/sigulab2</div></td></tr></table></div></td></tr><tr><td><div><li class="divider"></li></div></td></tr><tr><td><div><table><tr><td><div>Controlador</div></td></tr><tr><td><div>False</div></td></tr><tr><td><div>/admin/default/edit/sigulab2/controllers/informacion_documentada.py</div></td></tr></table></div></td></tr><tr><td><div><table><tr><td><div>Vista</div></td></tr><tr><td><div>False</div></td></tr><tr><td><div>/admin/default/edit/sigulab2/views/informacion_documentada/ficha.html</div></td></tr></table></div></td></tr><tr><td><div><table><tr><td><div>Modelo BDD</div></td></tr><tr><td><div>False</div></td></tr><tr><td><div>/admin/default/edit/sigulab2/models/db.py</div></td></tr></table></div></td></tr><tr><td><div><table><tr><td><div>Modelo "menu"</div></td></tr><tr><td><div>False</div></td></tr><tr><td><div>/admin/default/edit/sigulab2/models/menu.py</div></td></tr></table></div></td></tr><tr><td><div><table><tr><td><div>Config.ini</div></td></tr><tr><td><div>False</div></td></tr><tr><td><div>/admin/default/edit/sigulab2/private/appconfig.ini</div></td></tr></table></div></td></tr><tr><td><div><table><tr><td><div>Dise\xc3\xb1o de p\xc3\xa1gina</div></td></tr><tr><td><div>False</div></td></tr><tr><td><div>/admin/default/edit/sigulab2/views/layout.html</div></td></tr></table></div></td></tr><tr><td><div><table><tr><td><div>Hoja de estilo</div></td></tr><tr><td><div>False</div></td></tr><tr><td><div>/admin/default/edit/sigulab2/static/css/web2py-bootstrap3.css</div></td></tr></table></div></td></tr><tr><td><div><table><tr><td><div>Base de datos</div></td></tr><tr><td><div>False</div></td></tr><tr><td><div>/sigulab2/appadmin/index</div></td></tr></table></div></td></tr><tr><td><div><table><tr><td><div>Errores</div></td></tr><tr><td><div>False</div></td></tr><tr><td><div>/admin/default/errors/sigulab2</div></td></tr></table></div></td></tr><tr><td><div><table><tr><td><div>Acerca de</div></td></tr><tr><td><div>False</div></td></tr><tr><td><div>/admin/default/about/sigulab2</div></td></tr></table></div></td></tr></table></div></td></tr></table></div></td></tr><tr><td><div><table><tr><td><div>web2py.com</div></td></tr><tr><td><div>False</div></td></tr><tr><td><div>#</div></td></tr><tr><td><div><table><tr><td><div><table><tr><td><div>Descargas</div></td></tr><tr><td><div>False</div></td></tr><tr><td><div>http://www.web2py.com/examples/default/download</div></td></tr></table></div></td></tr><tr><td><div><table><tr><td><div>Soporte</div></td></tr><tr><td><div>False</div></td></tr><tr><td><div>http://www.web2py.com/examples/default/support</div></td></tr></table></div></td></tr><tr><td><div><table><tr><td><div>Demostraci\xc3\xb3n</div></td></tr><tr><td><div>False</div></td></tr><tr><td><div>http://web2py.com/demo_admin</div></td></tr></table></div></td></tr><tr><td><div><table><tr><td><div>Ejemplos R\xc3\xa1pidos</div></td></tr><tr><td><div>False</div></td></tr><tr><td><div>http://web2py.com/examples/default/examples</div></td></tr></table></div></td></tr><tr><td><div><table><tr><td><div>Preguntas frecuentes</div></td></tr><tr><td><div>False</div></td></tr><tr><td><div>http://web2py.com/AlterEgo</div></td></tr></table></div></td></tr><tr><td><div><table><tr><td><div>V\xc3\xaddeos</div></td></tr><tr><td><div>False</div></td></tr><tr><td><div>http://www.web2py.com/examples/default/videos/</div></td></tr></table></div></td></tr><tr><td><div><table><tr><td><div>Aplicaciones Libres</div></td></tr><tr><td><div>False</div></td></tr><tr><td><div>http://web2py.com/appliances</div></td></tr></table></div></td></tr><tr><td><div><table><tr><td><div>Plugins</div></td></tr><tr><td><div>False</div></td></tr><tr><td><div>http://web2py.com/plugins</div></td></tr></table></div></td></tr><tr><td><div><table><tr><td><div>Recetas</div></td></tr><tr><td><div>False</div></td></tr><tr><td><div>http://web2pyslices.com/</div></td></tr></table></div></td></tr></table></div></td></tr></table></div></td></tr><tr><td><div><table><tr><td><div>Documentaci\xc3\xb3n</div></td></tr><tr><td><div>False</div></td></tr><tr><td><div>#</div></td></tr><tr><td><div><table><tr><td><div><table><tr><td><div>Libro Online</div></td></tr><tr><td><div>False</div></td></tr><tr><td><div>http://www.web2py.com/book</div></td></tr></table></div></td></tr><tr><td><div><li class="divider"></li></div></td></tr><tr><td><div><table><tr><td><div>Prefacio</div></td></tr><tr><td><div>False</div></td></tr><tr><td><div>http://www.web2py.com/book/default/chapter/00</div></td></tr></table></div></td></tr><tr><td><div><table><tr><td><div>Introducci\xc3\xb3n</div></td></tr><tr><td><div>False</div></td></tr><tr><td><div>http://www.web2py.com/book/default/chapter/01</div></td></tr></table></div></td></tr><tr><td><div><table><tr><td><div>Python</div></td></tr><tr><td><div>False</div></td></tr><tr><td><div>http://www.web2py.com/book/default/chapter/02</div></td></tr></table></div></td></tr><tr><td><div><table><tr><td><div>Resumen</div></td></tr><tr><td><div>False</div></td></tr><tr><td><div>http://www.web2py.com/book/default/chapter/03</div></td></tr></table></div></td></tr><tr><td><div><table><tr><td><div>El N\xc3\xbacleo</div></td></tr><tr><td><div>False</div></td></tr><tr><td><div>http://www.web2py.com/book/default/chapter/04</div></td></tr></table></div></td></tr><tr><td><div><table><tr><td><div>Las Vistas</div></td></tr><tr><td><div>False</div></td></tr><tr><td><div>http://www.web2py.com/book/default/chapter/05</div></td></tr></table></div></td></tr><tr><td><div><table><tr><td><div>Base de datos</div></td></tr><tr><td><div>False</div></td></tr><tr><td><div>http://www.web2py.com/book/default/chapter/06</div></td></tr></table></div></td></tr><tr><td><div><table><tr><td><div>Formularios y validadores</div></td></tr><tr><td><div>False</div></td></tr><tr><td><div>http://www.web2py.com/book/default/chapter/07</div></td></tr></table></div></td></tr><tr><td><div><table><tr><td><div>Correo electr\xc3\xb3nico y SMS</div></td></tr><tr><td><div>False</div></td></tr><tr><td><div>http://www.web2py.com/book/default/chapter/08</div></td></tr></table></div></td></tr><tr><td><div><table><tr><td><div>Control de Acceso</div></td></tr><tr><td><div>False</div></td></tr><tr><td><div>http://www.web2py.com/book/default/chapter/09</div></td></tr></table></div></td></tr><tr><td><div><table><tr><td><div>Servicios</div></td></tr><tr><td><div>False</div></td></tr><tr><td><div>http://www.web2py.com/book/default/chapter/10</div></td></tr></table></div></td></tr><tr><td><div><table><tr><td><div>Recetas AJAX</div></td></tr><tr><td><div>False</div></td></tr><tr><td><div>http://www.web2py.com/book/default/chapter/11</div></td></tr></table></div></td></tr><tr><td><div><table><tr><td><div>Componentes y Plugins</div></td></tr><tr><td><div>False</div></td></tr><tr><td><div>http://www.web2py.com/book/default/chapter/12</div></td></tr></table></div></td></tr><tr><td><div><table><tr><td><div>Recetas de despliegue</div></td></tr><tr><td><div>False</div></td></tr><tr><td><div>http://www.web2py.com/book/default/chapter/13</div></td></tr></table></div></td></tr><tr><td><div><table><tr><td><div>Otras Recetas</div></td></tr><tr><td><div>False</div></td></tr><tr><td><div>http://www.web2py.com/book/default/chapter/14</div></td></tr></table></div></td></tr><tr><td><div><table><tr><td><div>Ayudando a web2py</div></td></tr><tr><td><div>False</div></td></tr><tr><td><div>http://www.web2py.com/book/default/chapter/15</div></td></tr></table></div></td></tr><tr><td><div><table><tr><td><div>Compra el libro de web2py</div></td></tr><tr><td><div>False</div></td></tr><tr><td><div>http://stores.lulu.com/web2py</div></td></tr></table></div></td></tr></table></div></td></tr></table></div></td></tr><tr><td><div><table><tr><td><div>Comunidad</div></td></tr><tr><td><div>False</div></td></tr><tr><td><div>None</div></td></tr><tr><td><div><table><tr><td><div><table><tr><td><div>Grupos</div></td></tr><tr><td><div>False</div></td></tr><tr><td><div>http://www.web2py.com/examples/default/usergroups</div></td></tr></table></div></td></tr><tr><td><div><table><tr><td><div>Twitter</div></td></tr><tr><td><div>False</div></td></tr><tr><td><div>http://twitter.com/web2py</div></td></tr></table></div></td></tr><tr><td><div><table><tr><td><div>Chat en vivo</div></td></tr><tr><td><div>False</div></td></tr><tr><td><div>http://webchat.freenode.net/?channels=web2py</div></td></tr></table></div></td></tr></table></div></td></tr></table></div></td></tr></table></div></td></tr><tr><td style="font-weight:bold;vertical-align:top;">meta</td><td style="vertical-align:top;">:</td><td><div><table><tr><td style="font-weight:bold;vertical-align:top;">author</td><td style="vertical-align:top;">:</td><td><div>Octopus Technologies &lt;13-10191@usb.ve:</div></td></tr><tr><td style="font-weight:bold;vertical-align:top;">description</td><td style="vertical-align:top;">:</td><td><div>Sistema de Gestion de la Unidad de Laboratorios</div></td></tr><tr><td style="font-weight:bold;vertical-align:top;">generator</td><td style="vertical-align:top;">:</td><td><div>Web2py Web Framework</div></td></tr><tr><td style="font-weight:bold;vertical-align:top;">keywords</td><td style="vertical-align:top;">:</td><td><div>sigulab</div></td></tr></table></div></td></tr><tr><td style="font-weight:bold;vertical-align:top;">models_to_run</td><td style="vertical-align:top;">:</td><td><div><table><tr><td><div>^\\w+\\.py$</div></td></tr><tr><td><div>^informacion_documentada/\\w+\\.py$</div></td></tr><tr><td><div>^informacion_documentada/ficha/\\w+\\.py$</div></td></tr></table></div></td></tr><tr><td style="font-weight:bold;vertical-align:top;">postprocessing</td><td style="vertical-align:top;">:</td><td><div><table></table></div></td></tr><tr><td style="font-weight:bold;vertical-align:top;">session_client</td><td style="vertical-align:top;">:</td><td><div>127.0.0.1</div></td></tr><tr><td style="font-weight:bold;vertical-align:top;">session_cookie_compression_level</td><td style="vertical-align:top;">:</td><td><div>None</div></td></tr><tr><td style="font-weight:bold;vertical-align:top;">session_cookie_expires</td><td style="vertical-align:top;">:</td><td><div>None</div></td></tr><tr><td style="font-weight:bold;vertical-align:top;">session_data_name</td><td style="vertical-align:top;">:</td><td><div>session_data_sigulab2</div></td></tr><tr><td style="font-weight:bold;vertical-align:top;">session_file</td><td style="vertical-align:top;">:</td><td><div>&lt;open file &#x27;/home/nairelys/Descargas/Sigulab/web2py/applications/sigulab2/sessions/17c/0ed/127.0.0.1-47c6e738-3eba-4c2d-9f69-972889ca9f17&#x27;, mode &#x27;rb+&#x27; at 0xabf42cd8&gt;</div></td></tr><tr><td style="font-weight:bold;vertical-align:top;">session_filename</td><td style="vertical-align:top;">:</td><td><div>/home/nairelys/Descargas/Sigulab/web2py/applications/sigulab2/sessions/127.0.0.1-47c6e738-3eba-4c2d-9f69-972889ca9f17</div></td></tr><tr><td style="font-weight:bold;vertical-align:top;">session_hash</td><td style="vertical-align:top;">:</td><td><div>76613fb177be37b8f2198fd0961b7b7d</div></td></tr><tr><td style="font-weight:bold;vertical-align:top;">session_id</td><td style="vertical-align:top;">:</td><td><div>127.0.0.1-47c6e738-3eba-4c2d-9f69-972889ca9f17</div></td></tr><tr><td style="font-weight:bold;vertical-align:top;">session_id_name</td><td style="vertical-align:top;">:</td><td><div>session_id_sigulab2</div></td></tr><tr><td style="font-weight:bold;vertical-align:top;">session_locked</td><td style="vertical-align:top;">:</td><td><div>True</div></td></tr><tr><td style="font-weight:bold;vertical-align:top;">session_masterapp</td><td style="vertical-align:top;">:</td><td><div>sigulab2</div></td></tr><tr><td style="font-weight:bold;vertical-align:top;">session_new</td><td style="vertical-align:top;">:</td><td><div>False</div></td></tr><tr><td style="font-weight:bold;vertical-align:top;">session_storage_type</td><td style="vertical-align:top;">:</td><td><div>file</div></td></tr><tr><td style="font-weight:bold;vertical-align:top;">status</td><td style="vertical-align:top;">:</td><td><div>200</div></td></tr><tr><td style="font-weight:bold;vertical-align:top;">subtitle</td><td style="vertical-align:top;">:</td><td><div></div></td></tr><tr><td style="font-weight:bold;vertical-align:top;">title</td><td style="vertical-align:top;">:</td><td><div>Sigulab2</div></td></tr><tr><td style="font-weight:bold;vertical-align:top;">view</td><td style="vertical-align:top;">:</td><td><div>informacion_documentada/ficha.html</div></td></tr></table></div>'
tRp126
sS'locals'
p127
(dp128
S'Service'
p129
S"<class 'gluon.tools.Service'>"
p130
sS'PY2'
p131
S'True'
p132
sS'OBJECT'
p133
S"<class 'gluon.html.OBJECT'>"
p134
sS'track_changes'
p135
S'<function track_changes>'
p136
sS'SQLDB'
p137
S"<class 'pydal.base.DAL'>"
p138
sg119
S"<Storage {'auth': <Storage {'hmac_key': '67368f0...gin]': ['405fad47-e0a7-45d0-b4c2-f7d494fd2728']}>"
p139
sS'LINK'
p140
S"<class 'gluon.html.LINK'>"
p141
sS'BR'
p142
S"<class 'gluon.html.BR'>"
p143
sS'local_import'
p144
S'<function <lambda>>'
p145
sS'OPTGROUP'
p146
S"<class 'gluon.html.OPTGROUP'>"
p147
sS'__package__'
p148
S'None'
p149
sS'PRE'
p150
S"<class 'gluon.html.PRE'>"
p151
sS'IS_INT_IN_RANGE'
p152
S"<class 'gluon.validators.IS_INT_IN_RANGE'>"
p153
sS'to_bytes'
p154
S'<function to_bytes>'
p155
sS'IS_LOWER'
p156
S"<class 'gluon.validators.IS_LOWER'>"
p157
sS'IS_STRONG'
p158
S"<class 'gluon.validators.IS_STRONG'>"
p159
sS'cache'
p160
S'<gluon.cache.Cache object>'
p161
sS'IS_IN_DB'
p162
S"<class 'gluon.validators.IS_IN_DB'>"
p163
sS'TAG'
p164
S'<gluon.html.__TAG__ object>'
p165
sS'SQLField'
p166
S"<class 'pydal.objects.Field'>"
p167
sS'mail'
p168
S'<gluon.tools.Mail object>'
p169
sS'BODY'
p170
S"<class 'gluon.html.BODY'>"
p171
sS'IS_DATE_IN_RANGE'
p172
S"<class 'gluon.validators.IS_DATE_IN_RANGE'>"
p173
sS'IFRAME'
p174
S"<class 'gluon.html.IFRAME'>"
p175
sS'URL'
p176
S'<function URL>'
p177
sS'__file__'
p178
S"'/home/nairelys/Descargas/Sigulab/web2py/applicat...sigulab2/views/informacion_documentada/ficha.html'"
p179
sS'db'
p180
S'<DAL uri="sqlite://storage.sqlite">'
p181
sS'auth'
p182
S'<gluon.tools.Auth object>'
p183
sS'P'
S"<class 'gluon.html.P'>"
p184
sS'TFOOT'
p185
S"<class 'gluon.html.TFOOT'>"
p186
sS'iteritems'
p187
S'<function <lambda>>'
p188
sS'XHTML'
p189
S"<class 'gluon.html.XHTML'>"
p190
sS'ON'
p191
g132
sS'OL'
p192
S"<class 'gluon.html.OL'>"
p193
sS'TEXTAREA'
p194
S"<class 'gluon.html.TEXTAREA'>"
p195
sS'MENU'
p196
S"<class 'gluon.html.MENU'>"
p197
sS'IS_IMAGE'
p198
S"<class 'gluon.validators.IS_IMAGE'>"
p199
sS'EM'
p200
S"<class 'gluon.html.EM'>"
p201
sS'CODE'
p202
S"<class 'gluon.html.CODE'>"
p203
sS'HTTP'
p204
S"<class 'gluon.http.HTTP'>"
p205
sS'HR'
p206
S"<class 'gluon.html.HR'>"
p207
sS'IS_DATETIME'
p208
S"<class 'gluon.validators.IS_DATETIME'>"
p209
sS'reduce'
p210
S'<built-in function reduce>'
p211
sS'STYLE'
p212
S"<class 'gluon.html.STYLE'>"
p213
sS'LABEL'
p214
S"<class 'gluon.html.LABEL'>"
p215
sS'CLEANUP'
p216
S"<class 'gluon.validators.CLEANUP'>"
p217
sS'plugins'
p218
S'<gluon.tools.PluginManager object>'
p219
sS'SELECT'
p220
S"<class 'gluon.html.SELECT'>"
p221
sS'CENTER'
p222
S"<class 'gluon.html.CENTER'>"
p223
sS'Auth'
p224
S"<class 'gluon.tools.Auth'>"
p225
sS'DEVELOPMENT_MENU'
p226
g132
sS'current'
p227
S'<thread._local object>'
p228
sS'__builtins__'
p229
S"{'ArithmeticError': <type 'exceptions.ArithmeticError'>, 'AssertionError': <type 'exceptions.AssertionError'>, 'AttributeError': <type 'exceptions.AttributeError'>, 'BaseException': <type 'exceptions.BaseException'>, 'BufferError': <type 'exceptions.BufferError'>, 'BytesWarning': <type 'exceptions.BytesWarning'>, 'DeprecationWarning': <type 'exceptions.DeprecationWarning'>, 'EOFError': <type 'exceptions.EOFError'>, 'Ellipsis': Ellipsis, 'EnvironmentError': <type 'exceptions.EnvironmentError'>, ...}"
p230
sS'HTML'
p231
S"<class 'gluon.html.HTML'>"
p232
sS'SQLFORM'
p233
S"<class 'gluon.sqlhtml.SQLFORM'>"
p234
sS'LOAD'
p235
S'<function LOAD>'
p236
sS'redirect'
p237
S'<function redirect>'
p238
sS'FIELDSET'
p239
S"<class 'gluon.html.FIELDSET'>"
p240
sS'IS_EQUAL_TO'
p241
S"<class 'gluon.validators.IS_EQUAL_TO'>"
p242
sS'embed64'
p243
S'<function embed64>'
p244
sS'IS_LIST_OF'
p245
S"<class 'gluon.validators.IS_LIST_OF'>"
p246
sS'INPUT'
p247
S"<class 'gluon.html.INPUT'>"
p248
sS'EMBED'
p249
S"<class 'gluon.html.EMBED'>"
p250
sS'_'
S'<function _>'
p251
sS'myconf'
p252
S"{'forms': {'formstyle': 'bootstrap3_inline', 'se...': {'names': 'localhost:*, 127.0.0.1:*, *:*, *'}}"
p253
sS'H2'
p254
S"<class 'gluon.html.H2'>"
p255
sS'H3'
p256
S"<class 'gluon.html.H3'>"
p257
sS'AppConfig'
p258
S'<function AppConfig>'
p259
sS'H1'
p260
S"<class 'gluon.html.H1'>"
p261
sS'H6'
p262
S"<class 'gluon.html.H6'>"
p263
sS'H4'
p264
S"<class 'gluon.html.H4'>"
p265
sS'H5'
p266
S"<class 'gluon.html.H5'>"
p267
sS'UL'
p268
S"<class 'gluon.html.UL'>"
p269
sS'IS_UPPER'
p270
S"<class 'gluon.validators.IS_UPPER'>"
p271
sS'xmlescape'
p272
S'<function xmlescape>'
p273
sS'IS_TIME'
p274
S"<class 'gluon.validators.IS_TIME'>"
p275
sS'OPTION'
p276
S"<class 'gluon.html.OPTION'>"
p277
sS'TITLE'
p278
S"<class 'gluon.html.TITLE'>"
p279
sS'CRYPT'
p280
S"<class 'gluon.validators.CRYPT'>"
p281
sS'IS_EMPTY_OR'
p282
S"<class 'gluon.validators.IS_EMPTY_OR'>"
p283
sS'MARKMIN'
p284
S"<class 'gluon.html.MARKMIN'>"
p285
sS'__name__'
p286
S"'__restricted__'"
p287
sg20
S'<Rows (1)>'
p288
sS'STRONG'
p289
S"<class 'gluon.html.STRONG'>"
p290
sS'COL'
p291
S"<class 'gluon.html.COL'>"
p292
sS'service'
p293
S'<gluon.tools.Service object>'
p294
sS'SCRIPT'
p295
S"<class 'gluon.html.SCRIPT'>"
p296
sS'TABLE'
p297
S"<class 'gluon.html.TABLE'>"
p298
sS'IS_IPV4'
p299
S"<class 'gluon.validators.IS_IPV4'>"
p300
sS'IS_LENGTH'
p301
S"<class 'gluon.validators.IS_LENGTH'>"
p302
sS'IS_IPV6'
p303
S"<class 'gluon.validators.IS_IPV6'>"
p304
sS'XML'
p305
S"<class 'gluon.html.XML'>"
p306
sS'B'
S"<class 'gluon.html.B'>"
p307
sS'IMG'
p308
S"<class 'gluon.html.IMG'>"
p309
sS'SQLTABLE'
p310
S"<class 'gluon.sqlhtml.SQLTABLE'>"
p311
sS'IS_MATCH'
p312
S"<class 'gluon.validators.IS_MATCH'>"
p313
sS'IS_ALPHANUMERIC'
p314
S"<class 'gluon.validators.IS_ALPHANUMERIC'>"
p315
sS'SPAN'
p316
S"<class 'gluon.html.SPAN'>"
p317
sS'IS_JSON'
p318
S"<class 'gluon.validators.IS_JSON'>"
p319
sS'IS_IPADDRESS'
p320
S"<class 'gluon.validators.IS_IPADDRESS'>"
p321
sS'IS_SLUG'
p322
S"<class 'gluon.validators.IS_SLUG'>"
p323
sS'BEAUTIFY'
p324
S"<class 'gluon.html.BEAUTIFY'>"
p325
sS'META'
p326
S"<class 'gluon.html.META'>"
p327
sS'BUTTON'
p328
S"<class 'gluon.html.BUTTON'>"
p329
sS'IS_DATE'
p330
S"<class 'gluon.validators.IS_DATE'>"
p331
sS'IS_EMAIL'
p332
S"<class 'gluon.validators.IS_EMAIL'>"
p333
sS'IS_NOT_EMPTY'
p334
S"<class 'gluon.validators.IS_NOT_EMPTY'>"
p335
sS'xrange'
p336
S"<type 'xrange'>"
p337
sS'TBODY'
p338
S"<class 'gluon.html.TBODY'>"
p339
sS'CAT'
p340
S"<class 'gluon.html.CAT'>"
p341
sS'Field'
p342
S"<class 'pydal.objects.Field'>"
p343
sS'IS_LIST_OF_EMAILS'
p344
S"<class 'gluon.validators.IS_LIST_OF_EMAILS'>"
p345
sg58
S"<Storage {'_vars': None, 'function': 'ficha', 'c...escargas/Sigulab/web2py/applications/sigulab2/'}>"
p346
sS'DIV'
p347
S"<class 'gluon.html.DIV'>"
p348
sS'LEGEND'
p349
S"<class 'gluon.html.LEGEND'>"
p350
sS'to_native'
p351
S'<function to_native>'
p352
sS'COLGROUP'
p353
S"<class 'gluon.html.COLGROUP'>"
p354
sS'DAL'
p355
S"<class 'pydal.base.DAL'>"
p356
sS'ASSIGNJS'
p357
S'<function ASSIGNJS>'
p358
sS'TR'
p359
S"<class 'gluon.html.TR'>"
p360
sS'LI'
p361
S"<class 'gluon.html.LI'>"
p362
sS'TH'
p363
S"<class 'gluon.html.TH'>"
p364
sS'TD'
p365
S"<class 'gluon.html.TD'>"
p366
sS'PluginManager'
p367
S"<class 'gluon.tools.PluginManager'>"
p368
sS'IS_URL'
p369
S"<class 'gluon.validators.IS_URL'>"
p370
sS'A'
S"<class 'gluon.html.A'>"
p371
sS'HEAD'
p372
S"<class 'gluon.html.HEAD'>"
p373
sS'IS_DATETIME_IN_RANGE'
p374
S"<class 'gluon.validators.IS_DATETIME_IN_RANGE'>"
p375
sS'FORM'
p376
S"<class 'gluon.html.FORM'>"
p377
sS'I'
S"<class 'gluon.html.I'>"
p378
sS'IS_NOT_IN_DB'
p379
S"<class 'gluon.validators.IS_NOT_IN_DB'>"
p380
sg125
S"<Storage {'body': <cStringIO.StringO object at 0...>, 'view': 'informacion_documentada/ficha.html'}>"
p381
sS'THEAD'
p382
S"<class 'gluon.html.THEAD'>"
p383
sS'ANY_OF'
p384
S"<class 'gluon.validators.ANY_OF'>"
p385
sS'IS_NULL_OR'
p386
S"<class 'gluon.validators.IS_EMPTY_OR'>"
p387
sS'doc'
p388
S"<Row {'fecha_rev_por_consejo_asesor': datetime.d...e, 'codigo': 'nmnjn', 'ubicacion_fisica': 'jjj'}>"
p389
sS'IS_FLOAT_IN_RANGE'
p390
S"<class 'gluon.validators.IS_FLOAT_IN_RANGE'>"
p391
sS'IS_EXPR'
p392
S"<class 'gluon.validators.IS_EXPR'>"
p393
sS'T'
S'<gluon.languages.translator object>'
p394
sS'IS_IN_SET'
p395
S"<class 'gluon.validators.IS_IN_SET'>"
p396
sS'IS_UPLOAD_FILENAME'
p397
S"<class 'gluon.validators.IS_UPLOAD_FILENAME'>"
p398
sS'TT'
p399
S"<class 'gluon.html.TT'>"
p400
sS'IS_DECIMAL_IN_RANGE'
p401
S"<class 'gluon.validators.IS_DECIMAL_IN_RANGE'>"
p402
sssS'traceback'
p403
S'Traceback (most recent call last):\n  File "/home/nairelys/Descargas/Sigulab/web2py/gluon/restricted.py", line 219, in restricted\n    exec(ccode, environment)\n  File "/home/nairelys/Descargas/Sigulab/web2py/applications/sigulab2/views/informacion_documentada/ficha.html", line 117, in <module>\n    <div class="wrapper">\nNameError: name \'false\' is not defined\n'
p404
s.