(dp1
S'output'
p2
S"<type 'exceptions.NameError'> name 'material_pred' is not defined"
p3
sS'layer'
p4
S'/home/sandra/Documents/web2py/applications/sigulab2/views/inventarios/detalles.html'
p5
sS'code'
p6
S'response.write(\'<!DOCTYPE html>\\n<html lang="es">\\n<head>\\n  <title>SIGULAB</title>    \\n  \\n  <!-- http://dev.w3.org/html5/markup/meta.name.html -->\\n  <meta name="application-name" content="SIGULAB">\\n\\n  <meta charset="utf-8">\\n  <meta name="viewport" content="width=device-width, initial-scale=1.0">\\n\\n  <!-- www.phpied.com/conditional-comments-block-downloads/ -->\\n  <!-- Always force latest IE rendering engine\\n       (even in intranet) & Chrome Frame\\n       Remove this if you use the .htaccess -->\\n  <meta http-equiv="X-UA-Compatible" content="IE=edge">\\n\\n  <!-- Avoid search sites from indexing this website -->\\n  <meta name="robots" content="noindex" />\\n\\n  <link rel="icon" type="image/png" sizes="16x16" href="\', escape=False)\nresponse.write(URL(\'static\', \'favicon.ico\'))\nresponse.write(\'">\\n  <link rel="stylesheet" href="\', escape=False)\nresponse.write(URL(\'static\', \'css/bootstrap.min.css\'))\nresponse.write(\'">\\n  <link rel="stylesheet" href="\', escape=False)\nresponse.write(URL(\'static\',\'css/servicios.css\'))\nresponse.write(\'">\\n  <link rel="stylesheet" href="\', escape=False)\nresponse.write(URL(\'static\',\'font-awesome-4.7.0/css/font-awesome.min.css\'))\nresponse.write(\'">\\n  \\n  <script src="\', escape=False)\nresponse.write(URL(\'static\',\'js/jquery.min.js\'))\nresponse.write(\'"></script>\\n  <script src="\', escape=False)\nresponse.write(URL(\'static\',\'js/bootstrap.min.js\'))\nresponse.write(\'"></script>\\n\\n  <!--[if lt IE 9]>\\n  <script src="https://oss.maxcdn.com/libs/html5shiv/3.7.0/html5shiv.js"></script>\\n  <script src="https://oss.maxcdn.com/libs/respond.js/1.4.2/respond.min.js"></script>\\n  <![endif]-->\\n  \\n  \', escape=False)\nresponse.write(\'\\n<style type="text/css">\\n\\n    .wrapper {\\n    max-width: 1000px;\\n    margin: auto;\\n    margin-top: 0;\\n    }\\n\\n    .tab-wrapper {\\n    text-align: center;\\n    display: block;\\n    margin: auto;\\n    max-width: 400px;\\n    }\\n\\n    .tabs {\\n    margin: 0;\\n    padding: 0;\\n    display: flex;\\n    justify-content: center;\\n    }\\n\\n    .tab-link {\\n    margin: 0 1%;\\n    list-style: none;\\n    padding: 10px 20px;\\n    color: #aaa;\\n    cursor: pointer;\\n    font-weight: 700;\\n    transition: all ease 0.5s;\\n    border-bottom: solid 3px rgba(255, 255, 255, 0);\\n    letter-spacing: 1px;\\n    }\\n\\n    .tab-link:hover {\\n    color: #999;\\n    border-color: #999;\\n    }\\n\\n    .tab-link.active {\\n    color: #333;\\n    border-color: #333;\\n    }\\n\\n    .tab-link:nth-of-type(1).active {\\n    color: #1790D2;\\n    border-color: #1790D2\\n    }\\n\\n    .tab-link:nth-of-type(2).active {\\n    color: #1790D2;\\n    border-color: #1790D2;\\n    }\\n\\n    .tab-link:nth-of-type(4).active {\\n    color: #1790D2;\\n    border-color: #1790D2;\\n    }\\n\\n    .tab-link:nth-of-type(5).active {\\n    color: #1790D2;\\n    border-color: #1790D2;\\n    }\\n\\n    .tab-link:nth-of-type(6).active {\\n    color: #1790D2;\\n    border-color: #1790D2;\\n    }\\n\\n    .tab-link:nth-of-type(7).active {\\n    color: #1790D2;\\n    border-color: #1790D2;\\n    }\\n\\n    .tab-link:nth-of-type(3).active {\\n    color: #1790D2;\\n    border-color: #1790D2;\\n    }\\n\\n    .content-wrapper {\\n    padding: 20px 80px;\\n    }\\n\\n    .tab-content {\\n    display: none;\\n    text-align: left;\\n    color:  #464646;\\n    font-weight: 200;\\n    font-size: 20px;\\n    opacity: 0;\\n    transform: translateY(15px);\\n    animation: fadeIn 0.5s ease 1 forwards;\\n    }\\n\\n    .tab-content.active {\\n    display: block;\\n    }\\n\\n    @keyframes fadeIn {\\n    100% {\\n        opacity: 1;\\n        transform: none;\\n    }\\n}\\n</style>\\n\', escape=False)\nresponse.write(\' \\n</head>\\n<body>\\n\\n<!-- Barra de navegaci\\xc3\\xb3n principal -->\\n<div class="container" id="logo">\\n<a class="navbar-brand" href="\', escape=False)\nresponse.write(URL(\'..\', \'sigulab2\'))\nresponse.write(\'"><div class="logotext">SIGULAB</div></a>\\n</div>\\n<nav class="navbar navbar-inverse navbar-fixed-top">\\n  <div class="container-fluid">\\n      <div class="navbar-header">\\n        <button type="button" class="navbar-toggle" data-toggle="collapse" data-target="#myNavbar">\\n          <span class="icon-bar"></span>\\n          <span class="icon-bar"></span>\\n          <span class="icon-bar"></span> \\n          </button>\\n          <a class="navbar-brand" id="hide" href="#"><div class="logotext">SIGULAB</div></a>\\n      </div>\\n      <div class="collapse navbar-collapse" id="myNavbar">\\n\\n        <ul class="nav navbar-nav">\\n            \\n            <li class="dropdown active-item" id="inicio">\\n              <a class="dropdown-toggle" href="\', escape=False)\nresponse.write(URL(\'..\', \'sigulab2\'))\nresponse.write(\'">INICIO</a>\\n            </li>\\n\\n            <li class="dropdown active-item" id="personal">\\n              <a href="#" class="dropdown-toggle" data-toggle="dropdown" role="button" aria-haspopup="true" aria-expanded="false">PERSONAL<span class="caret"></span></a>\\n              <ul class=" dropdown-menu">\\n                <li><a href="\', escape=False)\nresponse.write(URL(\'personal\',\'index\'))\nresponse.write(\'">P\\xc3\\xa1gina Principal</a></li>\\n                <li><a href="\', escape=False)\nresponse.write(URL(\'personal\',\'listado\'))\nresponse.write(\'">Listado General de Personal</a></li>\\n                <li><a href="#">Listado por Categor\\xc3\\xadas de Personal</a></li>\\n                <li><a href="#">Listado por Dependencias de Personal</a></li>\\n                <li><a href="#">Listado por A\\xc3\\xb1os de Servicio de Personal</a></li>\\n              </ul>\\n            </li>\\n            \\n            <li class="dropdown active-item" id="servicios">\\n\\n              <a href="#" class="dropdown-toggle" data-toggle="dropdown" role="button" aria-haspopup="true" aria-expanded="false">SERVICIOS<span class="caret"></span></a>\\n                <ul class=" dropdown-menu">\\n                <li><a href="\', escape=False)\nresponse.write(URL(\'servicios\',\'index\'))\nresponse.write(\'">P\\xc3\\xa1gina Principal</a></li>\\n                <li><a href="\', escape=False)\nresponse.write(URL(\'servicios\',\'listado\'))\nresponse.write(\'">Listado de Servicios</a></li>\\n                <li><a href="\', escape=False)\nresponse.write(URL(\'servicios\',\'solicitudes\'))\nresponse.write(\'">Solicitudes de Servicios</a></li>\\n                <li><a href="\', escape=False)\nresponse.write(URL(\'servicios\',\'certificaciones\'))\nresponse.write(\'">Certificar un servicio</a></li>\\n                <li><a href="\', escape=False)\nresponse.write(URL(\'servicios\',\'historial\'))\nresponse.write(\'">Historial de servicios</a></li>\\n                <li><a href="\', escape=False)\nresponse.write(URL(\'servicios\',\'catalogoServicios\'))\nresponse.write(\'">Cat\\xc3\\xa1logo de Servicios</a></li>\\n              </ul>\\n            </li>\\n\\n            <li class="dropdown active-item" id="smydp">\\n              <a href="#" class="dropdown-toggle" data-toggle="dropdown" role="button" aria-haspopup="true" aria-expanded="false">SMyDP<span class="caret"></span></a>\\n                <ul class="dropdown-menu">\\n                <li><a href="\', escape=False)\nresponse.write(URL(\'smydp\', \'index\'))\nresponse.write(\'">P\\xc3\\xa1gina Principal</a></li>\\n                  <li><a href="\', escape=False)\nresponse.write(URL(\'smydp\', \'catalogo\'))\nresponse.write(\'">Listado de Sustancias</a></li>\\n                  <li><a href="\', escape=False)\nresponse.write(URL(\'smydp\', \'inventarios\'))\nresponse.write(\'">Inventario</a></li>\\n                  <li><a href="\', escape=False)\nresponse.write(URL(\'smydp\', \'solicitudes\'))\nresponse.write(\'">Solicitudes</a></li>\\n                 </ul>\\n            </li> \\n\\n            <li class="dropdown active-item" id="inventario">\\n              <a href="#" class="dropdown-toggle" data-toggle="dropdown" role="button" aria-haspopup="true" aria-expanded="false">INVENTARIOS<span class="caret"></span></a>\\n                <ul class="dropdown-menu">\\n                <li><a href="\', escape=False)\nresponse.write(URL(\'inventarios\', \'index\'))\nresponse.write(\'">P\\xc3\\xa1gina Principal</a></li>\\n                  <li><a href="\', escape=False)\nresponse.write(URL(\'inventarios\', \'bienes_muebles\'))\nresponse.write(\'">Bienes Muebles</a></li>\\n                  <li><a href="\', escape=False)\nresponse.write(URL(\'inventarios\', \'material_lab\'))\nresponse.write(\'">Material de laboratorio</a></li>\\n                  <li><a href="\', escape=False)\nresponse.write(URL(\'inventarios\', \'prestamos\'))\nresponse.write(\'">Pr\\xc3\\xa9stamos</a></li>\\n                  <li><a href="\', escape=False)\nresponse.write(URL(\'inventarios\', \'mantenimiento\'))\nresponse.write(\'">Mantenimiento</a></li>\\n                </ul>\\n            </li> \\n        </ul>\\n\\n      <ul class="nav navbar-nav navbar-right">\\n      \', escape=False)\nif auth.has_membership(\'ADMINISTRADOR PERSONAL\') \\\nor auth.has_membership(\'WEBMASTER\')\\\nor auth.has_membership(\'DIRECTOR\')\\\nor (auth.user.email == "ulab-calidad@usb.ve"):\n    response.write(\'\\n        <li class="dropdown">\\n          <div class="dropdown">\\n            <button class="btn btn-primary dropdown-toggle" type="button" data-toggle="dropdown">\\n              <i id="iconoInfo" class="fa fa-cog" aria-hidden="true"></i>\\n            </button>\\n            <ul class="dropdown-menu">\\n              <li><a href="\', escape=False)\n    response.write(URL(\'modulos\',\'register\'))\n    response.write(\'">Registrar Usuario</a></li>\\n              <li><a href="\', escape=False)\n    response.write(URL(\'gestion\',\'usuarios\'))\n    response.write(\'">Usuarios Autorizados</a></li>\\n              <li><a href="\', escape=False)\n    response.write(URL(\'gestion\',\'dependencias\'))\n    response.write(\'">Dependencias</a></li>\\n              <li><a href="\', escape=False)\n    response.write(URL(\'gestion\',\'espacios_fisicos\'))\n    response.write(\'">Espacios F\\xc3\\xadsicos</a></li>\\n            </ul>\\n          </div>\\n        </li>\\n        \', escape=False)\n    pass\nresponse.write(\'\\n\\n        <li class="dropdown">\\n          <div class="dropdown">\\n            <button class="btn btn-primary dropdown-toggle" type="button" data-toggle="dropdown">\\n              <span id="iconoUser" class="glyphicon glyphicon-user dropdown-toggle"></span>\\n            </button>\\n            <ul class="dropdown-menu">\\n              <li>\', escape=False)\nif auth.is_logged_in():\n    response.write(\'<a href="\', escape=False)\n    response.write(URL(\'modulos\', \'editprofile\', args=\'profile\'))\n    response.write(\'">\', escape=False)\n    response.write(auth.user.first_name)\n    response.write(\'  \', escape=False)\n    response.write(auth.user.last_name)\n    response.write(\'</a>\', escape=False)\n    pass\nresponse.write(\'</li>\\n              <li><a href="\', escape=False)\nresponse.write(URL(\'modulos\',\'logout\'))\nresponse.write(\'">Salir</a></li>\\n            </ul>\\n          </div>\\n        </li>\\n      </ul> \\n     </div>\\n  </div>\\n</nav>\\n<!-- Fin de la barra de navegaci\\xc3\\xb3n principal -->\\n<div class="fondoblanco"></div> \\n<div class="separador"></div>\\n\\n\', escape=False)\nresponse.write(\'\\n<li>Nombre: \', escape=False)\nresponse.write(bien[\'bm_nombre\'])\nresponse.write(\' </li>\\n<li>N/B: \', escape=False)\nresponse.write(bien[\'bm_num\'])\nresponse.write(\' </li>\\n<li>Placa \', escape=False)\nresponse.write(bien[\'bm_placa\'])\nresponse.write(\'</li>\\n\', escape=False)\npass\nresponse.write(\'\\n\\n<!-- Inicio Boton Modificar BM -->\\n<div class="container" id="containerModificar">\\n    <div class="row">\\n        <div class="col-sm-6"></div>\\n        <div id="columnBotonModificar" class="col-sm-6">\\n            <div class="col-sm-6"></div>\\n            <div class="col-sm-6">\\n                <!-- Boton que lleva al modal --> <!-- Cambiar data-target="#addservice por el id de la forma de la sustancia -->\\n                <button type="button" id="botonModificar" class="btn botonesListado" data-toggle="modal" data-target="#addbm">Modificar Bien</button>\\n            </div>\\n        </div>\\n    </div>\\n</div>\\n<!-- Fin Boton Agregar Sustancia -->\\n\\n\\n<div class="wrapper">\\n\\t\\t\\n\\t<div class="tab-wrapper">\\n\\t\\t<ul class="tabs">\\n\\t\\t\\t\\t<li class="tab-link active" data-tab="1">CARACTER\\xc3\\x8dSTICAS</li>\\n\\t\\t\\t\\t<li class="tab-link" data-tab="2">SUDEBID</li>\\n                <li class="tab-link" data-tab="3">DATOS ADQUISICI\\xc3\\x93N</li>\\n                <li class="tab-link" data-tab="4">UBICACI\\xc3\\x93N</li>\\n                <li class="tab-link" data-tab="5">MANTENIMIENTO</li>\\n                <li class="tab-link" data-tab="6">SERVICIOS</li>\\n                <li class="tab-link" data-tab="7">PR\\xc3\\x89STAMOS</li>\\n        \\n        \\n            </ul>\\n\\t</div>\\n\\n\\t<div class="content-wrapper">\\n\\n\\t\\t<div id="tab-1" class="tab-content active">\\n            <h4>Marca: \', escape=False)\nresponse.write(bien[\'bm_serial\'])\nresponse.write(\' </h4>\\n            <h4>Modelo: \', escape=False)\nresponse.write(bien[\'bm_modelo\'])\nresponse.write(\'</h4>\\n            <h4>Serial: \', escape=False)\nresponse.write(bien[\'bm_serial\'])\nresponse.write(\' </h4>\\n            <h4>Descripci\\xc3\\xb3n: \', escape=False)\nresponse.write(bien[\'bm_descripcion\'])\nresponse.write(\' </h4>\\n            <h4>Marterial predominante: \', escape=False)\nresponse.write(bien[\'bm_material\'])\nresponse.write(\' </h4>\\n            <h4>Color:  \', escape=False)\nresponse.write(bien[\'bm_color\'])\nresponse.write(\'</h4>\\n            \', escape=False)\nif bien[\'bm_unidad\'] != \'\':\n    response.write(\'\\n                \', escape=False)\n    if bien[\'bm_unidad\'] == \'m\':\n        response.write(\'\\n                    <h4>Dimensiones: metros</h4>\\n                \', escape=False)\n    else:\n        response.write(\'\\n                    <h4>Dimensiones: cent\\xc3\\xadmetros</h4>\\n                    \\n                \', escape=False)\n        pass\n    response.write(\'\\n                \', escape=False)\n    if bien[\'bm_ancho\'] != \'\':\n        response.write(\'\\n                    <h4> &emsp;   Ancho: \', escape=False)\n        response.write(bien[\'bm_ancho\'])\n        response.write(\' </h4>\\n                \', escape=False)\n        pass\n    response.write(\'\\n                \', escape=False)\n    if bien[\'bm_largo\'] != \'\':\n        response.write(\'\\n                    <h4>  &emsp;   Largo: \', escape=False)\n        response.write(bien[\'bm_largo\'])\n        response.write(\' </h4>\\n                \', escape=False)\n        pass\n    response.write(\'\\n                \', escape=False)\n    if bien[\'bm_alto\'] != \'\':\n        response.write(\'\\n                    <h4>  &emsp;   Alto: \', escape=False)\n        response.write(bien[\'bm_alto\'])\n        response.write(\' </h4>\\n                \', escape=False)\n        pass\n    response.write(\'\\n                \', escape=False)\n    if bien[\'bm_diametro\'] != \'\':\n        response.write(\'\\n                    <h4>  &emsp;   Di\\xc3\\xa1metro: \', escape=False)\n        response.write(bien[\'bm_diametro\'])\n        response.write(\' </h4>\\n                \', escape=False)\n        pass\n    response.write(\'\\n            \', escape=False)\n    pass\nresponse.write(\'\\n            <h4>Movilidad:  \', escape=False)\nresponse.write(bien[\'bm_movilidad\'])\nresponse.write(\'</h4>\\n            <h4>Uso:  \', escape=False)\nresponse.write(bien[\'bm_uso\'])\nresponse.write(\'\\n            </h4>\\n                \\n        </div>\\n\\n\\t\\t<div id="tab-2" class="tab-content">\\n                <h4> Localizaci\\xc3\\xb3n : \', escape=False)\nresponse.write(bien[\'bm_localizacion\'])\nresponse.write(\' </h4>\\n                <h4>C\\xc3\\xb3digo Localizaci\\xc3\\xb3n: \', escape=False)\nresponse.write(bien[\'bm_codigo_localizacion\'])\nresponse.write(\' </h4>\\n                <h4>Categoria: \', escape=False)\nresponse.write(bien[\'bm_categoria\'])\nresponse.write(\' </h4>\\n        </div>\\n\\n\\t\\t<div id="tab-3"class="tab-content">En desarrollo</div>\\n        <div id="tab-4"class="tab-content">\\n            <h4> Espacio f\\xc3\\xadsico : \', escape=False)\nresponse.write(bien[\'bm_espacio_fisico\'])\nresponse.write(\' </h4>\\n            <h4> Unidad de Adscripci\\xc3\\xb3n : \', escape=False)\nresponse.write(bien[\'bm_unidad_de_adscripcion\'])\nresponse.write(\' </h4>\\n            <h4> Dependencia : \', escape=False)\nresponse.write(bien[\'bm_depedencia\'])\nresponse.write(\' </h4>\\n        </div>\\n\\t\\t<div id="tab-5"class="tab-content">En Desarrollo</div>\\n\\t\\t<div id="tab-6"class="tab-content">En desarrollo</div>\\n\\t\\t<div id="tab-7"class="tab-content">En desarrollo</div>\\n\\n\\n\\n\\t</div>\\n\\t\\n</div>\\n\\n\\n<!-- Modal modificar un BM nuevo al inventario -->\\n<div class="modal fade" id="addbm" role="dialog">\\n  <div class="modal-dialog">\\n\\n    <!-- Modal content-->\\n    <div class="modal-content">\\n\\n      <!-- Modal Header -->\\n      <div class="modal-header addHeader">\\n        <div class="row addRow" id="rowHeader">\\n          <div class="col-sm-1" id="col1Header">\\n            <div class="container" id="plus">\\n              <h1 id="agregar">+</h1>\\n            </div>\\n          </div>\\n          <div class="col-sm-11" id="col11Header">\\n            <h4 class="modal-title" id="nuevaBien" style="\\n              text-align: left;\\n              padding-top: 12px;\\n              color: white;\\n            ">Bien Mueble<button type="button" class="close" data-dismiss="modal">&times;</button>\\n            </h4>\\n          </div>\\n        </div>\\n      </div>\\n      <!-- Fin Modal Header -->\\n      \\n      <!-- Modal Body -->\\n      <div class="modal-body addBody">\\n        <div class="row addRow">\\n          <div class="col-md-12 form-box">\\n              <form id="formularioCarga" class="registration-form" method="post" onsubmit="return validar_campos()">\\n\\n            <!-- Primer paso-->\\n            <fieldset class="formField">\\n                <div class="form-bottom" data-step="1" data-title="Primer Paso">\\n                  <!-- Barra lateral gris (vacia en este caso, pues no hay pasos) -->\\n                  <div class="col-sm-1 col1Body"> \\n                    <span class="step activePass">1</span>\\n                    <span class="step">2</span>\\n                    <span class="step">3</span>\\n                    <span class="step">4</span>\\n                  </div>\\n                  <!-- Aqui va la informacion -->\\n                  <div class="col-sm-11 col11Body">\\n                    <h4 class="titulosForm">Caracter\\xc3\\xadsticas del Bien</h4>                \\n                    <label>Campos marcados con * son obligatorios.</label>\\n\\n                    <div class="form-group">\\n                        <label>Seleccione la clasificaci\\xc3\\xb3n del Bien Mueble*</label>\\n                        <select class="form-control" type="select" id="clasificacion" name="clasificacion" placeholder="Clasificaci\\xc3\\xb3n" required>\\n                          <option value="">Seleccione una opci\\xc3\\xb3n</option>\\n                          <option value="Equipo">Equipo</option>\\n                          <option value="Mobilario">Mobilario</option>\\n                        </select>\\n                        <div class="field-error"> <p id="error-clasificacion"></p></div>\\n                      </div>\\n                  </div>\\n                </div>\\n                <button type="button" class="btn btn-next botonForm" onclick="elegir_campos()">Siguiente</button>    \\n            </fieldset>\\n          \\n                \\n                <!-- Segundo paso-->\\n                <fieldset class="formField">\\n                  <div class="form-bottom" data-step="2" data-title="Segundo Paso">\\n                    <!-- Barra lateral gris (vacia en este caso, pues no hay pasos) -->\\n                    <div class="col-sm-1 col1Body"> \\n                      <span class="step">1</span>\\n                      <span class="step activePass">2</span>\\n                      <span class="step">3</span>\\n                      <span class="step">4</span>\\n                    </div>\\n                    <!-- Aqui va la informacion -->\\n                    <div class="col-sm-11 col11Body">\\n                      <h4 class="titulosForm">Caracter\\xc3\\xadsticas del Bien</h4>                \\n                      <label>Campos marcados con * son obligatorios.</label>\\n\\n\\n                        <div class="form-group" tag="Formato:">\\n                            <input type="text" class="form-control" id="nombre" name="nombre" title="Ingrese el nombre del Bien Mueble" placeholder="Nombre*"  required>\\n                            <div class="field-error"> <p id="error-nombre"> </p> </div>\\n                        </div>\\n\\n                        <div class="form-group">\\n                            <input type="text" class="form-control" id="no_bien" name="no_bien" placeholder="N\\xc3\\xbamero de Bien Nacional*" title="Formato: ###### (6 d\\xc3\\xadgitos)"   required>\\n                            <font color="red"><div id="err_no_bien" hidden></div></font>\\n                        </div>\\n\\n                        <div class="form-group">\\n                            <input type="text" class="form-control" id="no_placa" name="no_placa" title="Formato: ##### (5 d\\xc3\\xadgitos)" placeholder="N\\xc2\\xb0 de placa">\\n                            <font color="red"><div id="err_placa" hidden></div></font>\\n                        </div>\\n\\n                        <div class="form-group">\\n                            <input type="text" class="form-control"  id="marca" name="marca" placeholder="Marca*" required >\\n                            <div class="field-error"> <p id="error-marca"> </p> </div>\\n                        </div>\\n\\n                        <div class="form-group">\\n                            <input type="text" class="form-control" id="modelo" name="modelo" value="" placeholder="Modelo*" required>\\n                            <div class="field-error"> <p id="error-modelo"> </p> </div>\\n                        </div>\\n\\n                        <div class="form-group">\\n                            <input type="text" class="form-control" id="serial" name="serial" placeholder="Serial*" required>\\n                            <div class="field-error"> <p id="error-serial"> </p> </div>\\n                          </div>\\n                        \\n                          <div class="form-group">\\n                            <input type="text" class="form-control" id="Descripcion" name="descripcion" placeholder="Descripci\\xc3\\xb3n*" required>\\n                            <div class="field-error"> <p id="error-est-descripcion"> </p> </div>\\n                        </div>\\n                        \\n                    </div>\\n                  </div>\\n                  <button type="button" class="btn btn-previous botonForm">Anterior</button>\\n                  <button type="button" class="btn btn-next botonForm">Siguiente</button>         \\n                </fieldset>\\n                <!-- Fin Segundo Paso -->\\n\\n                <!-- Tercer paso Parte 3-->\\n                <fieldset class="formField">\\n                    <div class="form-bottom" data-step="3" data-title="Tercer Paso">\\n                      <!-- Barra lateral gris (vacia en este caso, pues no hay pasos) -->\\n                      <div class="col-sm-1 col1Body"> \\n                        <span class="step">1</span>\\n                        <span class="step">2</span>\\n                        <span class="step activePass">3</span>\\n                        <span class="step">4</span>\\n                      </div>\\n                      <!-- Aqui va la informacion -->\\n                      <div class="col-sm-11 col11Body">\\n                        <h4 class="titulosForm">Caracter\\xc3\\xadsticas del Bien</h4>                \\n                        <label>Campos marcados con * son obligatorios.</label>\\n  \\n\\n                          \\n                          <div class="form-group">\\n                              <select class="form-control" type="select" id="material" name="material" placeholder="Material predominante" required>\\n                                <!-- Insertar un for-->\\n                                <option type="text" value="">Selecione un material*</option>\\n                                \', escape=False)\nfor material in material_pred:\n    response.write(\'\\n                                <option value="\', escape=False)\n    response.write(material)\n    response.write(\'">\', escape=False)\n    response.write(material)\n    response.write(\'</option>\\n                                \', escape=False)\n    pass\nresponse.write(\'\\n                              </select>\\n                              <div class="field-error"> <p id="error-material"> </p> </div>\\n                          </div>\\n\\n  \\n  \\n                          <div class="form-group">\\n                              <select class="form-control" type="select" id="color" name="color" placeholder="Color" required>\\n                                <option value="">Selecione un color*</option>\\n                                \', escape=False)\nfor color in color_list:\n    response.write(\'\\n                                <option value="\', escape=False)\n    response.write(color)\n    response.write(\'">\', escape=False)\n    response.write(color)\n    response.write(\'</option>\\n                                \', escape=False)\n    pass\nresponse.write(\'\\n                              </select>\\n                              <div class="field-error"> <p id="error-color"> </p> </div>\\n                          </div>\\n\\n                          <label>Dimensiones</label>\\n\\n                          <div class="form-group">\\n                            <select class="form-control" value="" type="select" id="unidad" name="unidad" placeholder="Unidad de medida" onchange="display_units(this.value)">\\n                              <option value="">Selecione una unidad</option>\\n                              \', escape=False)\nfor med in unidad_med:\n    response.write(\'\\n                              <option value="\', escape=False)\n    response.write(med)\n    response.write(\'">\', escape=False)\n    response.write(med)\n    response.write(\'</option>\\n                              \', escape=False)\n    pass\nresponse.write(\'\\n                            </select>\\n                            <div class="field-error"> <p id="error-unidad" > </p> </div>\\n                          </div>\\n\\n                          <div class="form-group">\\n                            <input type="hidden" class="form-control" id="ancho" name="ancho" title="Formato ##.##" placeholder="Ancho">\\n                            <font color="red"><div id="err_ancho" hidden></div></font>\\n                          </div>\\n\\n\\n                          <div class="form-group">\\n                            <input type="hidden" class="form-control" id="largo" name="largo" title="Formato ##.##" placeholder="Largo" >\\n                            <font color="red"><div id="err_largo" hidden></div></font>\\n                          </div>\\n\\n                          <div class="form-group">\\n                            <input type="hidden" class="form-control" id="alto" name="alto" title="Formato ##.##" placeholder="Altura" >\\n                            <font color="red"><div id="err_alto" hidden></div></font>\\n                          </div>\\n\\n                          <div class="form-group">\\n                            <input type="hidden" class="form-control" id="diametro" name="diametro" title="Formato ##.##" placeholder="Di\\xc3\\xa1metro" >\\n                            <font color="red"><div id="err_diametro" hidden></div></font>\\n                          </div>\\n                          \\n                        </div>\\n                      </div>\\n                    <button type="button" class="btn btn-previous botonForm">Anterior</button>\\n                    <button type="button" class="btn btn-next botonForm">Siguiente</button>       \\n                  </fieldset>\\n                  <!-- Fin tercer Paso -->\\n\\n\\n                <!--Tercer Paso parte 2-->\\n                <fieldset class="formField">\\n                    <div class="form-bottom" data-step="3" data-title="Tercer Paso">\\n                      <!-- Barra lateral gris (vacia en este caso, pues no hay pasos) -->\\n                      <div class="col-sm-1 col1Body"> \\n                        <span class="step">1</span>\\n                        <span class="step">2</span>\\n                        <span class="step activePass">3</span>\\n                        <span class="step">4</span>\\n                      </div>\\n                      <!-- Aqui va la informacion -->\\n                      <div class="col-sm-11 col11Body">\\n                        <h4 class="titulosForm">Caracter\\xc3\\xadsticas del Bien</h4>                \\n                        <label>Campos marcados con * son obligatorios.</label>\\n  \\n                        <div class="form-group">\\n                            <label>Seleccione un tipo de movilidad*</label>\\n                            <select class="form-control" type="select" id="movilidad" name="movilidad" placeholder="Movilidad" required>\\n                              <option value="">Seleccione un tipo de movilidad</option>\\n                              \', escape=False)\nfor movilidad in movilidad_list:\n    response.write(\'\\n                              <option value="\', escape=False)\n    response.write(movilidad)\n    response.write(\'">\', escape=False)\n    response.write(movilidad)\n    response.write(\'</option>\\n                              \', escape=False)\n    pass\nresponse.write(\'\\n                            </select>\\n                            <div class="field-error"> <p id="error-movilidad"> </p> </div>\\n                        </div>\\n\\n                        <label>Tipo de Uso</label>\\n                        <div class="checkbox-group">\\n                          \', escape=False)\nfor uso in uso_list:\n    response.write(\'\\n                          <input type="checkbox" name="tipo_uso" value="\', escape=False)\n    response.write(uso)\n    response.write(\'">\', escape=False)\n    response.write(uso)\n    response.write(\'\\n                          <br>\\n                          \', escape=False)\n    pass\nresponse.write(\'\\n                        </div>\\n\\n                        <div class="form-group" id="calibrar">\\n                          <label>Seleccione si el equipo ha sido calibrado*</label>\\n                          <select class="form-control" id="select-calibrar" type="select" name="calibrar" placeholder="Calibraci\\xc3\\xb3n" onchange="display_date(this.value)">\\n                            <option value="">Seleccione una opci\\xc3\\xb3n</option>\\n                            <option value="Si">Si</option>\\n                            <option value="No">No</option>\\n                          </select>\\n                          <div class="field-error"> <p id="error-calibrar"> </p> </div>\\n                        </div>\\n  \\n                        <div class="form-group" id="fecha_calibracion">\\n                          <label>Seleccione la fecha de la \\xc3\\xbaltima calibraci\\xc3\\xb3n del equipo*</label>\\n                          <input type="date" class="form-control" name="fecha_calibracion">\\n                          <div class="field-error"> <p id="error-fecha_calibracion"></p></div>\\n                        </div>\\n  \\n                        <div class="form-group">\\n                          <label>Seleccione el estado del bien mueble*</label>\\n                          <select class="form-control" type="select" id="estatus" name="estatus" placeholder="Estatus del equipo" required>\\n                            <option value="">Seleccione una opci\\xc3\\xb3n</option>\\n                            \', escape=False)\nform_estatus = [\'Operativo\',\'Inoperativo\',\'En desuso\',\'Inservible\']\nresponse.write(\'\\n                            \', escape=False)\nfor estatus in form_estatus:\n    response.write(\'\\n                            <option value="\', escape=False)\n    response.write(estatus)\n    response.write(\'">\', escape=False)\n    response.write(estatus)\n    response.write(\'</option>\\n                            \', escape=False)\n    pass\nresponse.write(\'\\n                          </select>\\n                          <div class="field-error"> <p id="error-estatus"> </p> </div>\\n                        </div>\\n\\n                        </div>\\n                      </div>\\n\\n                    <button type="button" class="btn btn-previous botonForm">Anterior</button>\\n                    <button type="button" class="btn btn-next botonForm">Siguiente</button>       \\n                  </fieldset>\\n                  <!-- Fin tercer paso-->\\n\\n                <!-- Comienzo Cuarto Paso Parte 1-->\\n                <fieldset class="formField">\\n                    <div class="form-bottom" data-step="4" data-title="Cuarto Paso">\\n                      <!-- Aqui va la barra lateral -->\\n                      <div class="col-sm-1 col1Body">\\n                        <span class="step">1</span>\\n                        <span class="step">2</span>\\n                        <span class="step">3</span>\\n                        <span class="step activePass">4</span>\\n                      </div>\\n  \\n                      <!-- Aqui va la informacion -->\\n                      <div class="col-sm-11 col11Body" style="padding-top: 50px">\\n                      <h4 class="titulosForm">SUDEBID</h4>\\n                      <label>Importante: llene seg\\xc3\\xban requerimientos de SUDEBID</label>\\n                        \\n                      <div class="form-group">\\n                          <label class="form-group" id="numRegistro" style="margin-bottom: 0px" >Ubicaci\\xc3\\xb3n</label>\\n                          <select class="form-control" type="select" value="" id="localizacion" onchange="placeholder_localizacion(this.value);"  name="localizacion" required>\\n                            <option value="" onchange="placeholder_localizacion(this.value);">Seleccione un c\\xc3\\xb3digo de localizacion</option>\\n                            \', escape=False)\nfor cod in localizacion:\n    response.write(\'\\n                            <option value="\', escape=False)\n    response.write(cod)\n    response.write(\'" onchange="placeholder_localizacion(this.value);">\', escape=False)\n    response.write(cod)\n    response.write(\'</option>\\n                            \', escape=False)\n    pass\nresponse.write(\'\\n                          </select>\\n                          <div class="field-error"> <p id="error-cod-localizacion"> </p> </div>\\n                        </div>\\n\\n                        <div class="form-group">\\n                            <label class="form-group" id="numRegistro" style="margin-bottom: 0px">C\\xc3\\xb3digo de localizaci\\xc3\\xb3n</label>\\n                            <input type="text" class="form-control" id="cod_loc" name="cod_loc" placeholder="" readonly >\\n                            <div class="field-error"> <p id="error-cod_loc"> </p> </div>\\n                          </div>\\n                  \\n\\n                      <div class="form-group">\\n                          <label class="form-group" id="numRegistro" style="margin-bottom: 0px">Categorias</label>\\n                          <select class="form-control" type="select" value="" id="categoria" onchange="colocar_subcategoria(this.value);" name="nombre_cat" required>\\n                            <option value="" onchange="colocar_subcategoria(this.value);" >Seleccione una categorias</option>\\n                            \', escape=False)\nfor categoria in nombre_cat:\n    response.write(\'\\n                            <option value="\', escape=False)\n    response.write(categoria)\n    response.write(\'" onchange="colocar_subcategoria(this.value);" >\', escape=False)\n    response.write(categoria)\n    response.write(\'</option>\\n                            \', escape=False)\n    pass\nresponse.write(\'\\n                          </select>\\n                          <div class="field-error"> <p id="error-categorias"> </p> </div>\\n                        </div>\\n\\n                    \\n                        <div class="form-group">\\n                            <label class="form-group" id="numRegistro" style="margin-bottom: 0px">Subcategorias</label>\\n                            <label class="form-group" id="numRegistro2" style="margin-bottom: 0px" ></label>\\n                            <select class="form-control" type="select" value="" id="Subcategorias"  name="subcategoria" required>\\n                              <option value="">Seleccione una subcategorias</option>\\n                              <option value="" id="Opcion1" hidden></option>\\n                              <option value="" id="Opcion2" hidden ></option>\\n                              <option value="" id="Opcion3" hidden ></option>\\n                              <option value="" id="Opcion4" hidden ></option>\\n                              <option value="" id="Opcion5" hidden ></option>\\n                              <option value="" id="Opcion6" hidden ></option>\\n                              <option value="" id="Opcion7" hidden ></option>\\n                              <option value="" id="Opcion8" hidden ></option>\\n                              <option value="" id="Opcion9" hidden ></option>\\n                            </select>\\n                            <div class="field-error"> <p id="error-categorias"> </p> </div>\\n                        </div>\\n\\n                      </div>\\n                    </div>\\n                    <button type="button" class="btn btn-previous botonForm">Anterior</button>\\n                    <button type="submit button" form="formularioCarga" id="submit" class="btn btn-submit botonForm">Agregar</button>                </fieldset>\\n                <!-- Fin Cuarto Paso -->\\n              </form>\\n          </div>\\n        </div>               \\n      </div>\\n    </div>\\n  </div>\\n</div>\\n\\n<!-- Fin Modal Agregar BM -->\\n\\n<script type="text/javascript">\\n$(\\\'.tab-link\\\').click( function() {\\n\\t\\n\\tvar tabID = $(this).attr(\\\'data-tab\\\');\\n\\t\\n\\t$(this).addClass(\\\'active\\\').siblings().removeClass(\\\'active\\\');\\n\\t\\n\\t$(\\\'#tab-\\\'+tabID).addClass(\\\'active\\\').siblings().removeClass(\\\'active\\\');\\n});\\n  \\n  </script>\\n\', escape=False)\nresponse.write(\'\\n\\n<script type="text/javascript">\\n  if(window.location.pathname.includes(\\\'personal\\\')){\\n    $(\\\'li#personal\\\').addClass("active");\\n  }\\n  else if (window.location.pathname.includes(\\\'servicios\\\')){\\n    $(\\\'li#servicios\\\').addClass("active");\\n  }\\n</script>\\n</body>\\n</html>\', escape=False)'
p7
sS'snapshot'
p8
(dp9
S'exception'
p10
(dp11
S'__getslice__'
p12
S"<method-wrapper '__getslice__' of exceptions.NameError object>"
p13
sS'__str__'
p14
S"<method-wrapper '__str__' of exceptions.NameError object>"
p15
sS'__reduce__'
p16
S'<built-in method __reduce__ of exceptions.NameError object>'
p17
sS'__dict__'
p18
S'{}'
p19
sS'message'
p20
S'"name \'material_pred\' is not defined"'
p21
sS'__sizeof__'
p22
S'<built-in method __sizeof__ of exceptions.NameError object>'
p23
sS'__init__'
p24
S"<method-wrapper '__init__' of exceptions.NameError object>"
p25
sS'__setattr__'
p26
S"<method-wrapper '__setattr__' of exceptions.NameError object>"
p27
sS'__reduce_ex__'
p28
S'<built-in method __reduce_ex__ of exceptions.NameError object>'
p29
sS'__new__'
p30
S'<built-in method __new__ of type object>'
p31
sS'__format__'
p32
S'<built-in method __format__ of exceptions.NameError object>'
p33
sS'__class__'
p34
S"<type 'exceptions.NameError'>"
p35
sS'__doc__'
p36
S"'Name not found globally.'"
p37
sS'__getitem__'
p38
S"<method-wrapper '__getitem__' of exceptions.NameError object>"
p39
sS'__setstate__'
p40
S'<built-in method __setstate__ of exceptions.NameError object>'
p41
sS'__getattribute__'
p42
S"<method-wrapper '__getattribute__' of exceptions.NameError object>"
p43
sS'args'
p44
S'("name \'material_pred\' is not defined",)'
p45
sS'__subclasshook__'
p46
S'<built-in method __subclasshook__ of type object>'
p47
sS'__unicode__'
p48
S'<built-in method __unicode__ of exceptions.NameError object>'
p49
sS'__delattr__'
p50
S"<method-wrapper '__delattr__' of exceptions.NameError object>"
p51
sS'__repr__'
p52
S"<method-wrapper '__repr__' of exceptions.NameError object>"
p53
sS'__hash__'
p54
S"<method-wrapper '__hash__' of exceptions.NameError object>"
p55
ssS'evalue'
p56
S"name 'material_pred' is not defined"
p57
sS'request'
p58
cgluon.html
XML_unpickle
p59
(S's\x02c\x00\x00<div><table><tr><td style="font-weight:bold;vertical-align:top;">ajax</td><td style="vertical-align:top;">:</td><td><div>False</div></td></tr><tr><td style="font-weight:bold;vertical-align:top;">application</td><td style="vertical-align:top;">:</td><td><div>sigulab2</div></td></tr><tr><td style="font-weight:bold;vertical-align:top;">args</td><td style="vertical-align:top;">:</td><td><div><table></table></div></td></tr><tr><td style="font-weight:bold;vertical-align:top;">cid</td><td style="vertical-align:top;">:</td><td><div>None</div></td></tr><tr><td style="font-weight:bold;vertical-align:top;">client</td><td style="vertical-align:top;">:</td><td><div>127.0.0.1</div></td></tr><tr><td style="font-weight:bold;vertical-align:top;">controller</td><td style="vertical-align:top;">:</td><td><div>inventarios</div></td></tr><tr><td style="font-weight:bold;vertical-align:top;">cookies</td><td style="vertical-align:top;">:</td><td><div><table><tr><td style="font-weight:bold;vertical-align:top;">csrftoken</td><td style="vertical-align:top;">:</td><td><div>J2kA0yMUTTe8cUZwYgZmKFGMt1vAqsegvlpyjhmzwgemcplSpecVPzjr46cHImSP<table><tr><td style="font-weight:bold;vertical-align:top;">comment</td><td style="vertical-align:top;">:</td><td><div></div></td></tr><tr><td style="font-weight:bold;vertical-align:top;">domain</td><td style="vertical-align:top;">:</td><td><div></div></td></tr><tr><td style="font-weight:bold;vertical-align:top;">expires</td><td style="vertical-align:top;">:</td><td><div></div></td></tr><tr><td style="font-weight:bold;vertical-align:top;">httponly</td><td style="vertical-align:top;">:</td><td><div></div></td></tr><tr><td style="font-weight:bold;vertical-align:top;">max-age</td><td style="vertical-align:top;">:</td><td><div></div></td></tr><tr><td style="font-weight:bold;vertical-align:top;">path</td><td style="vertical-align:top;">:</td><td><div></div></td></tr><tr><td style="font-weight:bold;vertical-align:top;">secure</td><td style="vertical-align:top;">:</td><td><div></div></td></tr><tr><td style="font-weight:bold;vertical-align:top;">version</td><td style="vertical-align:top;">:</td><td><div></div></td></tr></table></div></td></tr><tr><td style="font-weight:bold;vertical-align:top;">session_id_admin</td><td style="vertical-align:top;">:</td><td><div>127.0.0.1-ab3d3e1a-a1d0-4d9a-8f7d-dd6378eff90f<table><tr><td style="font-weight:bold;vertical-align:top;">comment</td><td style="vertical-align:top;">:</td><td><div></div></td></tr><tr><td style="font-weight:bold;vertical-align:top;">domain</td><td style="vertical-align:top;">:</td><td><div></div></td></tr><tr><td style="font-weight:bold;vertical-align:top;">expires</td><td style="vertical-align:top;">:</td><td><div></div></td></tr><tr><td style="font-weight:bold;vertical-align:top;">httponly</td><td style="vertical-align:top;">:</td><td><div></div></td></tr><tr><td style="font-weight:bold;vertical-align:top;">max-age</td><td style="vertical-align:top;">:</td><td><div></div></td></tr><tr><td style="font-weight:bold;vertical-align:top;">path</td><td style="vertical-align:top;">:</td><td><div></div></td></tr><tr><td style="font-weight:bold;vertical-align:top;">secure</td><td style="vertical-align:top;">:</td><td><div></div></td></tr><tr><td style="font-weight:bold;vertical-align:top;">version</td><td style="vertical-align:top;">:</td><td><div></div></td></tr></table></div></td></tr><tr><td style="font-weight:bold;vertical-align:top;">session_id_sigulab2</td><td style="vertical-align:top;">:</td><td><div>127.0.0.1-6303800f-236c-4eb2-ae3b-8a282a2fc9f7<table><tr><td style="font-weight:bold;vertical-align:top;">comment</td><td style="vertical-align:top;">:</td><td><div></div></td></tr><tr><td style="font-weight:bold;vertical-align:top;">domain</td><td style="vertical-align:top;">:</td><td><div></div></td></tr><tr><td style="font-weight:bold;vertical-align:top;">expires</td><td style="vertical-align:top;">:</td><td><div></div></td></tr><tr><td style="font-weight:bold;vertical-align:top;">httponly</td><td style="vertical-align:top;">:</td><td><div></div></td></tr><tr><td style="font-weight:bold;vertical-align:top;">max-age</td><td style="vertical-align:top;">:</td><td><div></div></td></tr><tr><td style="font-weight:bold;vertical-align:top;">path</td><td style="vertical-align:top;">:</td><td><div></div></td></tr><tr><td style="font-weight:bold;vertical-align:top;">secure</td><td style="vertical-align:top;">:</td><td><div></div></td></tr><tr><td style="font-weight:bold;vertical-align:top;">version</td><td style="vertical-align:top;">:</td><td><div></div></td></tr></table></div></td></tr><tr><td style="font-weight:bold;vertical-align:top;">session_id_welcome</td><td style="vertical-align:top;">:</td><td><div>127.0.0.1-2c4df534-1015-463b-bcb6-d8b2cde83bc6<table><tr><td style="font-weight:bold;vertical-align:top;">comment</td><td style="vertical-align:top;">:</td><td><div></div></td></tr><tr><td style="font-weight:bold;vertical-align:top;">domain</td><td style="vertical-align:top;">:</td><td><div></div></td></tr><tr><td style="font-weight:bold;vertical-align:top;">expires</td><td style="vertical-align:top;">:</td><td><div></div></td></tr><tr><td style="font-weight:bold;vertical-align:top;">httponly</td><td style="vertical-align:top;">:</td><td><div></div></td></tr><tr><td style="font-weight:bold;vertical-align:top;">max-age</td><td style="vertical-align:top;">:</td><td><div></div></td></tr><tr><td style="font-weight:bold;vertical-align:top;">path</td><td style="vertical-align:top;">:</td><td><div></div></td></tr><tr><td style="font-weight:bold;vertical-align:top;">secure</td><td style="vertical-align:top;">:</td><td><div></div></td></tr><tr><td style="font-weight:bold;vertical-align:top;">version</td><td style="vertical-align:top;">:</td><td><div></div></td></tr></table></div></td></tr></table></div></td></tr><tr><td style="font-weight:bold;vertical-align:top;">env</td><td style="vertical-align:top;">:</td><td><div><table><tr><td style="font-weight:bold;vertical-align:top;">HTTP_ACCEPT</td><td style="vertical-align:top;">:</td><td><div>text/html,application/xhtml+xml,application/xml;q=0.9,image/webp,image/apng,*/*;q=0.8</div></td></tr><tr><td style="font-weight:bold;vertical-align:top;">HTTP_ACCEPT_ENCODING</td><td style="vertical-align:top;">:</td><td><div>gzip, deflate, br</div></td></tr><tr><td style="font-weight:bold;vertical-align:top;">HTTP_ACCEPT_LANGUAGE</td><td style="vertical-align:top;">:</td><td><div>es-ES,es;q=0.9,en;q=0.8</div></td></tr><tr><td style="font-weight:bold;vertical-align:top;">HTTP_CACHE_CONTROL</td><td style="vertical-align:top;">:</td><td><div>max-age=0</div></td></tr><tr><td style="font-weight:bold;vertical-align:top;">HTTP_CONNECTION</td><td style="vertical-align:top;">:</td><td><div>keep-alive</div></td></tr><tr><td style="font-weight:bold;vertical-align:top;">HTTP_COOKIE</td><td style="vertical-align:top;">:</td><td><div>csrftoken=J2kA0yMUTTe8cUZwYgZmKFGMt1vAqsegvlpyjhmzwgemcplSpecVPzjr46cHImSP; session_id_admin=127.0.0.1-ab3d3e1a-a1d0-4d9a-8f7d-dd6378eff90f; session_id_sigulab2=127.0.0.1-6303800f-236c-4eb2-ae3b-8a282a2fc9f7; session_id_welcome=127.0.0.1-2c4df534-1015-463b-bcb6-d8b2cde83bc6</div></td></tr><tr><td style="font-weight:bold;vertical-align:top;">HTTP_HOST</td><td style="vertical-align:top;">:</td><td><div>127.0.0.1:8000</div></td></tr><tr><td style="font-weight:bold;vertical-align:top;">HTTP_REFERER</td><td style="vertical-align:top;">:</td><td><div>http://127.0.0.1:8000/sigulab2/inventarios/bienes_muebles?dependencia=1&amp;es_espacio=True</div></td></tr><tr><td style="font-weight:bold;vertical-align:top;">HTTP_UPGRADE_INSECURE_REQUESTS</td><td style="vertical-align:top;">:</td><td><div>1</div></td></tr><tr><td style="font-weight:bold;vertical-align:top;">HTTP_USER_AGENT</td><td style="vertical-align:top;">:</td><td><div>Mozilla/5.0 (X11; Linux i686) AppleWebKit/537.36 (KHTML, like Gecko) Ubuntu Chromium/65.0.3325.181 Chrome/65.0.3325.181 Safari/537.36</div></td></tr><tr><td style="font-weight:bold;vertical-align:top;">PATH_INFO</td><td style="vertical-align:top;">:</td><td><div>/sigulab2/inventarios/detalles</div></td></tr><tr><td style="font-weight:bold;vertical-align:top;">QUERY_STRING</td><td style="vertical-align:top;">:</td><td><div>bm=123456</div></td></tr><tr><td style="font-weight:bold;vertical-align:top;">REMOTE_ADDR</td><td style="vertical-align:top;">:</td><td><div>127.0.0.1</div></td></tr><tr><td style="font-weight:bold;vertical-align:top;">REMOTE_PORT</td><td style="vertical-align:top;">:</td><td><div>38567</div></td></tr><tr><td style="font-weight:bold;vertical-align:top;">REQUEST_METHOD</td><td style="vertical-align:top;">:</td><td><div>GET</div></td></tr><tr><td style="font-weight:bold;vertical-align:top;">SCRIPT_NAME</td><td style="vertical-align:top;">:</td><td><div></div></td></tr><tr><td style="font-weight:bold;vertical-align:top;">SERVER_NAME</td><td style="vertical-align:top;">:</td><td><div>sandra-VIT</div></td></tr><tr><td style="font-weight:bold;vertical-align:top;">SERVER_PORT</td><td style="vertical-align:top;">:</td><td><div>8000</div></td></tr><tr><td style="font-weight:bold;vertical-align:top;">SERVER_PROTOCOL</td><td style="vertical-align:top;">:</td><td><div>HTTP/1.1</div></td></tr><tr><td style="font-weight:bold;vertical-align:top;">SERVER_SOFTWARE</td><td style="vertical-align:top;">:</td><td><div>Rocket 1.2.6</div></td></tr><tr><td style="font-weight:bold;vertical-align:top;">app_folders</td><td style="vertical-align:top;">:</td><td><div>set([&#x27;/home/sandra/Documents/web2py/applications/sigulab2/&#x27;])</div></td></tr><tr><td style="font-weight:bold;vertical-align:top;">applications_parent</td><td style="vertical-align:top;">:</td><td><div>/home/sandra/Documents/web2py</div></td></tr><tr><td style="font-weight:bold;vertical-align:top;">cmd_args</td><td style="vertical-align:top;">:</td><td><div><table></table></div></td></tr><tr><td style="font-weight:bold;vertical-align:top;">cmd_options</td><td style="vertical-align:top;">:</td><td><div>&lt;Values at 0xb6217f8c: {&#x27;verbose&#x27;: False, &#x27;ip&#x27;: &#x27;127.0.0.1&#x27;, &#x27;debuglevel&#x27;: 30, &#x27;with_scheduler&#x27;: False, &#x27;shutdown_timeout&#x27;: 5, &#x27;taskbar&#x27;: False, &#x27;with_coverage&#x27;: False, &#x27;pid_filename&#x27;: &#x27;httpserver.pid&#x27;, &#x27;maxthreads&#x27;: None, &#x27;softcron&#x27;: False, &#x27;server_name&#x27;: &#x27;sandra-VIT&#x27;, &#x27;bpython&#x27;: False, &#x27;nogui&#x27;: False, &#x27;port&#x27;: 8000, &#x27;print_errors&#x27;: False, &#x27;extcron&#x27;: False, &#x27;runcron&#x27;: False, &#x27;run_system_tests&#x27;: False, &#x27;test&#x27;: None, &#x27;folder&#x27;: &#x27;/home/sandra/Documents/web2py&#x27;, &#x27;config&#x27;: &#x27;&#x27;, &#x27;minthreads&#x27;: None, &#x27;shell&#x27;: None, &#x27;run&#x27;: &#x27;&#x27;, &#x27;log_filename&#x27;: &#x27;httpserver.log&#x27;, &#x27;profiler_dir&#x27;: None, &#x27;args&#x27;: [&#x27;&#x27;], &#x27;socket_timeout&#x27;: 5, &#x27;ssl_ca_certificate&#x27;: None, &#x27;scheduler&#x27;: None, &#x27;interfaces&#x27;: None, &#x27;ssl_private_key&#x27;: &#x27;&#x27;, &#x27;gae&#x27;: None, &#x27;password&#x27;: &#x27;******&#x27;, &#x27;request_queue_size&#x27;: 5, &#x27;ssl_certificate&#x27;: &#x27;&#x27;, &#x27;cronjob&#x27;: False, &#x27;numthreads&#x27;: None, &#x27;quiet&#x27;: False, &#x27;import_models&#x27;: False, &#x27;timeout&#x27;: 10, &#x27;plain&#x27;: False, &#x27;nobanner&#x27;: False}&gt;</div></td></tr><tr><td style="font-weight:bold;vertical-align:top;">db_sessions</td><td style="vertical-align:top;">:</td><td><div>set([])</div></td></tr><tr><td style="font-weight:bold;vertical-align:top;">debugging</td><td style="vertical-align:top;">:</td><td><div>False</div></td></tr><tr><td style="font-weight:bold;vertical-align:top;">gluon_parent</td><td style="vertical-align:top;">:</td><td><div>/home/sandra/Documents/web2py</div></td></tr><tr><td style="font-weight:bold;vertical-align:top;">http_accept</td><td style="vertical-align:top;">:</td><td><div>text/html,application/xhtml+xml,application/xml;q=0.9,image/webp,image/apng,*/*;q=0.8</div></td></tr><tr><td style="font-weight:bold;vertical-align:top;">http_accept_encoding</td><td style="vertical-align:top;">:</td><td><div>gzip, deflate, br</div></td></tr><tr><td style="font-weight:bold;vertical-align:top;">http_accept_language</td><td style="vertical-align:top;">:</td><td><div>es-ES,es;q=0.9,en;q=0.8</div></td></tr><tr><td style="font-weight:bold;vertical-align:top;">http_cache_control</td><td style="vertical-align:top;">:</td><td><div>max-age=0</div></td></tr><tr><td style="font-weight:bold;vertical-align:top;">http_connection</td><td style="vertical-align:top;">:</td><td><div>keep-alive</div></td></tr><tr><td style="font-weight:bold;vertical-align:top;">http_cookie</td><td style="vertical-align:top;">:</td><td><div>csrftoken=J2kA0yMUTTe8cUZwYgZmKFGMt1vAqsegvlpyjhmzwgemcplSpecVPzjr46cHImSP; session_id_admin=127.0.0.1-ab3d3e1a-a1d0-4d9a-8f7d-dd6378eff90f; session_id_sigulab2=127.0.0.1-6303800f-236c-4eb2-ae3b-8a282a2fc9f7; session_id_welcome=127.0.0.1-2c4df534-1015-463b-bcb6-d8b2cde83bc6</div></td></tr><tr><td style="font-weight:bold;vertical-align:top;">http_host</td><td style="vertical-align:top;">:</td><td><div>127.0.0.1:8000</div></td></tr><tr><td style="font-weight:bold;vertical-align:top;">http_referer</td><td style="vertical-align:top;">:</td><td><div>http://127.0.0.1:8000/sigulab2/inventarios/bienes_muebles?dependencia=1&amp;es_espacio=True</div></td></tr><tr><td style="font-weight:bold;vertical-align:top;">http_upgrade_insecure_requests</td><td style="vertical-align:top;">:</td><td><div>1</div></td></tr><tr><td style="font-weight:bold;vertical-align:top;">http_user_agent</td><td style="vertical-align:top;">:</td><td><div>Mozilla/5.0 (X11; Linux i686) AppleWebKit/537.36 (KHTML, like Gecko) Ubuntu Chromium/65.0.3325.181 Chrome/65.0.3325.181 Safari/537.36</div></td></tr><tr><td style="font-weight:bold;vertical-align:top;">is_jython</td><td style="vertical-align:top;">:</td><td><div>False</div></td></tr><tr><td style="font-weight:bold;vertical-align:top;">is_py2</td><td style="vertical-align:top;">:</td><td><div>True</div></td></tr><tr><td style="font-weight:bold;vertical-align:top;">is_pypy</td><td style="vertical-align:top;">:</td><td><div>False</div></td></tr><tr><td style="font-weight:bold;vertical-align:top;">is_source</td><td style="vertical-align:top;">:</td><td><div>True</div></td></tr><tr><td style="font-weight:bold;vertical-align:top;">local_hosts</td><td style="vertical-align:top;">:</td><td><div><table><tr><td><div>sandra-VIT</div></td></tr><tr><td><div>::1</div></td></tr><tr><td><div>127.0.1.1</div></td></tr><tr><td><div>::ffff:127.0.0.1</div></td></tr><tr><td><div>127.0.0.1</div></td></tr></table></div></td></tr><tr><td style="font-weight:bold;vertical-align:top;">path_info</td><td style="vertical-align:top;">:</td><td><div>/sigulab2/inventarios/detalles</div></td></tr><tr><td style="font-weight:bold;vertical-align:top;">query_string</td><td style="vertical-align:top;">:</td><td><div>bm=123456</div></td></tr><tr><td style="font-weight:bold;vertical-align:top;">remote_addr</td><td style="vertical-align:top;">:</td><td><div>127.0.0.1</div></td></tr><tr><td style="font-weight:bold;vertical-align:top;">remote_port</td><td style="vertical-align:top;">:</td><td><div>38567</div></td></tr><tr><td style="font-weight:bold;vertical-align:top;">request_method</td><td style="vertical-align:top;">:</td><td><div>GET</div></td></tr><tr><td style="font-weight:bold;vertical-align:top;">request_uri</td><td style="vertical-align:top;">:</td><td><div>/sigulab2/inventarios/detalles?bm=123456</div></td></tr><tr><td style="font-weight:bold;vertical-align:top;">script_name</td><td style="vertical-align:top;">:</td><td><div></div></td></tr><tr><td style="font-weight:bold;vertical-align:top;">server_name</td><td style="vertical-align:top;">:</td><td><div>sandra-VIT</div></td></tr><tr><td style="font-weight:bold;vertical-align:top;">server_port</td><td style="vertical-align:top;">:</td><td><div>8000</div></td></tr><tr><td style="font-weight:bold;vertical-align:top;">server_protocol</td><td style="vertical-align:top;">:</td><td><div>HTTP/1.1</div></td></tr><tr><td style="font-weight:bold;vertical-align:top;">server_software</td><td style="vertical-align:top;">:</td><td><div>Rocket 1.2.6</div></td></tr><tr><td style="font-weight:bold;vertical-align:top;">web2py_path</td><td style="vertical-align:top;">:</td><td><div>/home/sandra/Documents/web2py</div></td></tr><tr><td style="font-weight:bold;vertical-align:top;">web2py_version</td><td style="vertical-align:top;">:</td><td><div>2.16.1-stable+timestamp.2017.11.14.05.54.25</div></td></tr><tr><td style="font-weight:bold;vertical-align:top;">wsgi.errors</td><td style="vertical-align:top;">:</td><td><div>&lt;open file &#x27;&lt;stderr&gt;&#x27;, mode &#x27;w&#x27; at 0xb74950d0&gt;</div></td></tr><tr><td style="font-weight:bold;vertical-align:top;">wsgi.file_wrapper</td><td style="vertical-align:top;">:</td><td><div>&lt;class wsgiref.util.FileWrapper at 0xb6248b3c&gt;</div></td></tr><tr><td style="font-weight:bold;vertical-align:top;">wsgi.input</td><td style="vertical-align:top;">:</td><td><div>&lt;socket._fileobject object at 0xaea6e06c&gt;</div></td></tr><tr><td style="font-weight:bold;vertical-align:top;">wsgi.multiprocess</td><td style="vertical-align:top;">:</td><td><div>False</div></td></tr><tr><td style="font-weight:bold;vertical-align:top;">wsgi.multithread</td><td style="vertical-align:top;">:</td><td><div>True</div></td></tr><tr><td style="font-weight:bold;vertical-align:top;">wsgi.run_once</td><td style="vertical-align:top;">:</td><td><div>False</div></td></tr><tr><td style="font-weight:bold;vertical-align:top;">wsgi.url_scheme</td><td style="vertical-align:top;">:</td><td><div>http</div></td></tr><tr><td style="font-weight:bold;vertical-align:top;">wsgi.version</td><td style="vertical-align:top;">:</td><td><div><table><tr><td><div>1</div></td></tr><tr><td><div>0</div></td></tr></table></div></td></tr><tr><td style="font-weight:bold;vertical-align:top;">wsgi_errors</td><td style="vertical-align:top;">:</td><td><div>&lt;open file &#x27;&lt;stderr&gt;&#x27;, mode &#x27;w&#x27; at 0xb74950d0&gt;</div></td></tr><tr><td style="font-weight:bold;vertical-align:top;">wsgi_file_wrapper</td><td style="vertical-align:top;">:</td><td><div>&lt;class wsgiref.util.FileWrapper at 0xb6248b3c&gt;</div></td></tr><tr><td style="font-weight:bold;vertical-align:top;">wsgi_input</td><td style="vertical-align:top;">:</td><td><div>&lt;socket._fileobject object at 0xaea6e06c&gt;</div></td></tr><tr><td style="font-weight:bold;vertical-align:top;">wsgi_multiprocess</td><td style="vertical-align:top;">:</td><td><div>False</div></td></tr><tr><td style="font-weight:bold;vertical-align:top;">wsgi_multithread</td><td style="vertical-align:top;">:</td><td><div>True</div></td></tr><tr><td style="font-weight:bold;vertical-align:top;">wsgi_run_once</td><td style="vertical-align:top;">:</td><td><div>False</div></td></tr><tr><td style="font-weight:bold;vertical-align:top;">wsgi_url_scheme</td><td style="vertical-align:top;">:</td><td><div>http</div></td></tr><tr><td style="font-weight:bold;vertical-align:top;">wsgi_version</td><td style="vertical-align:top;">:</td><td><div><table><tr><td><div>1</div></td></tr><tr><td><div>0</div></td></tr></table></div></td></tr></table></div></td></tr><tr><td style="font-weight:bold;vertical-align:top;">extension</td><td style="vertical-align:top;">:</td><td><div>html</div></td></tr><tr><td style="font-weight:bold;vertical-align:top;">folder</td><td style="vertical-align:top;">:</td><td><div>/home/sandra/Documents/web2py/applications/sigulab2/</div></td></tr><tr><td style="font-weight:bold;vertical-align:top;">function</td><td style="vertical-align:top;">:</td><td><div>detalles</div></td></tr><tr><td style="font-weight:bold;vertical-align:top;">global_settings</td><td style="vertical-align:top;">:</td><td><div><table><tr><td style="font-weight:bold;vertical-align:top;">app_folders</td><td style="vertical-align:top;">:</td><td><div>set([&#x27;/home/sandra/Documents/web2py/applications/sigulab2/&#x27;])</div></td></tr><tr><td style="font-weight:bold;vertical-align:top;">applications_parent</td><td style="vertical-align:top;">:</td><td><div>/home/sandra/Documents/web2py</div></td></tr><tr><td style="font-weight:bold;vertical-align:top;">cmd_args</td><td style="vertical-align:top;">:</td><td><div><table></table></div></td></tr><tr><td style="font-weight:bold;vertical-align:top;">cmd_options</td><td style="vertical-align:top;">:</td><td><div>&lt;Values at 0xb6217f8c: {&#x27;verbose&#x27;: False, &#x27;ip&#x27;: &#x27;127.0.0.1&#x27;, &#x27;debuglevel&#x27;: 30, &#x27;with_scheduler&#x27;: False, &#x27;shutdown_timeout&#x27;: 5, &#x27;taskbar&#x27;: False, &#x27;with_coverage&#x27;: False, &#x27;pid_filename&#x27;: &#x27;httpserver.pid&#x27;, &#x27;maxthreads&#x27;: None, &#x27;softcron&#x27;: False, &#x27;server_name&#x27;: &#x27;sandra-VIT&#x27;, &#x27;bpython&#x27;: False, &#x27;nogui&#x27;: False, &#x27;port&#x27;: 8000, &#x27;print_errors&#x27;: False, &#x27;extcron&#x27;: False, &#x27;runcron&#x27;: False, &#x27;run_system_tests&#x27;: False, &#x27;test&#x27;: None, &#x27;folder&#x27;: &#x27;/home/sandra/Documents/web2py&#x27;, &#x27;config&#x27;: &#x27;&#x27;, &#x27;minthreads&#x27;: None, &#x27;shell&#x27;: None, &#x27;run&#x27;: &#x27;&#x27;, &#x27;log_filename&#x27;: &#x27;httpserver.log&#x27;, &#x27;profiler_dir&#x27;: None, &#x27;args&#x27;: [&#x27;&#x27;], &#x27;socket_timeout&#x27;: 5, &#x27;ssl_ca_certificate&#x27;: None, &#x27;scheduler&#x27;: None, &#x27;interfaces&#x27;: None, &#x27;ssl_private_key&#x27;: &#x27;&#x27;, &#x27;gae&#x27;: None, &#x27;password&#x27;: &#x27;******&#x27;, &#x27;request_queue_size&#x27;: 5, &#x27;ssl_certificate&#x27;: &#x27;&#x27;, &#x27;cronjob&#x27;: False, &#x27;numthreads&#x27;: None, &#x27;quiet&#x27;: False, &#x27;import_models&#x27;: False, &#x27;timeout&#x27;: 10, &#x27;plain&#x27;: False, &#x27;nobanner&#x27;: False}&gt;</div></td></tr><tr><td style="font-weight:bold;vertical-align:top;">db_sessions</td><td style="vertical-align:top;">:</td><td><div>set([])</div></td></tr><tr><td style="font-weight:bold;vertical-align:top;">debugging</td><td style="vertical-align:top;">:</td><td><div>False</div></td></tr><tr><td style="font-weight:bold;vertical-align:top;">gluon_parent</td><td style="vertical-align:top;">:</td><td><div>/home/sandra/Documents/web2py</div></td></tr><tr><td style="font-weight:bold;vertical-align:top;">is_jython</td><td style="vertical-align:top;">:</td><td><div>False</div></td></tr><tr><td style="font-weight:bold;vertical-align:top;">is_py2</td><td style="vertical-align:top;">:</td><td><div>True</div></td></tr><tr><td style="font-weight:bold;vertical-align:top;">is_pypy</td><td style="vertical-align:top;">:</td><td><div>False</div></td></tr><tr><td style="font-weight:bold;vertical-align:top;">is_source</td><td style="vertical-align:top;">:</td><td><div>True</div></td></tr><tr><td style="font-weight:bold;vertical-align:top;">local_hosts</td><td style="vertical-align:top;">:</td><td><div><table><tr><td><div>sandra-VIT</div></td></tr><tr><td><div>::1</div></td></tr><tr><td><div>127.0.1.1</div></td></tr><tr><td><div>::ffff:127.0.0.1</div></td></tr><tr><td><div>127.0.0.1</div></td></tr></table></div></td></tr><tr><td style="font-weight:bold;vertical-align:top;">web2py_version</td><td style="vertical-align:top;">:</td><td><div>2.16.1-stable+timestamp.2017.11.14.05.54.25</div></td></tr></table></div></td></tr><tr><td style="font-weight:bold;vertical-align:top;">is_https</td><td style="vertical-align:top;">:</td><td><div>False</div></td></tr><tr><td style="font-weight:bold;vertical-align:top;">is_local</td><td style="vertical-align:top;">:</td><td><div>True</div></td></tr><tr><td style="font-weight:bold;vertical-align:top;">is_restful</td><td style="vertical-align:top;">:</td><td><div>False</div></td></tr><tr><td style="font-weight:bold;vertical-align:top;">is_scheduler</td><td style="vertical-align:top;">:</td><td><div>False</div></td></tr><tr><td style="font-weight:bold;vertical-align:top;">is_shell</td><td style="vertical-align:top;">:</td><td><div>False</div></td></tr><tr><td style="font-weight:bold;vertical-align:top;">now</td><td style="vertical-align:top;">:</td><td><div>datetime.datetime(2018, 6, 10, 19, 19, 3, 602975)</div></td></tr><tr><td style="font-weight:bold;vertical-align:top;">raw_args</td><td style="vertical-align:top;">:</td><td><div></div></td></tr><tr><td style="font-weight:bold;vertical-align:top;">raw_extension</td><td style="vertical-align:top;">:</td><td><div>None</div></td></tr><tr><td style="font-weight:bold;vertical-align:top;">url</td><td style="vertical-align:top;">:</td><td><div>/sigulab2/inventarios/detalles</div></td></tr><tr><td style="font-weight:bold;vertical-align:top;">utcnow</td><td style="vertical-align:top;">:</td><td><div>datetime.datetime(2018, 6, 10, 23, 19, 3, 602999)</div></td></tr><tr><td style="font-weight:bold;vertical-align:top;">wsgi</td><td style="vertical-align:top;">:</td><td><div>&lt;gluon.main.LazyWSGI object at 0xae34884c&gt;</div></td></tr></table></div>'
tRp60
sS'frames'
p61
(lp62
(dp63
S'file'
p64
S'/home/sandra/Documents/web2py/gluon/restricted.py'
p65
sS'dump'
p66
(dp67
S'environment'
p68
S"{'A': <class 'gluon.html.A'>, 'ANY_OF': <class 'gluon.validators.ANY_OF'>, 'ASSIGNJS': <function ASSIGNJS>, 'AppConfig': <function AppConfig>, 'Auth': <class 'gluon.tools.Auth'>, 'B': <class 'gluon.html.B'>, 'BEAUTIFY': <class 'gluon.html.BEAUTIFY'>, 'BODY': <class 'gluon.html.BODY'>, 'BR': <class 'gluon.html.BR'>, 'BUTTON': <class 'gluon.html.BUTTON'>, ...}"
p69
sS'ccode'
p70
S'<code object <module> at 0xb1d9b650, file "/home...igulab2/views/inventarios/detalles.html", line 1>'
p71
ssS'lnum'
p72
I219
sS'lines'
p73
(dp74
I214
S'    if environment is None:'
p75
sI215
S'        environment = {}'
p76
sI216
S"    environment['__file__'] = layer"
p77
sI217
S"    environment['__name__'] = '__restricted__'"
p78
sI218
S'    try:'
p79
sI219
S'        exec(ccode, environment)'
p80
sI220
S'    except HTTP:'
p81
sI221
S'        raise'
p82
sI222
S'    except RestrictedError:'
p83
sI223
S'        # do not encapsulate (obfuscate) the original RestrictedError'
p84
ssS'call'
p85
S'(ccode=<code object <module> at 0xb1d9b650, file "/home...igulab2/views/inventarios/detalles.html", line 1>, environment={\'A\': <class \'gluon.html.A\'>, \'ANY_OF\': <class \'gluon.validators.ANY_OF\'>, \'ASSIGNJS\': <function ASSIGNJS>, \'AppConfig\': <function AppConfig>, \'Auth\': <class \'gluon.tools.Auth\'>, \'B\': <class \'gluon.html.B\'>, \'BEAUTIFY\': <class \'gluon.html.BEAUTIFY\'>, \'BODY\': <class \'gluon.html.BODY\'>, \'BR\': <class \'gluon.html.BR\'>, \'BUTTON\': <class \'gluon.html.BUTTON\'>, ...}, layer=\'/home/sandra/Documents/web2py/applications/sigulab2/views/inventarios/detalles.html\', scode=\'response.write(\\\'<!DOCTYPE html>\\\\n<html lang="es"...n  }\\\\n</script>\\\\n</body>\\\\n</html>\\\', escape=False)\')'
p86
sS'func'
p87
S'restricted'
p88
sa(dp89
g64
S'/home/sandra/Documents/web2py/applications/sigulab2/views/inventarios/detalles.html'
p90
sg66
(dp91
S'bien'
p92
S"<Row {'bm_espacio_fisico': 1L, 'bm_unidad_de_ads... 'a', 'bm_estatus': 'Operativo', 'bm_placa': ''}>"
p93
sS'Marca'
p94
S'undefined'
p95
sS'h4'
p96
g95
ssg72
I152
sg73
(dp97
I160
S'for color in color_list:'
p98
sI161
S'    response.write(\'\\n                                <option value="\', escape=False)'
p99
sI162
S'    response.write(color)'
p100
sI143
S"response.write(' </h4>\\n                <h4>Categoria: ', escape=False)"
p101
sI144
S"response.write(bien['bm_categoria'])"
p102
sI145
S'response.write(\' </h4>\\n        </div>\\n\\n\\t\\t<div id="tab-3"class="tab-content">En desarrollo</div>\\n        <div id="tab-4"class="tab-content">\\n            <h4> Espacio f\\xc3\\xadsico : \', escape=False)'
p103
sI146
S"response.write(bien['bm_espacio_fisico'])"
p104
sI147
S"response.write(' </h4>\\n            <h4> Unidad de Adscripci\\xc3\\xb3n : ', escape=False)"
p105
sI148
S"response.write(bien['bm_unidad_de_adscripcion'])"
p106
sI149
S"response.write(' </h4>\\n            <h4> Dependencia : ', escape=False)"
p107
sI150
S"response.write(bien['bm_depedencia'])"
p108
sI151
S'response.write(\' </h4>\\n        </div>\\n\\t\\t<div id="tab-5"class="tab-content">En Desarrollo</div>\\n\\t\\t<div id="tab-6"class="tab-content">En desarrollo</div>\\n\\t\\t<div id="tab-7"class="tab-content">En desarrollo</div>\\n\\n\\n\\n\\t</div>\\n\\t\\n</div>\\n\\n\\n<!-- Modal modificar un BM nuevo al inventario -->\\n<div class="modal fade" id="addbm" role="dialog">\\n  <div class="modal-dialog">\\n\\n    <!-- Modal content-->\\n    <div class="modal-content">\\n\\n      <!-- Modal Header -->\\n      <div class="modal-header addHeader">\\n        <div class="row addRow" id="rowHeader">\\n          <div class="col-sm-1" id="col1Header">\\n            <div class="container" id="plus">\\n              <h1 id="agregar">+</h1>\\n            </div>\\n          </div>\\n          <div class="col-sm-11" id="col11Header">\\n            <h4 class="modal-title" id="nuevaBien" style="\\n              text-align: left;\\n              padding-top: 12px;\\n              color: white;\\n            ">Bien Mueble<button type="button" class="close" data-dismiss="modal">&times;</button>\\n            </h4>\\n          </div>\\n        </div>\\n      </div>\\n      <!-- Fin Modal Header -->\\n      \\n      <!-- Modal Body -->\\n      <div class="modal-body addBody">\\n        <div class="row addRow">\\n          <div class="col-md-12 form-box">\\n              <form id="formularioCarga" class="registration-form" method="post" onsubmit="return validar_campos()">\\n\\n            <!-- Primer paso-->\\n            <fieldset class="formField">\\n                <div class="form-bottom" data-step="1" data-title="Primer Paso">\\n                  <!-- Barra lateral gris (vacia en este caso, pues no hay pasos) -->\\n                  <div class="col-sm-1 col1Body"> \\n                    <span class="step activePass">1</span>\\n                    <span class="step">2</span>\\n                    <span class="step">3</span>\\n                    <span class="step">4</span>\\n                  </div>\\n                  <!-- Aqui va la informacion -->\\n                  <div class="col-sm-11 col11Body">\\n                    <h4 class="titulosForm">Caracter\\xc3\\xadsticas del Bien</h4>                \\n                    <label>Campos marcados con * son obligatorios.</label>\\n\\n                    <div class="form-group">\\n                        <label>Seleccione la clasificaci\\xc3\\xb3n del Bien Mueble*</label>\\n                        <select class="form-control" type="select" id="clasificacion" name="clasificacion" placeholder="Clasificaci\\xc3\\xb3n" required>\\n                          <option value="">Seleccione una opci\\xc3\\xb3n</option>\\n                          <option value="Equipo">Equipo</option>\\n                          <option value="Mobilario">Mobilario</option>\\n                        </select>\\n                        <div class="field-error"> <p id="error-clasificacion"></p></div>\\n                      </div>\\n                  </div>\\n                </div>\\n                <button type="button" class="btn btn-next botonForm" onclick="elegir_campos()">Siguiente</button>    \\n            </fieldset>\\n          \\n                \\n                <!-- Segundo paso-->\\n                <fieldset class="formField">\\n                  <div class="form-bottom" data-step="2" data-title="Segundo Paso">\\n                    <!-- Barra lateral gris (vacia en este caso, pues no hay pasos) -->\\n                    <div class="col-sm-1 col1Body"> \\n                      <span class="step">1</span>\\n                      <span class="step activePass">2</span>\\n                      <span class="step">3</span>\\n                      <span class="step">4</span>\\n                    </div>\\n                    <!-- Aqui va la informacion -->\\n                    <div class="col-sm-11 col11Body">\\n                      <h4 class="titulosForm">Caracter\\xc3\\xadsticas del Bien</h4>                \\n                      <label>Campos marcados con * son obligatorios.</label>\\n\\n\\n                        <div class="form-group" tag="Formato:">\\n                            <input type="text" class="form-control" id="nombre" name="nombre" title="Ingrese el nombre del Bien Mueble" placeholder="Nombre*"  required>\\n                            <div class="field-error"> <p id="error-nombre"> </p> </div>\\n                        </div>\\n\\n                        <div class="form-group">\\n                            <input type="text" class="form-control" id="no_bien" name="no_bien" placeholder="N\\xc3\\xbamero de Bien Nacional*" title="Formato: ###### (6 d\\xc3\\xadgitos)"   required>\\n                            <font color="red"><div id="err_no_bien" hidden></div></font>\\n                        </div>\\n\\n                        <div class="form-group">\\n                            <input type="text" class="form-control" id="no_placa" name="no_placa" title="Formato: ##### (5 d\\xc3\\xadgitos)" placeholder="N\\xc2\\xb0 de placa">\\n                            <font color="red"><div id="err_placa" hidden></div></font>\\n                        </div>\\n\\n                        <div class="form-group">\\n                            <input type="text" class="form-control"  id="marca" name="marca" placeholder="Marca*" required >\\n                            <div class="field-error"> <p id="error-marca"> </p> </div>\\n                        </div>\\n\\n                        <div class="form-group">\\n                            <input type="text" class="form-control" id="modelo" name="modelo" value="" placeholder="Modelo*" required>\\n                            <div class="field-error"> <p id="error-modelo"> </p> </div>\\n                        </div>\\n\\n                        <div class="form-group">\\n                            <input type="text" class="form-control" id="serial" name="serial" placeholder="Serial*" required>\\n                            <div class="field-error"> <p id="error-serial"> </p> </div>\\n                          </div>\\n                        \\n                          <div class="form-group">\\n                            <input type="text" class="form-control" id="Descripcion" name="descripcion" placeholder="Descripci\\xc3\\xb3n*" required>\\n                            <div class="field-error"> <p id="error-est-descripcion"> </p> </div>\\n                        </div>\\n                        \\n                    </div>\\n                  </div>\\n                  <button type="button" class="btn btn-previous botonForm">Anterior</button>\\n                  <button type="button" class="btn btn-next botonForm">Siguiente</button>         \\n                </fieldset>\\n                <!-- Fin Segundo Paso -->\\n\\n                <!-- Tercer paso Parte 3-->\\n                <fieldset class="formField">\\n                    <div class="form-bottom" data-step="3" data-title="Tercer Paso">\\n                      <!-- Barra lateral gris (vacia en este caso, pues no hay pasos) -->\\n                      <div class="col-sm-1 col1Body"> \\n                        <span class="step">1</span>\\n                        <span class="step">2</span>\\n                        <span class="step activePass">3</span>\\n                        <span class="step">4</span>\\n                      </div>\\n                      <!-- Aqui va la informacion -->\\n                      <div class="col-sm-11 col11Body">\\n                        <h4 class="titulosForm">Caracter\\xc3\\xadsticas del Bien</h4>                \\n                        <label>Campos marcados con * son obligatorios.</label>\\n  \\n\\n                          \\n                          <div class="form-group">\\n                              <select class="form-control" type="select" id="material" name="material" placeholder="Material predominante" required>\\n                                <!-- Insertar un for-->\\n                                <option type="text" value="">Selecione un material*</option>\\n                                \', escape=False)'
p109
sI152
S'for material in material_pred:'
p110
sI153
S'    response.write(\'\\n                                <option value="\', escape=False)'
p111
sI154
S'    response.write(material)'
p112
sI155
S'    response.write(\'">\', escape=False)'
p113
sI156
S'    response.write(material)'
p114
sI157
S"    response.write('</option>\\n                                ', escape=False)"
p115
sI158
S'    pass'
p116
sI159
S'response.write(\'\\n                              </select>\\n                              <div class="field-error"> <p id="error-material"> </p> </div>\\n                          </div>\\n\\n  \\n  \\n                          <div class="form-group">\\n                              <select class="form-control" type="select" id="color" name="color" placeholder="Color" required>\\n                                <option value="">Selecione un color*</option>\\n                                \', escape=False)'
p117
ssg85
S'()'
p118
sg87
S'<module>'
p119
sasS'pyver'
p120
S'Python 2.7.6: /usr/bin/python (prefix: /usr)'
p121
sS'session'
p122
g59
(S's\x0c\t\x00\x00<div><table><tr><td style="font-weight:bold;vertical-align:top;">auth</td><td style="vertical-align:top;">:</td><td><div><table><tr><td style="font-weight:bold;vertical-align:top;">expiration</td><td style="vertical-align:top;">:</td><td><div>3600</div></td></tr><tr><td style="font-weight:bold;vertical-align:top;">hmac_key</td><td style="vertical-align:top;">:</td><td><div>8ac71d7a-073b-4fd6-a752-682b88b2b50e</div></td></tr><tr><td style="font-weight:bold;vertical-align:top;">last_visit</td><td style="vertical-align:top;">:</td><td><div>datetime.datetime(2018, 6, 10, 19, 17, 28, 40191)</div></td></tr><tr><td style="font-weight:bold;vertical-align:top;">user</td><td style="vertical-align:top;">:</td><td><div><table><tr><td style="font-weight:bold;vertical-align:top;">email</td><td style="vertical-align:top;">:</td><td><div>sigulabusb@gmail.com</div></td></tr><tr><td style="font-weight:bold;vertical-align:top;">first_name</td><td style="vertical-align:top;">:</td><td><div>Super Usuario</div></td></tr><tr><td style="font-weight:bold;vertical-align:top;">id</td><td style="vertical-align:top;">:</td><td><div>1L</div></td></tr><tr><td style="font-weight:bold;vertical-align:top;">last_name</td><td style="vertical-align:top;">:</td><td><div></div></td></tr><tr><td style="font-weight:bold;vertical-align:top;">registration_id</td><td style="vertical-align:top;">:</td><td><div></div></td></tr><tr><td style="font-weight:bold;vertical-align:top;">registration_key</td><td style="vertical-align:top;">:</td><td><div></div></td></tr><tr><td style="font-weight:bold;vertical-align:top;">reset_password_key</td><td style="vertical-align:top;">:</td><td><div></div></td></tr></table></div></td></tr><tr><td style="font-weight:bold;vertical-align:top;">user_groups</td><td style="vertical-align:top;">:</td><td><div><table><tr><td style="font-weight:bold;vertical-align:top;">1</td><td style="vertical-align:top;">:</td><td><div>WEBMASTER</div></td></tr></table></div></td></tr></table></div></td></tr><tr><td style="font-weight:bold;vertical-align:top;">last_orderby</td><td style="vertical-align:top;">:</td><td><div>None</div></td></tr><tr><td style="font-weight:bold;vertical-align:top;">last_query</td><td style="vertical-align:top;">:</td><td><div>db.espacios_fisicos.id&gt;0</div></td></tr></table></div>'
tRp123
sS'etype'
p124
S"<type 'exceptions.NameError'>"
p125
sS'date'
p126
S'Sun Jun 10 19:19:03 2018'
p127
sS'response'
p128
g59
(S's\xc4?\x00\x00<div><table><tr><td style="font-weight:bold;vertical-align:top;">body</td><td style="vertical-align:top;">:</td><td><div>&lt;cStringIO.StringO object at 0xb27ac180&gt;</div></td></tr><tr><td style="font-weight:bold;vertical-align:top;">cookies</td><td style="vertical-align:top;">:</td><td><div><table><tr><td style="font-weight:bold;vertical-align:top;">session_id_sigulab2</td><td style="vertical-align:top;">:</td><td><div>127.0.0.1-6303800f-236c-4eb2-ae3b-8a282a2fc9f7<table><tr><td style="font-weight:bold;vertical-align:top;">comment</td><td style="vertical-align:top;">:</td><td><div></div></td></tr><tr><td style="font-weight:bold;vertical-align:top;">domain</td><td style="vertical-align:top;">:</td><td><div></div></td></tr><tr><td style="font-weight:bold;vertical-align:top;">expires</td><td style="vertical-align:top;">:</td><td><div></div></td></tr><tr><td style="font-weight:bold;vertical-align:top;">httponly</td><td style="vertical-align:top;">:</td><td><div></div></td></tr><tr><td style="font-weight:bold;vertical-align:top;">max-age</td><td style="vertical-align:top;">:</td><td><div></div></td></tr><tr><td style="font-weight:bold;vertical-align:top;">path</td><td style="vertical-align:top;">:</td><td><div>/</div></td></tr><tr><td style="font-weight:bold;vertical-align:top;">secure</td><td style="vertical-align:top;">:</td><td><div></div></td></tr><tr><td style="font-weight:bold;vertical-align:top;">version</td><td style="vertical-align:top;">:</td><td><div></div></td></tr></table></div></td></tr></table></div></td></tr><tr><td style="font-weight:bold;vertical-align:top;">delimiters</td><td style="vertical-align:top;">:</td><td><div><table><tr><td><div>{{</div></td></tr><tr><td><div>}}</div></td></tr></table></div></td></tr><tr><td style="font-weight:bold;vertical-align:top;">files</td><td style="vertical-align:top;">:</td><td><div><table></table></div></td></tr><tr><td style="font-weight:bold;vertical-align:top;">flash</td><td style="vertical-align:top;">:</td><td><div></div></td></tr><tr><td style="font-weight:bold;vertical-align:top;">form_label_separator</td><td style="vertical-align:top;">:</td><td><div></div></td></tr><tr><td style="font-weight:bold;vertical-align:top;">formstyle</td><td style="vertical-align:top;">:</td><td><div>bootstrap3_inline</div></td></tr><tr><td style="font-weight:bold;vertical-align:top;">generic_patterns</td><td style="vertical-align:top;">:</td><td><div><table><tr><td><div>*</div></td></tr></table></div></td></tr><tr><td style="font-weight:bold;vertical-align:top;">google_analytics_id</td><td style="vertical-align:top;">:</td><td><div>None</div></td></tr><tr><td style="font-weight:bold;vertical-align:top;">headers</td><td style="vertical-align:top;">:</td><td><div><table><tr><td style="font-weight:bold;vertical-align:top;">X-Powered-By</td><td style="vertical-align:top;">:</td><td><div>web2py</div></td></tr></table></div></td></tr><tr><td style="font-weight:bold;vertical-align:top;">logo</td><td style="vertical-align:top;">:</td><td><div><a class="navbar-brand" href="http://www.web2py.com/" id="web2py-logo"><b>web<span>2</span>py</b>&trade;&nbsp;</a></div></td></tr><tr><td style="font-weight:bold;vertical-align:top;">menu</td><td style="vertical-align:top;">:</td><td><div><table><tr><td><div><table><tr><td><div>Inicio</div></td></tr><tr><td><div>False</div></td></tr><tr><td><div>/sigulab2/default/index</div></td></tr><tr><td><div><table></table></div></td></tr></table></div></td></tr><tr><td><div><table><tr><td><div>Mis Sitios</div></td></tr><tr><td><div>False</div></td></tr><tr><td><div>/admin/default/site</div></td></tr></table></div></td></tr><tr><td><div><table><tr><td><div>Esta Aplicaci\xc3\xb3n</div></td></tr><tr><td><div>False</div></td></tr><tr><td><div>#</div></td></tr><tr><td><div><table><tr><td><div><table><tr><td><div>Dise\xc3\xb1o</div></td></tr><tr><td><div>False</div></td></tr><tr><td><div>/admin/default/design/sigulab2</div></td></tr></table></div></td></tr><tr><td><div><li class="divider"></li></div></td></tr><tr><td><div><table><tr><td><div>Controlador</div></td></tr><tr><td><div>False</div></td></tr><tr><td><div>/admin/default/edit/sigulab2/controllers/inventarios.py</div></td></tr></table></div></td></tr><tr><td><div><table><tr><td><div>Vista</div></td></tr><tr><td><div>False</div></td></tr><tr><td><div>/admin/default/edit/sigulab2/views/inventarios/detalles.html</div></td></tr></table></div></td></tr><tr><td><div><table><tr><td><div>Modelo BDD</div></td></tr><tr><td><div>False</div></td></tr><tr><td><div>/admin/default/edit/sigulab2/models/db.py</div></td></tr></table></div></td></tr><tr><td><div><table><tr><td><div>Modelo "menu"</div></td></tr><tr><td><div>False</div></td></tr><tr><td><div>/admin/default/edit/sigulab2/models/menu.py</div></td></tr></table></div></td></tr><tr><td><div><table><tr><td><div>Config.ini</div></td></tr><tr><td><div>False</div></td></tr><tr><td><div>/admin/default/edit/sigulab2/private/appconfig.ini</div></td></tr></table></div></td></tr><tr><td><div><table><tr><td><div>Dise\xc3\xb1o de p\xc3\xa1gina</div></td></tr><tr><td><div>False</div></td></tr><tr><td><div>/admin/default/edit/sigulab2/views/layout.html</div></td></tr></table></div></td></tr><tr><td><div><table><tr><td><div>Hoja de estilo</div></td></tr><tr><td><div>False</div></td></tr><tr><td><div>/admin/default/edit/sigulab2/static/css/web2py-bootstrap3.css</div></td></tr></table></div></td></tr><tr><td><div><table><tr><td><div>Base de datos</div></td></tr><tr><td><div>False</div></td></tr><tr><td><div>/sigulab2/appadmin/index</div></td></tr></table></div></td></tr><tr><td><div><table><tr><td><div>Errores</div></td></tr><tr><td><div>False</div></td></tr><tr><td><div>/admin/default/errors/sigulab2</div></td></tr></table></div></td></tr><tr><td><div><table><tr><td><div>Acerca de</div></td></tr><tr><td><div>False</div></td></tr><tr><td><div>/admin/default/about/sigulab2</div></td></tr></table></div></td></tr></table></div></td></tr></table></div></td></tr><tr><td><div><table><tr><td><div>web2py.com</div></td></tr><tr><td><div>False</div></td></tr><tr><td><div>#</div></td></tr><tr><td><div><table><tr><td><div><table><tr><td><div>Descargas</div></td></tr><tr><td><div>False</div></td></tr><tr><td><div>http://www.web2py.com/examples/default/download</div></td></tr></table></div></td></tr><tr><td><div><table><tr><td><div>Soporte</div></td></tr><tr><td><div>False</div></td></tr><tr><td><div>http://www.web2py.com/examples/default/support</div></td></tr></table></div></td></tr><tr><td><div><table><tr><td><div>Demostraci\xc3\xb3n</div></td></tr><tr><td><div>False</div></td></tr><tr><td><div>http://web2py.com/demo_admin</div></td></tr></table></div></td></tr><tr><td><div><table><tr><td><div>Ejemplos R\xc3\xa1pidos</div></td></tr><tr><td><div>False</div></td></tr><tr><td><div>http://web2py.com/examples/default/examples</div></td></tr></table></div></td></tr><tr><td><div><table><tr><td><div>Preguntas frecuentes</div></td></tr><tr><td><div>False</div></td></tr><tr><td><div>http://web2py.com/AlterEgo</div></td></tr></table></div></td></tr><tr><td><div><table><tr><td><div>V\xc3\xaddeos</div></td></tr><tr><td><div>False</div></td></tr><tr><td><div>http://www.web2py.com/examples/default/videos/</div></td></tr></table></div></td></tr><tr><td><div><table><tr><td><div>Aplicaciones Libres</div></td></tr><tr><td><div>False</div></td></tr><tr><td><div>http://web2py.com/appliances</div></td></tr></table></div></td></tr><tr><td><div><table><tr><td><div>Plugins</div></td></tr><tr><td><div>False</div></td></tr><tr><td><div>http://web2py.com/plugins</div></td></tr></table></div></td></tr><tr><td><div><table><tr><td><div>Recetas</div></td></tr><tr><td><div>False</div></td></tr><tr><td><div>http://web2pyslices.com/</div></td></tr></table></div></td></tr></table></div></td></tr></table></div></td></tr><tr><td><div><table><tr><td><div>Documentaci\xc3\xb3n</div></td></tr><tr><td><div>False</div></td></tr><tr><td><div>#</div></td></tr><tr><td><div><table><tr><td><div><table><tr><td><div>Libro Online</div></td></tr><tr><td><div>False</div></td></tr><tr><td><div>http://www.web2py.com/book</div></td></tr></table></div></td></tr><tr><td><div><li class="divider"></li></div></td></tr><tr><td><div><table><tr><td><div>Prefacio</div></td></tr><tr><td><div>False</div></td></tr><tr><td><div>http://www.web2py.com/book/default/chapter/00</div></td></tr></table></div></td></tr><tr><td><div><table><tr><td><div>Introducci\xc3\xb3n</div></td></tr><tr><td><div>False</div></td></tr><tr><td><div>http://www.web2py.com/book/default/chapter/01</div></td></tr></table></div></td></tr><tr><td><div><table><tr><td><div>Python</div></td></tr><tr><td><div>False</div></td></tr><tr><td><div>http://www.web2py.com/book/default/chapter/02</div></td></tr></table></div></td></tr><tr><td><div><table><tr><td><div>Resumen</div></td></tr><tr><td><div>False</div></td></tr><tr><td><div>http://www.web2py.com/book/default/chapter/03</div></td></tr></table></div></td></tr><tr><td><div><table><tr><td><div>El N\xc3\xbacleo</div></td></tr><tr><td><div>False</div></td></tr><tr><td><div>http://www.web2py.com/book/default/chapter/04</div></td></tr></table></div></td></tr><tr><td><div><table><tr><td><div>Las Vistas</div></td></tr><tr><td><div>False</div></td></tr><tr><td><div>http://www.web2py.com/book/default/chapter/05</div></td></tr></table></div></td></tr><tr><td><div><table><tr><td><div>Base de datos</div></td></tr><tr><td><div>False</div></td></tr><tr><td><div>http://www.web2py.com/book/default/chapter/06</div></td></tr></table></div></td></tr><tr><td><div><table><tr><td><div>Formularios y validadores</div></td></tr><tr><td><div>False</div></td></tr><tr><td><div>http://www.web2py.com/book/default/chapter/07</div></td></tr></table></div></td></tr><tr><td><div><table><tr><td><div>Correo electr\xc3\xb3nico y SMS</div></td></tr><tr><td><div>False</div></td></tr><tr><td><div>http://www.web2py.com/book/default/chapter/08</div></td></tr></table></div></td></tr><tr><td><div><table><tr><td><div>Control de Acceso</div></td></tr><tr><td><div>False</div></td></tr><tr><td><div>http://www.web2py.com/book/default/chapter/09</div></td></tr></table></div></td></tr><tr><td><div><table><tr><td><div>Servicios</div></td></tr><tr><td><div>False</div></td></tr><tr><td><div>http://www.web2py.com/book/default/chapter/10</div></td></tr></table></div></td></tr><tr><td><div><table><tr><td><div>Recetas AJAX</div></td></tr><tr><td><div>False</div></td></tr><tr><td><div>http://www.web2py.com/book/default/chapter/11</div></td></tr></table></div></td></tr><tr><td><div><table><tr><td><div>Componentes y Plugins</div></td></tr><tr><td><div>False</div></td></tr><tr><td><div>http://www.web2py.com/book/default/chapter/12</div></td></tr></table></div></td></tr><tr><td><div><table><tr><td><div>Recetas de despliegue</div></td></tr><tr><td><div>False</div></td></tr><tr><td><div>http://www.web2py.com/book/default/chapter/13</div></td></tr></table></div></td></tr><tr><td><div><table><tr><td><div>Otras Recetas</div></td></tr><tr><td><div>False</div></td></tr><tr><td><div>http://www.web2py.com/book/default/chapter/14</div></td></tr></table></div></td></tr><tr><td><div><table><tr><td><div>Ayudando a web2py</div></td></tr><tr><td><div>False</div></td></tr><tr><td><div>http://www.web2py.com/book/default/chapter/15</div></td></tr></table></div></td></tr><tr><td><div><table><tr><td><div>Compra el libro de web2py</div></td></tr><tr><td><div>False</div></td></tr><tr><td><div>http://stores.lulu.com/web2py</div></td></tr></table></div></td></tr></table></div></td></tr></table></div></td></tr><tr><td><div><table><tr><td><div>Comunidad</div></td></tr><tr><td><div>False</div></td></tr><tr><td><div>None</div></td></tr><tr><td><div><table><tr><td><div><table><tr><td><div>Grupos</div></td></tr><tr><td><div>False</div></td></tr><tr><td><div>http://www.web2py.com/examples/default/usergroups</div></td></tr></table></div></td></tr><tr><td><div><table><tr><td><div>Twitter</div></td></tr><tr><td><div>False</div></td></tr><tr><td><div>http://twitter.com/web2py</div></td></tr></table></div></td></tr><tr><td><div><table><tr><td><div>Chat en vivo</div></td></tr><tr><td><div>False</div></td></tr><tr><td><div>http://webchat.freenode.net/?channels=web2py</div></td></tr></table></div></td></tr></table></div></td></tr></table></div></td></tr></table></div></td></tr><tr><td style="font-weight:bold;vertical-align:top;">meta</td><td style="vertical-align:top;">:</td><td><div><table><tr><td style="font-weight:bold;vertical-align:top;">author</td><td style="vertical-align:top;">:</td><td><div>Octopus Technologies &lt;13-10191@usb.ve:</div></td></tr><tr><td style="font-weight:bold;vertical-align:top;">description</td><td style="vertical-align:top;">:</td><td><div>Sistema de Gestion de la Unidad de Laboratorios</div></td></tr><tr><td style="font-weight:bold;vertical-align:top;">generator</td><td style="vertical-align:top;">:</td><td><div>Web2py Web Framework</div></td></tr><tr><td style="font-weight:bold;vertical-align:top;">keywords</td><td style="vertical-align:top;">:</td><td><div>sigulab</div></td></tr></table></div></td></tr><tr><td style="font-weight:bold;vertical-align:top;">models_to_run</td><td style="vertical-align:top;">:</td><td><div><table><tr><td><div>^\\w+\\.py$</div></td></tr><tr><td><div>^inventarios/\\w+\\.py$</div></td></tr><tr><td><div>^inventarios/detalles/\\w+\\.py$</div></td></tr></table></div></td></tr><tr><td style="font-weight:bold;vertical-align:top;">postprocessing</td><td style="vertical-align:top;">:</td><td><div><table></table></div></td></tr><tr><td style="font-weight:bold;vertical-align:top;">session_client</td><td style="vertical-align:top;">:</td><td><div>127.0.0.1</div></td></tr><tr><td style="font-weight:bold;vertical-align:top;">session_cookie_compression_level</td><td style="vertical-align:top;">:</td><td><div>None</div></td></tr><tr><td style="font-weight:bold;vertical-align:top;">session_cookie_expires</td><td style="vertical-align:top;">:</td><td><div>None</div></td></tr><tr><td style="font-weight:bold;vertical-align:top;">session_data_name</td><td style="vertical-align:top;">:</td><td><div>session_data_sigulab2</div></td></tr><tr><td style="font-weight:bold;vertical-align:top;">session_file</td><td style="vertical-align:top;">:</td><td><div>&lt;open file &#x27;/home/sandra/Documents/web2py/applications/sigulab2/sessions/013/0b2/127.0.0.1-6303800f-236c-4eb2-ae3b-8a282a2fc9f7&#x27;, mode &#x27;rb+&#x27; at 0xb3193700&gt;</div></td></tr><tr><td style="font-weight:bold;vertical-align:top;">session_filename</td><td style="vertical-align:top;">:</td><td><div>/home/sandra/Documents/web2py/applications/sigulab2/sessions/127.0.0.1-6303800f-236c-4eb2-ae3b-8a282a2fc9f7</div></td></tr><tr><td style="font-weight:bold;vertical-align:top;">session_hash</td><td style="vertical-align:top;">:</td><td><div>7b23d31fef365476a80e448193ff4fab</div></td></tr><tr><td style="font-weight:bold;vertical-align:top;">session_id</td><td style="vertical-align:top;">:</td><td><div>127.0.0.1-6303800f-236c-4eb2-ae3b-8a282a2fc9f7</div></td></tr><tr><td style="font-weight:bold;vertical-align:top;">session_id_name</td><td style="vertical-align:top;">:</td><td><div>session_id_sigulab2</div></td></tr><tr><td style="font-weight:bold;vertical-align:top;">session_locked</td><td style="vertical-align:top;">:</td><td><div>True</div></td></tr><tr><td style="font-weight:bold;vertical-align:top;">session_masterapp</td><td style="vertical-align:top;">:</td><td><div>sigulab2</div></td></tr><tr><td style="font-weight:bold;vertical-align:top;">session_new</td><td style="vertical-align:top;">:</td><td><div>False</div></td></tr><tr><td style="font-weight:bold;vertical-align:top;">session_storage_type</td><td style="vertical-align:top;">:</td><td><div>file</div></td></tr><tr><td style="font-weight:bold;vertical-align:top;">status</td><td style="vertical-align:top;">:</td><td><div>200</div></td></tr><tr><td style="font-weight:bold;vertical-align:top;">subtitle</td><td style="vertical-align:top;">:</td><td><div></div></td></tr><tr><td style="font-weight:bold;vertical-align:top;">title</td><td style="vertical-align:top;">:</td><td><div>Sigulab2</div></td></tr><tr><td style="font-weight:bold;vertical-align:top;">view</td><td style="vertical-align:top;">:</td><td><div>inventarios/detalles.html</div></td></tr></table></div>'
tRp129
sS'locals'
p130
(dp131
S'Service'
p132
S"<class 'gluon.tools.Service'>"
p133
sS'PY2'
p134
S'True'
p135
sS'OBJECT'
p136
S"<class 'gluon.html.OBJECT'>"
p137
sS'track_changes'
p138
S'<function track_changes>'
p139
sS'SQLDB'
p140
S"<class 'pydal.base.DAL'>"
p141
sg122
S"<Storage {'last_orderby': None, 'last_query': 'd...gin]': ['7f721305-5a4e-4e45-8ee5-50f644925e7d']}>"
p142
sS'LINK'
p143
S"<class 'gluon.html.LINK'>"
p144
sS'BR'
p145
S"<class 'gluon.html.BR'>"
p146
sS'local_import'
p147
S'<function <lambda>>'
p148
sS'OPTGROUP'
p149
S"<class 'gluon.html.OPTGROUP'>"
p150
sS'__package__'
p151
S'None'
p152
sS'PRE'
p153
S"<class 'gluon.html.PRE'>"
p154
sS'IS_INT_IN_RANGE'
p155
S"<class 'gluon.validators.IS_INT_IN_RANGE'>"
p156
sS'to_bytes'
p157
S'<function to_bytes>'
p158
sS'IS_LOWER'
p159
S"<class 'gluon.validators.IS_LOWER'>"
p160
sS'IS_STRONG'
p161
S"<class 'gluon.validators.IS_STRONG'>"
p162
sS'cache'
p163
S'<gluon.cache.Cache object>'
p164
sS'IS_IN_DB'
p165
S"<class 'gluon.validators.IS_IN_DB'>"
p166
sS'TAG'
p167
S'<gluon.html.__TAG__ object>'
p168
sS'SQLField'
p169
S"<class 'pydal.objects.Field'>"
p170
sS'mail'
p171
S'<gluon.tools.Mail object>'
p172
sS'BODY'
p173
S"<class 'gluon.html.BODY'>"
p174
sS'IS_DATE_IN_RANGE'
p175
S"<class 'gluon.validators.IS_DATE_IN_RANGE'>"
p176
sS'IFRAME'
p177
S"<class 'gluon.html.IFRAME'>"
p178
sS'URL'
p179
S'<function URL>'
p180
sS'__file__'
p181
S"'/home/sandra/Documents/web2py/applications/sigulab2/views/inventarios/detalles.html'"
p182
sS'db'
p183
S'<DAL uri="postgres:******@localhost:5432/sigulab2">'
p184
sS'auth'
p185
S'<gluon.tools.Auth object>'
p186
sS'P'
S"<class 'gluon.html.P'>"
p187
sS'TFOOT'
p188
S"<class 'gluon.html.TFOOT'>"
p189
sS'iteritems'
p190
S'<function <lambda>>'
p191
sS'XHTML'
p192
S"<class 'gluon.html.XHTML'>"
p193
sS'ON'
p194
g135
sS'OL'
p195
S"<class 'gluon.html.OL'>"
p196
sS'TEXTAREA'
p197
S"<class 'gluon.html.TEXTAREA'>"
p198
sS'MENU'
p199
S"<class 'gluon.html.MENU'>"
p200
sS'IS_IMAGE'
p201
S"<class 'gluon.validators.IS_IMAGE'>"
p202
sS'EM'
p203
S"<class 'gluon.html.EM'>"
p204
sS'CODE'
p205
S"<class 'gluon.html.CODE'>"
p206
sS'HTTP'
p207
S"<class 'gluon.http.HTTP'>"
p208
sS'HR'
p209
S"<class 'gluon.html.HR'>"
p210
sS'IS_DATETIME'
p211
S"<class 'gluon.validators.IS_DATETIME'>"
p212
sS'reduce'
p213
S'<built-in function reduce>'
p214
sS'STYLE'
p215
S"<class 'gluon.html.STYLE'>"
p216
sS'LABEL'
p217
S"<class 'gluon.html.LABEL'>"
p218
sS'CLEANUP'
p219
S"<class 'gluon.validators.CLEANUP'>"
p220
sS'plugins'
p221
S'<gluon.tools.PluginManager object>'
p222
sS'SELECT'
p223
S"<class 'gluon.html.SELECT'>"
p224
sS'CENTER'
p225
S"<class 'gluon.html.CENTER'>"
p226
sS'Auth'
p227
S"<class 'gluon.tools.Auth'>"
p228
sS'DEVELOPMENT_MENU'
p229
g135
sS'current'
p230
S'<thread._local object>'
p231
sS'__builtins__'
p232
S"{'ArithmeticError': <type 'exceptions.ArithmeticError'>, 'AssertionError': <type 'exceptions.AssertionError'>, 'AttributeError': <type 'exceptions.AttributeError'>, 'BaseException': <type 'exceptions.BaseException'>, 'BufferError': <type 'exceptions.BufferError'>, 'BytesWarning': <type 'exceptions.BytesWarning'>, 'DeprecationWarning': <type 'exceptions.DeprecationWarning'>, 'EOFError': <type 'exceptions.EOFError'>, 'Ellipsis': Ellipsis, 'EnvironmentError': <type 'exceptions.EnvironmentError'>, ...}"
p233
sS'bien'
p234
S"<Row {'bm_espacio_fisico': 1L, 'bm_unidad_de_ads... 'a', 'bm_estatus': 'Operativo', 'bm_placa': ''}>"
p235
sS'HTML'
p236
S"<class 'gluon.html.HTML'>"
p237
sS'SQLFORM'
p238
S"<class 'gluon.sqlhtml.SQLFORM'>"
p239
sS'LOAD'
p240
S'<function LOAD>'
p241
sS'redirect'
p242
S'<function redirect>'
p243
sS'FIELDSET'
p244
S"<class 'gluon.html.FIELDSET'>"
p245
sS'IS_EQUAL_TO'
p246
S"<class 'gluon.validators.IS_EQUAL_TO'>"
p247
sS'embed64'
p248
S'<function embed64>'
p249
sS'IS_LIST_OF'
p250
S"<class 'gluon.validators.IS_LIST_OF'>"
p251
sS'INPUT'
p252
S"<class 'gluon.html.INPUT'>"
p253
sS'EMBED'
p254
S"<class 'gluon.html.EMBED'>"
p255
sS'_'
S'<function _>'
p256
sS'myconf'
p257
S"{'forms': {'formstyle': 'bootstrap3_inline', 'se...': {'names': 'localhost:*, 127.0.0.1:*, *:*, *'}}"
p258
sS'H2'
p259
S"<class 'gluon.html.H2'>"
p260
sS'H3'
p261
S"<class 'gluon.html.H3'>"
p262
sS'AppConfig'
p263
S'<function AppConfig>'
p264
sS'H1'
p265
S"<class 'gluon.html.H1'>"
p266
sS'H6'
p267
S"<class 'gluon.html.H6'>"
p268
sS'H4'
p269
S"<class 'gluon.html.H4'>"
p270
sS'H5'
p271
S"<class 'gluon.html.H5'>"
p272
sS'UL'
p273
S"<class 'gluon.html.UL'>"
p274
sS'IS_UPPER'
p275
S"<class 'gluon.validators.IS_UPPER'>"
p276
sS'xmlescape'
p277
S'<function xmlescape>'
p278
sS'IS_TIME'
p279
S"<class 'gluon.validators.IS_TIME'>"
p280
sS'OPTION'
p281
S"<class 'gluon.html.OPTION'>"
p282
sS'TITLE'
p283
S"<class 'gluon.html.TITLE'>"
p284
sS'CRYPT'
p285
S"<class 'gluon.validators.CRYPT'>"
p286
sS'IS_EMPTY_OR'
p287
S"<class 'gluon.validators.IS_EMPTY_OR'>"
p288
sS'MARKMIN'
p289
S"<class 'gluon.html.MARKMIN'>"
p290
sS'__name__'
p291
S"'__restricted__'"
p292
sS'STRONG'
p293
S"<class 'gluon.html.STRONG'>"
p294
sS'COL'
p295
S"<class 'gluon.html.COL'>"
p296
sS'service'
p297
S'<gluon.tools.Service object>'
p298
sS'SCRIPT'
p299
S"<class 'gluon.html.SCRIPT'>"
p300
sS'TABLE'
p301
S"<class 'gluon.html.TABLE'>"
p302
sS'IS_IPV4'
p303
S"<class 'gluon.validators.IS_IPV4'>"
p304
sS'IS_LENGTH'
p305
S"<class 'gluon.validators.IS_LENGTH'>"
p306
sS'IS_IPV6'
p307
S"<class 'gluon.validators.IS_IPV6'>"
p308
sS'XML'
p309
S"<class 'gluon.html.XML'>"
p310
sS'B'
S"<class 'gluon.html.B'>"
p311
sS'IMG'
p312
S"<class 'gluon.html.IMG'>"
p313
sS'SQLTABLE'
p314
S"<class 'gluon.sqlhtml.SQLTABLE'>"
p315
sS'IS_MATCH'
p316
S"<class 'gluon.validators.IS_MATCH'>"
p317
sS'IS_ALPHANUMERIC'
p318
S"<class 'gluon.validators.IS_ALPHANUMERIC'>"
p319
sS'SPAN'
p320
S"<class 'gluon.html.SPAN'>"
p321
sS'IS_JSON'
p322
S"<class 'gluon.validators.IS_JSON'>"
p323
sS'IS_IPADDRESS'
p324
S"<class 'gluon.validators.IS_IPADDRESS'>"
p325
sS'IS_SLUG'
p326
S"<class 'gluon.validators.IS_SLUG'>"
p327
sS'BEAUTIFY'
p328
S"<class 'gluon.html.BEAUTIFY'>"
p329
sS'META'
p330
S"<class 'gluon.html.META'>"
p331
sS'BUTTON'
p332
S"<class 'gluon.html.BUTTON'>"
p333
sS'modificacion'
p334
S'<Table modificacion (id, m_nombre, bm_num, m_pla...idad_de_adscripcion, m_depedencia, m_crea_ficha)>'
p335
sS'IS_DATE'
p336
S"<class 'gluon.validators.IS_DATE'>"
p337
sS'IS_EMAIL'
p338
S"<class 'gluon.validators.IS_EMAIL'>"
p339
sS'IS_NOT_EMPTY'
p340
S"<class 'gluon.validators.IS_NOT_EMPTY'>"
p341
sS'xrange'
p342
S"<type 'xrange'>"
p343
sS'TBODY'
p344
S"<class 'gluon.html.TBODY'>"
p345
sS'CAT'
p346
S"<class 'gluon.html.CAT'>"
p347
sS'Field'
p348
S"<class 'pydal.objects.Field'>"
p349
sS'IS_LIST_OF_EMAILS'
p350
S"<class 'gluon.validators.IS_LIST_OF_EMAILS'>"
p351
sg58
S"<Storage {'_vars': <Storage {'bm': '123456'}>, '...sandra/Documents/web2py/applications/sigulab2/'}>"
p352
sS'DIV'
p353
S"<class 'gluon.html.DIV'>"
p354
sS'LEGEND'
p355
S"<class 'gluon.html.LEGEND'>"
p356
sS'to_native'
p357
S'<function to_native>'
p358
sS'COLGROUP'
p359
S"<class 'gluon.html.COLGROUP'>"
p360
sS'DAL'
p361
S"<class 'pydal.base.DAL'>"
p362
sS'ASSIGNJS'
p363
S'<function ASSIGNJS>'
p364
sS'TR'
p365
S"<class 'gluon.html.TR'>"
p366
sS'LI'
p367
S"<class 'gluon.html.LI'>"
p368
sS'TH'
p369
S"<class 'gluon.html.TH'>"
p370
sS'TD'
p371
S"<class 'gluon.html.TD'>"
p372
sS'PluginManager'
p373
S"<class 'gluon.tools.PluginManager'>"
p374
sS'IS_URL'
p375
S"<class 'gluon.validators.IS_URL'>"
p376
sS'A'
S"<class 'gluon.html.A'>"
p377
sS'HEAD'
p378
S"<class 'gluon.html.HEAD'>"
p379
sS'IS_DATETIME_IN_RANGE'
p380
S"<class 'gluon.validators.IS_DATETIME_IN_RANGE'>"
p381
sS'FORM'
p382
S"<class 'gluon.html.FORM'>"
p383
sS'I'
S"<class 'gluon.html.I'>"
p384
sS'IS_NOT_IN_DB'
p385
S"<class 'gluon.validators.IS_NOT_IN_DB'>"
p386
sg128
S"<Storage {'body': <cStringIO.StringO object at 0...xaf254e2c>, 'view': 'inventarios/detalles.html'}>"
p387
sS'THEAD'
p388
S"<class 'gluon.html.THEAD'>"
p389
sS'ANY_OF'
p390
S"<class 'gluon.validators.ANY_OF'>"
p391
sS'IS_NULL_OR'
p392
S"<class 'gluon.validators.IS_EMPTY_OR'>"
p393
sS'IS_FLOAT_IN_RANGE'
p394
S"<class 'gluon.validators.IS_FLOAT_IN_RANGE'>"
p395
sS'IS_EXPR'
p396
S"<class 'gluon.validators.IS_EXPR'>"
p397
sS'T'
S'<gluon.languages.translator object>'
p398
sS'IS_IN_SET'
p399
S"<class 'gluon.validators.IS_IN_SET'>"
p400
sS'IS_UPLOAD_FILENAME'
p401
S"<class 'gluon.validators.IS_UPLOAD_FILENAME'>"
p402
sS'TT'
p403
S"<class 'gluon.html.TT'>"
p404
sS'IS_DECIMAL_IN_RANGE'
p405
S"<class 'gluon.validators.IS_DECIMAL_IN_RANGE'>"
p406
sssS'traceback'
p407
S'Traceback (most recent call last):\n  File "/home/sandra/Documents/web2py/gluon/restricted.py", line 219, in restricted\n    exec(ccode, environment)\n  File "/home/sandra/Documents/web2py/applications/sigulab2/views/inventarios/detalles.html", line 152, in <module>\n    <h4>Marca: {{=bien[\'bm_serial\']}} </h4>\nNameError: name \'material_pred\' is not defined\n'
p408
s.