(dp1
S'output'
p2
S'<class \'psycopg2.IntegrityError\'> column "mbn_num__tmp" contains null values\n'
p3
sS'layer'
p4
S'/home/sandra/Documents/web2py/applications/sigulab2/models/t_inventarios.py'
p5
sS'code'
p6
S'<code object <module> at 0xb6eb1968, file "/home/sandra/Documents/web2py/applications/sigulab2/models/t_inventarios.py", line 8>'
p7
sS'snapshot'
p8
(dp9
S'exception'
p10
(dp11
S'__module__'
p12
S"'psycopg2'"
p13
sS'__getslice__'
p14
S"<method-wrapper '__getslice__' of IntegrityError object>"
p15
sS'__str__'
p16
S"<method-wrapper '__str__' of IntegrityError object>"
p17
sS'__reduce__'
p18
S'<built-in method __reduce__ of IntegrityError object>'
p19
sS'__dict__'
p20
S'{\'cursor\': <cursor object at 0xb594598c; closed: 0>, \'pgcode\': \'23502\', \'pgerror\': \'ERROR:  column "mbn_num__tmp" contains null values\\n\'}'
p21
sS'__sizeof__'
p22
S'<built-in method __sizeof__ of IntegrityError object>'
p23
sS'__weakref__'
p24
S'None'
p25
sS'message'
p26
S'\'column "mbn_num__tmp" contains null values\\n\''
p27
sS'__init__'
p28
S"<method-wrapper '__init__' of IntegrityError object>"
p29
sS'__setattr__'
p30
S"<method-wrapper '__setattr__' of IntegrityError object>"
p31
sS'__reduce_ex__'
p32
S'<built-in method __reduce_ex__ of IntegrityError object>'
p33
sS'__new__'
p34
S'<built-in method __new__ of type object>'
p35
sS'__format__'
p36
S'<built-in method __format__ of IntegrityError object>'
p37
sS'__class__'
p38
S"<class 'psycopg2.IntegrityError'>"
p39
sS'pgerror'
p40
S'\'ERROR:  column "mbn_num__tmp" contains null values\\n\''
p41
sS'__doc__'
p42
S"'Error related to database integrity.'"
p43
sS'__getitem__'
p44
S"<method-wrapper '__getitem__' of IntegrityError object>"
p45
sS'__setstate__'
p46
S'<built-in method __setstate__ of IntegrityError object>'
p47
sS'__getattribute__'
p48
S"<method-wrapper '__getattribute__' of IntegrityError object>"
p49
sS'args'
p50
S'(\'column "mbn_num__tmp" contains null values\\n\',)'
p51
sS'__subclasshook__'
p52
S'<built-in method __subclasshook__ of type object>'
p53
sS'pgcode'
p54
S"'23502'"
p55
sS'__unicode__'
p56
S'<built-in method __unicode__ of IntegrityError object>'
p57
sS'cursor'
p58
S'<cursor object at 0xb594598c; closed: 0>'
p59
sS'__delattr__'
p60
S"<method-wrapper '__delattr__' of IntegrityError object>"
p61
sS'__repr__'
p62
S"<method-wrapper '__repr__' of IntegrityError object>"
p63
sS'__hash__'
p64
S"<method-wrapper '__hash__' of IntegrityError object>"
p65
ssS'evalue'
p66
S'column "mbn_num__tmp" contains null values\n'
p67
sS'request'
p68
cgluon.html
XML_unpickle
p69
(S's\xe0_\x00\x00<div><table><tr><td style="font-weight:bold;vertical-align:top;">ajax</td><td style="vertical-align:top;">:</td><td><div>False</div></td></tr><tr><td style="font-weight:bold;vertical-align:top;">application</td><td style="vertical-align:top;">:</td><td><div>sigulab2</div></td></tr><tr><td style="font-weight:bold;vertical-align:top;">args</td><td style="vertical-align:top;">:</td><td><div><table></table></div></td></tr><tr><td style="font-weight:bold;vertical-align:top;">cid</td><td style="vertical-align:top;">:</td><td><div>None</div></td></tr><tr><td style="font-weight:bold;vertical-align:top;">client</td><td style="vertical-align:top;">:</td><td><div>127.0.0.1</div></td></tr><tr><td style="font-weight:bold;vertical-align:top;">controller</td><td style="vertical-align:top;">:</td><td><div>default</div></td></tr><tr><td style="font-weight:bold;vertical-align:top;">cookies</td><td style="vertical-align:top;">:</td><td><div><table><tr><td style="font-weight:bold;vertical-align:top;">csrftoken</td><td style="vertical-align:top;">:</td><td><div>J2kA0yMUTTe8cUZwYgZmKFGMt1vAqsegvlpyjhmzwgemcplSpecVPzjr46cHImSP<table><tr><td style="font-weight:bold;vertical-align:top;">comment</td><td style="vertical-align:top;">:</td><td><div></div></td></tr><tr><td style="font-weight:bold;vertical-align:top;">domain</td><td style="vertical-align:top;">:</td><td><div></div></td></tr><tr><td style="font-weight:bold;vertical-align:top;">expires</td><td style="vertical-align:top;">:</td><td><div></div></td></tr><tr><td style="font-weight:bold;vertical-align:top;">httponly</td><td style="vertical-align:top;">:</td><td><div></div></td></tr><tr><td style="font-weight:bold;vertical-align:top;">max-age</td><td style="vertical-align:top;">:</td><td><div></div></td></tr><tr><td style="font-weight:bold;vertical-align:top;">path</td><td style="vertical-align:top;">:</td><td><div></div></td></tr><tr><td style="font-weight:bold;vertical-align:top;">secure</td><td style="vertical-align:top;">:</td><td><div></div></td></tr><tr><td style="font-weight:bold;vertical-align:top;">version</td><td style="vertical-align:top;">:</td><td><div></div></td></tr></table></div></td></tr><tr><td style="font-weight:bold;vertical-align:top;">session_id_admin</td><td style="vertical-align:top;">:</td><td><div>127.0.0.1-1eeb051e-664e-4062-9391-5abfe7cd4c6e<table><tr><td style="font-weight:bold;vertical-align:top;">comment</td><td style="vertical-align:top;">:</td><td><div></div></td></tr><tr><td style="font-weight:bold;vertical-align:top;">domain</td><td style="vertical-align:top;">:</td><td><div></div></td></tr><tr><td style="font-weight:bold;vertical-align:top;">expires</td><td style="vertical-align:top;">:</td><td><div></div></td></tr><tr><td style="font-weight:bold;vertical-align:top;">httponly</td><td style="vertical-align:top;">:</td><td><div></div></td></tr><tr><td style="font-weight:bold;vertical-align:top;">max-age</td><td style="vertical-align:top;">:</td><td><div></div></td></tr><tr><td style="font-weight:bold;vertical-align:top;">path</td><td style="vertical-align:top;">:</td><td><div></div></td></tr><tr><td style="font-weight:bold;vertical-align:top;">secure</td><td style="vertical-align:top;">:</td><td><div></div></td></tr><tr><td style="font-weight:bold;vertical-align:top;">version</td><td style="vertical-align:top;">:</td><td><div></div></td></tr></table></div></td></tr><tr><td style="font-weight:bold;vertical-align:top;">session_id_sigulab2</td><td style="vertical-align:top;">:</td><td><div>127.0.0.1-7f507d1c-d88b-479c-86f9-e1026851fda4<table><tr><td style="font-weight:bold;vertical-align:top;">comment</td><td style="vertical-align:top;">:</td><td><div></div></td></tr><tr><td style="font-weight:bold;vertical-align:top;">domain</td><td style="vertical-align:top;">:</td><td><div></div></td></tr><tr><td style="font-weight:bold;vertical-align:top;">expires</td><td style="vertical-align:top;">:</td><td><div></div></td></tr><tr><td style="font-weight:bold;vertical-align:top;">httponly</td><td style="vertical-align:top;">:</td><td><div></div></td></tr><tr><td style="font-weight:bold;vertical-align:top;">max-age</td><td style="vertical-align:top;">:</td><td><div></div></td></tr><tr><td style="font-weight:bold;vertical-align:top;">path</td><td style="vertical-align:top;">:</td><td><div></div></td></tr><tr><td style="font-weight:bold;vertical-align:top;">secure</td><td style="vertical-align:top;">:</td><td><div></div></td></tr><tr><td style="font-weight:bold;vertical-align:top;">version</td><td style="vertical-align:top;">:</td><td><div></div></td></tr></table></div></td></tr><tr><td style="font-weight:bold;vertical-align:top;">session_id_welcome</td><td style="vertical-align:top;">:</td><td><div>127.0.0.1-781281af-3ed8-41f5-b51c-491ce3498228<table><tr><td style="font-weight:bold;vertical-align:top;">comment</td><td style="vertical-align:top;">:</td><td><div></div></td></tr><tr><td style="font-weight:bold;vertical-align:top;">domain</td><td style="vertical-align:top;">:</td><td><div></div></td></tr><tr><td style="font-weight:bold;vertical-align:top;">expires</td><td style="vertical-align:top;">:</td><td><div></div></td></tr><tr><td style="font-weight:bold;vertical-align:top;">httponly</td><td style="vertical-align:top;">:</td><td><div></div></td></tr><tr><td style="font-weight:bold;vertical-align:top;">max-age</td><td style="vertical-align:top;">:</td><td><div></div></td></tr><tr><td style="font-weight:bold;vertical-align:top;">path</td><td style="vertical-align:top;">:</td><td><div></div></td></tr><tr><td style="font-weight:bold;vertical-align:top;">secure</td><td style="vertical-align:top;">:</td><td><div></div></td></tr><tr><td style="font-weight:bold;vertical-align:top;">version</td><td style="vertical-align:top;">:</td><td><div></div></td></tr></table></div></td></tr></table></div></td></tr><tr><td style="font-weight:bold;vertical-align:top;">env</td><td style="vertical-align:top;">:</td><td><div><table><tr><td style="font-weight:bold;vertical-align:top;">HTTP_ACCEPT</td><td style="vertical-align:top;">:</td><td><div>text/html,application/xhtml+xml,application/xml;q=0.9,image/webp,image/apng,*/*;q=0.8</div></td></tr><tr><td style="font-weight:bold;vertical-align:top;">HTTP_ACCEPT_ENCODING</td><td style="vertical-align:top;">:</td><td><div>gzip, deflate, br</div></td></tr><tr><td style="font-weight:bold;vertical-align:top;">HTTP_ACCEPT_LANGUAGE</td><td style="vertical-align:top;">:</td><td><div>es-ES,es;q=0.9,en;q=0.8</div></td></tr><tr><td style="font-weight:bold;vertical-align:top;">HTTP_CONNECTION</td><td style="vertical-align:top;">:</td><td><div>keep-alive</div></td></tr><tr><td style="font-weight:bold;vertical-align:top;">HTTP_COOKIE</td><td style="vertical-align:top;">:</td><td><div>csrftoken=J2kA0yMUTTe8cUZwYgZmKFGMt1vAqsegvlpyjhmzwgemcplSpecVPzjr46cHImSP; session_id_admin=127.0.0.1-1eeb051e-664e-4062-9391-5abfe7cd4c6e; session_id_sigulab2=127.0.0.1-7f507d1c-d88b-479c-86f9-e1026851fda4; session_id_welcome=127.0.0.1-781281af-3ed8-41f5-b51c-491ce3498228</div></td></tr><tr><td style="font-weight:bold;vertical-align:top;">HTTP_HOST</td><td style="vertical-align:top;">:</td><td><div>127.0.0.1:8000</div></td></tr><tr><td style="font-weight:bold;vertical-align:top;">HTTP_REFERER</td><td style="vertical-align:top;">:</td><td><div>http://127.0.0.1:8000/admin/default/site</div></td></tr><tr><td style="font-weight:bold;vertical-align:top;">HTTP_UPGRADE_INSECURE_REQUESTS</td><td style="vertical-align:top;">:</td><td><div>1</div></td></tr><tr><td style="font-weight:bold;vertical-align:top;">HTTP_USER_AGENT</td><td style="vertical-align:top;">:</td><td><div>Mozilla/5.0 (X11; Linux i686) AppleWebKit/537.36 (KHTML, like Gecko) Ubuntu Chromium/65.0.3325.181 Chrome/65.0.3325.181 Safari/537.36</div></td></tr><tr><td style="font-weight:bold;vertical-align:top;">PATH_INFO</td><td style="vertical-align:top;">:</td><td><div>/sigulab2/default/index</div></td></tr><tr><td style="font-weight:bold;vertical-align:top;">QUERY_STRING</td><td style="vertical-align:top;">:</td><td><div></div></td></tr><tr><td style="font-weight:bold;vertical-align:top;">REMOTE_ADDR</td><td style="vertical-align:top;">:</td><td><div>127.0.0.1</div></td></tr><tr><td style="font-weight:bold;vertical-align:top;">REMOTE_PORT</td><td style="vertical-align:top;">:</td><td><div>35241</div></td></tr><tr><td style="font-weight:bold;vertical-align:top;">REQUEST_METHOD</td><td style="vertical-align:top;">:</td><td><div>GET</div></td></tr><tr><td style="font-weight:bold;vertical-align:top;">SCRIPT_NAME</td><td style="vertical-align:top;">:</td><td><div></div></td></tr><tr><td style="font-weight:bold;vertical-align:top;">SERVER_NAME</td><td style="vertical-align:top;">:</td><td><div>sandra-VIT</div></td></tr><tr><td style="font-weight:bold;vertical-align:top;">SERVER_PORT</td><td style="vertical-align:top;">:</td><td><div>8000</div></td></tr><tr><td style="font-weight:bold;vertical-align:top;">SERVER_PROTOCOL</td><td style="vertical-align:top;">:</td><td><div>HTTP/1.1</div></td></tr><tr><td style="font-weight:bold;vertical-align:top;">SERVER_SOFTWARE</td><td style="vertical-align:top;">:</td><td><div>Rocket 1.2.6</div></td></tr><tr><td style="font-weight:bold;vertical-align:top;">app_folders</td><td style="vertical-align:top;">:</td><td><div>set([&#x27;/home/sandra/Documents/web2py/applications/sigulab2/&#x27;])</div></td></tr><tr><td style="font-weight:bold;vertical-align:top;">applications_parent</td><td style="vertical-align:top;">:</td><td><div>/home/sandra/Documents/web2py</div></td></tr><tr><td style="font-weight:bold;vertical-align:top;">cmd_args</td><td style="vertical-align:top;">:</td><td><div><table></table></div></td></tr><tr><td style="font-weight:bold;vertical-align:top;">cmd_options</td><td style="vertical-align:top;">:</td><td><div>&lt;Values at 0xb621ef8c: {&#x27;verbose&#x27;: False, &#x27;ip&#x27;: &#x27;127.0.0.1&#x27;, &#x27;debuglevel&#x27;: 30, &#x27;with_scheduler&#x27;: False, &#x27;shutdown_timeout&#x27;: 5, &#x27;taskbar&#x27;: False, &#x27;with_coverage&#x27;: False, &#x27;pid_filename&#x27;: &#x27;httpserver.pid&#x27;, &#x27;maxthreads&#x27;: None, &#x27;softcron&#x27;: False, &#x27;server_name&#x27;: &#x27;sandra-VIT&#x27;, &#x27;bpython&#x27;: False, &#x27;nogui&#x27;: False, &#x27;port&#x27;: 8000, &#x27;print_errors&#x27;: False, &#x27;extcron&#x27;: False, &#x27;runcron&#x27;: False, &#x27;run_system_tests&#x27;: False, &#x27;test&#x27;: None, &#x27;folder&#x27;: &#x27;/home/sandra/Documents/web2py&#x27;, &#x27;config&#x27;: &#x27;&#x27;, &#x27;minthreads&#x27;: None, &#x27;shell&#x27;: None, &#x27;run&#x27;: &#x27;&#x27;, &#x27;log_filename&#x27;: &#x27;httpserver.log&#x27;, &#x27;profiler_dir&#x27;: None, &#x27;args&#x27;: [&#x27;&#x27;], &#x27;socket_timeout&#x27;: 5, &#x27;ssl_ca_certificate&#x27;: None, &#x27;scheduler&#x27;: None, &#x27;interfaces&#x27;: None, &#x27;ssl_private_key&#x27;: &#x27;&#x27;, &#x27;gae&#x27;: None, &#x27;password&#x27;: &#x27;******&#x27;, &#x27;request_queue_size&#x27;: 5, &#x27;ssl_certificate&#x27;: &#x27;&#x27;, &#x27;cronjob&#x27;: False, &#x27;numthreads&#x27;: None, &#x27;quiet&#x27;: False, &#x27;import_models&#x27;: False, &#x27;timeout&#x27;: 10, &#x27;plain&#x27;: False, &#x27;nobanner&#x27;: False}&gt;</div></td></tr><tr><td style="font-weight:bold;vertical-align:top;">db_sessions</td><td style="vertical-align:top;">:</td><td><div>set([])</div></td></tr><tr><td style="font-weight:bold;vertical-align:top;">debugging</td><td style="vertical-align:top;">:</td><td><div>False</div></td></tr><tr><td style="font-weight:bold;vertical-align:top;">gluon_parent</td><td style="vertical-align:top;">:</td><td><div>/home/sandra/Documents/web2py</div></td></tr><tr><td style="font-weight:bold;vertical-align:top;">http_accept</td><td style="vertical-align:top;">:</td><td><div>text/html,application/xhtml+xml,application/xml;q=0.9,image/webp,image/apng,*/*;q=0.8</div></td></tr><tr><td style="font-weight:bold;vertical-align:top;">http_accept_encoding</td><td style="vertical-align:top;">:</td><td><div>gzip, deflate, br</div></td></tr><tr><td style="font-weight:bold;vertical-align:top;">http_accept_language</td><td style="vertical-align:top;">:</td><td><div>es-ES,es;q=0.9,en;q=0.8</div></td></tr><tr><td style="font-weight:bold;vertical-align:top;">http_connection</td><td style="vertical-align:top;">:</td><td><div>keep-alive</div></td></tr><tr><td style="font-weight:bold;vertical-align:top;">http_cookie</td><td style="vertical-align:top;">:</td><td><div>csrftoken=J2kA0yMUTTe8cUZwYgZmKFGMt1vAqsegvlpyjhmzwgemcplSpecVPzjr46cHImSP; session_id_admin=127.0.0.1-1eeb051e-664e-4062-9391-5abfe7cd4c6e; session_id_sigulab2=127.0.0.1-7f507d1c-d88b-479c-86f9-e1026851fda4; session_id_welcome=127.0.0.1-781281af-3ed8-41f5-b51c-491ce3498228</div></td></tr><tr><td style="font-weight:bold;vertical-align:top;">http_host</td><td style="vertical-align:top;">:</td><td><div>127.0.0.1:8000</div></td></tr><tr><td style="font-weight:bold;vertical-align:top;">http_referer</td><td style="vertical-align:top;">:</td><td><div>http://127.0.0.1:8000/admin/default/site</div></td></tr><tr><td style="font-weight:bold;vertical-align:top;">http_upgrade_insecure_requests</td><td style="vertical-align:top;">:</td><td><div>1</div></td></tr><tr><td style="font-weight:bold;vertical-align:top;">http_user_agent</td><td style="vertical-align:top;">:</td><td><div>Mozilla/5.0 (X11; Linux i686) AppleWebKit/537.36 (KHTML, like Gecko) Ubuntu Chromium/65.0.3325.181 Chrome/65.0.3325.181 Safari/537.36</div></td></tr><tr><td style="font-weight:bold;vertical-align:top;">is_jython</td><td style="vertical-align:top;">:</td><td><div>False</div></td></tr><tr><td style="font-weight:bold;vertical-align:top;">is_py2</td><td style="vertical-align:top;">:</td><td><div>True</div></td></tr><tr><td style="font-weight:bold;vertical-align:top;">is_pypy</td><td style="vertical-align:top;">:</td><td><div>False</div></td></tr><tr><td style="font-weight:bold;vertical-align:top;">is_source</td><td style="vertical-align:top;">:</td><td><div>True</div></td></tr><tr><td style="font-weight:bold;vertical-align:top;">path_info</td><td style="vertical-align:top;">:</td><td><div>/sigulab2/default/index</div></td></tr><tr><td style="font-weight:bold;vertical-align:top;">query_string</td><td style="vertical-align:top;">:</td><td><div></div></td></tr><tr><td style="font-weight:bold;vertical-align:top;">remote_addr</td><td style="vertical-align:top;">:</td><td><div>127.0.0.1</div></td></tr><tr><td style="font-weight:bold;vertical-align:top;">remote_port</td><td style="vertical-align:top;">:</td><td><div>35241</div></td></tr><tr><td style="font-weight:bold;vertical-align:top;">request_method</td><td style="vertical-align:top;">:</td><td><div>GET</div></td></tr><tr><td style="font-weight:bold;vertical-align:top;">request_uri</td><td style="vertical-align:top;">:</td><td><div>/sigulab2/default/index</div></td></tr><tr><td style="font-weight:bold;vertical-align:top;">script_name</td><td style="vertical-align:top;">:</td><td><div></div></td></tr><tr><td style="font-weight:bold;vertical-align:top;">server_name</td><td style="vertical-align:top;">:</td><td><div>sandra-VIT</div></td></tr><tr><td style="font-weight:bold;vertical-align:top;">server_port</td><td style="vertical-align:top;">:</td><td><div>8000</div></td></tr><tr><td style="font-weight:bold;vertical-align:top;">server_protocol</td><td style="vertical-align:top;">:</td><td><div>HTTP/1.1</div></td></tr><tr><td style="font-weight:bold;vertical-align:top;">server_software</td><td style="vertical-align:top;">:</td><td><div>Rocket 1.2.6</div></td></tr><tr><td style="font-weight:bold;vertical-align:top;">web2py_path</td><td style="vertical-align:top;">:</td><td><div>/home/sandra/Documents/web2py</div></td></tr><tr><td style="font-weight:bold;vertical-align:top;">web2py_version</td><td style="vertical-align:top;">:</td><td><div>2.16.1-stable+timestamp.2017.11.14.05.54.25</div></td></tr><tr><td style="font-weight:bold;vertical-align:top;">wsgi.errors</td><td style="vertical-align:top;">:</td><td><div>&lt;open file &#x27;&lt;stderr&gt;&#x27;, mode &#x27;w&#x27; at 0xb749c0d0&gt;</div></td></tr><tr><td style="font-weight:bold;vertical-align:top;">wsgi.file_wrapper</td><td style="vertical-align:top;">:</td><td><div>&lt;class wsgiref.util.FileWrapper at 0xb624fb3c&gt;</div></td></tr><tr><td style="font-weight:bold;vertical-align:top;">wsgi.input</td><td style="vertical-align:top;">:</td><td><div>&lt;socket._fileobject object at 0xb61d1eec&gt;</div></td></tr><tr><td style="font-weight:bold;vertical-align:top;">wsgi.multiprocess</td><td style="vertical-align:top;">:</td><td><div>False</div></td></tr><tr><td style="font-weight:bold;vertical-align:top;">wsgi.multithread</td><td style="vertical-align:top;">:</td><td><div>True</div></td></tr><tr><td style="font-weight:bold;vertical-align:top;">wsgi.run_once</td><td style="vertical-align:top;">:</td><td><div>False</div></td></tr><tr><td style="font-weight:bold;vertical-align:top;">wsgi.url_scheme</td><td style="vertical-align:top;">:</td><td><div>http</div></td></tr><tr><td style="font-weight:bold;vertical-align:top;">wsgi.version</td><td style="vertical-align:top;">:</td><td><div><table><tr><td><div>1</div></td></tr><tr><td><div>0</div></td></tr></table></div></td></tr><tr><td style="font-weight:bold;vertical-align:top;">wsgi_errors</td><td style="vertical-align:top;">:</td><td><div>&lt;open file &#x27;&lt;stderr&gt;&#x27;, mode &#x27;w&#x27; at 0xb749c0d0&gt;</div></td></tr><tr><td style="font-weight:bold;vertical-align:top;">wsgi_file_wrapper</td><td style="vertical-align:top;">:</td><td><div>&lt;class wsgiref.util.FileWrapper at 0xb624fb3c&gt;</div></td></tr><tr><td style="font-weight:bold;vertical-align:top;">wsgi_input</td><td style="vertical-align:top;">:</td><td><div>&lt;socket._fileobject object at 0xb61d1eec&gt;</div></td></tr><tr><td style="font-weight:bold;vertical-align:top;">wsgi_multiprocess</td><td style="vertical-align:top;">:</td><td><div>False</div></td></tr><tr><td style="font-weight:bold;vertical-align:top;">wsgi_multithread</td><td style="vertical-align:top;">:</td><td><div>True</div></td></tr><tr><td style="font-weight:bold;vertical-align:top;">wsgi_run_once</td><td style="vertical-align:top;">:</td><td><div>False</div></td></tr><tr><td style="font-weight:bold;vertical-align:top;">wsgi_url_scheme</td><td style="vertical-align:top;">:</td><td><div>http</div></td></tr><tr><td style="font-weight:bold;vertical-align:top;">wsgi_version</td><td style="vertical-align:top;">:</td><td><div><table><tr><td><div>1</div></td></tr><tr><td><div>0</div></td></tr></table></div></td></tr></table></div></td></tr><tr><td style="font-weight:bold;vertical-align:top;">extension</td><td style="vertical-align:top;">:</td><td><div>html</div></td></tr><tr><td style="font-weight:bold;vertical-align:top;">folder</td><td style="vertical-align:top;">:</td><td><div>/home/sandra/Documents/web2py/applications/sigulab2/</div></td></tr><tr><td style="font-weight:bold;vertical-align:top;">function</td><td style="vertical-align:top;">:</td><td><div>index</div></td></tr><tr><td style="font-weight:bold;vertical-align:top;">global_settings</td><td style="vertical-align:top;">:</td><td><div><table><tr><td style="font-weight:bold;vertical-align:top;">app_folders</td><td style="vertical-align:top;">:</td><td><div>set([&#x27;/home/sandra/Documents/web2py/applications/sigulab2/&#x27;])</div></td></tr><tr><td style="font-weight:bold;vertical-align:top;">applications_parent</td><td style="vertical-align:top;">:</td><td><div>/home/sandra/Documents/web2py</div></td></tr><tr><td style="font-weight:bold;vertical-align:top;">cmd_args</td><td style="vertical-align:top;">:</td><td><div><table></table></div></td></tr><tr><td style="font-weight:bold;vertical-align:top;">cmd_options</td><td style="vertical-align:top;">:</td><td><div>&lt;Values at 0xb621ef8c: {&#x27;verbose&#x27;: False, &#x27;ip&#x27;: &#x27;127.0.0.1&#x27;, &#x27;debuglevel&#x27;: 30, &#x27;with_scheduler&#x27;: False, &#x27;shutdown_timeout&#x27;: 5, &#x27;taskbar&#x27;: False, &#x27;with_coverage&#x27;: False, &#x27;pid_filename&#x27;: &#x27;httpserver.pid&#x27;, &#x27;maxthreads&#x27;: None, &#x27;softcron&#x27;: False, &#x27;server_name&#x27;: &#x27;sandra-VIT&#x27;, &#x27;bpython&#x27;: False, &#x27;nogui&#x27;: False, &#x27;port&#x27;: 8000, &#x27;print_errors&#x27;: False, &#x27;extcron&#x27;: False, &#x27;runcron&#x27;: False, &#x27;run_system_tests&#x27;: False, &#x27;test&#x27;: None, &#x27;folder&#x27;: &#x27;/home/sandra/Documents/web2py&#x27;, &#x27;config&#x27;: &#x27;&#x27;, &#x27;minthreads&#x27;: None, &#x27;shell&#x27;: None, &#x27;run&#x27;: &#x27;&#x27;, &#x27;log_filename&#x27;: &#x27;httpserver.log&#x27;, &#x27;profiler_dir&#x27;: None, &#x27;args&#x27;: [&#x27;&#x27;], &#x27;socket_timeout&#x27;: 5, &#x27;ssl_ca_certificate&#x27;: None, &#x27;scheduler&#x27;: None, &#x27;interfaces&#x27;: None, &#x27;ssl_private_key&#x27;: &#x27;&#x27;, &#x27;gae&#x27;: None, &#x27;password&#x27;: &#x27;******&#x27;, &#x27;request_queue_size&#x27;: 5, &#x27;ssl_certificate&#x27;: &#x27;&#x27;, &#x27;cronjob&#x27;: False, &#x27;numthreads&#x27;: None, &#x27;quiet&#x27;: False, &#x27;import_models&#x27;: False, &#x27;timeout&#x27;: 10, &#x27;plain&#x27;: False, &#x27;nobanner&#x27;: False}&gt;</div></td></tr><tr><td style="font-weight:bold;vertical-align:top;">db_sessions</td><td style="vertical-align:top;">:</td><td><div>set([])</div></td></tr><tr><td style="font-weight:bold;vertical-align:top;">debugging</td><td style="vertical-align:top;">:</td><td><div>False</div></td></tr><tr><td style="font-weight:bold;vertical-align:top;">gluon_parent</td><td style="vertical-align:top;">:</td><td><div>/home/sandra/Documents/web2py</div></td></tr><tr><td style="font-weight:bold;vertical-align:top;">is_jython</td><td style="vertical-align:top;">:</td><td><div>False</div></td></tr><tr><td style="font-weight:bold;vertical-align:top;">is_py2</td><td style="vertical-align:top;">:</td><td><div>True</div></td></tr><tr><td style="font-weight:bold;vertical-align:top;">is_pypy</td><td style="vertical-align:top;">:</td><td><div>False</div></td></tr><tr><td style="font-weight:bold;vertical-align:top;">is_source</td><td style="vertical-align:top;">:</td><td><div>True</div></td></tr><tr><td style="font-weight:bold;vertical-align:top;">local_hosts</td><td style="vertical-align:top;">:</td><td><div><table><tr><td><div>sandra-VIT</div></td></tr><tr><td><div>::1</div></td></tr><tr><td><div>127.0.1.1</div></td></tr><tr><td><div>::ffff:127.0.0.1</div></td></tr><tr><td><div>127.0.0.1</div></td></tr></table></div></td></tr><tr><td style="font-weight:bold;vertical-align:top;">web2py_version</td><td style="vertical-align:top;">:</td><td><div>2.16.1-stable+timestamp.2017.11.14.05.54.25</div></td></tr></table></div></td></tr><tr><td style="font-weight:bold;vertical-align:top;">is_https</td><td style="vertical-align:top;">:</td><td><div>False</div></td></tr><tr><td style="font-weight:bold;vertical-align:top;">is_local</td><td style="vertical-align:top;">:</td><td><div>True</div></td></tr><tr><td style="font-weight:bold;vertical-align:top;">is_restful</td><td style="vertical-align:top;">:</td><td><div>False</div></td></tr><tr><td style="font-weight:bold;vertical-align:top;">is_scheduler</td><td style="vertical-align:top;">:</td><td><div>False</div></td></tr><tr><td style="font-weight:bold;vertical-align:top;">is_shell</td><td style="vertical-align:top;">:</td><td><div>False</div></td></tr><tr><td style="font-weight:bold;vertical-align:top;">now</td><td style="vertical-align:top;">:</td><td><div>datetime.datetime(2018, 6, 20, 16, 7, 59, 15320)</div></td></tr><tr><td style="font-weight:bold;vertical-align:top;">raw_args</td><td style="vertical-align:top;">:</td><td><div></div></td></tr><tr><td style="font-weight:bold;vertical-align:top;">raw_extension</td><td style="vertical-align:top;">:</td><td><div>None</div></td></tr><tr><td style="font-weight:bold;vertical-align:top;">url</td><td style="vertical-align:top;">:</td><td><div>/sigulab2/default/index</div></td></tr><tr><td style="font-weight:bold;vertical-align:top;">utcnow</td><td style="vertical-align:top;">:</td><td><div>datetime.datetime(2018, 6, 20, 20, 7, 59, 15340)</div></td></tr><tr><td style="font-weight:bold;vertical-align:top;">wsgi</td><td style="vertical-align:top;">:</td><td><div>&lt;gluon.main.LazyWSGI object at 0xb61f6bcc&gt;</div></td></tr></table></div>'
tRp70
sS'frames'
p71
(lp72
(dp73
S'file'
p74
S'/home/sandra/Documents/web2py/gluon/restricted.py'
p75
sS'dump'
p76
(dp77
S'environment'
p78
S"{'A': <class 'gluon.html.A'>, 'ANY_OF': <class 'gluon.validators.ANY_OF'>, 'ASSIGNJS': <function ASSIGNJS>, 'AppConfig': <function AppConfig>, 'Auth': <class 'gluon.tools.Auth'>, 'B': <class 'gluon.html.B'>, 'BEAUTIFY': <class 'gluon.html.BEAUTIFY'>, 'BODY': <class 'gluon.html.BODY'>, 'BR': <class 'gluon.html.BR'>, 'BUTTON': <class 'gluon.html.BUTTON'>, ...}"
p79
sS'ccode'
p80
S'<code object <module> at 0xb6eb1968, file "/home...ations/sigulab2/models/t_inventarios.py", line 8>'
p81
ssS'lnum'
p82
I219
sS'lines'
p83
(dp84
I214
S'    if environment is None:'
p85
sI215
S'        environment = {}'
p86
sI216
S"    environment['__file__'] = layer"
p87
sI217
S"    environment['__name__'] = '__restricted__'"
p88
sI218
S'    try:'
p89
sI219
S'        exec(ccode, environment)'
p90
sI220
S'    except HTTP:'
p91
sI221
S'        raise'
p92
sI222
S'    except RestrictedError:'
p93
sI223
S'        # do not encapsulate (obfuscate) the original RestrictedError'
p94
ssS'call'
p95
S'(ccode=<code object <module> at 0xb6eb1968, file "/home...ations/sigulab2/models/t_inventarios.py", line 8>, environment={\'A\': <class \'gluon.html.A\'>, \'ANY_OF\': <class \'gluon.validators.ANY_OF\'>, \'ASSIGNJS\': <function ASSIGNJS>, \'AppConfig\': <function AppConfig>, \'Auth\': <class \'gluon.tools.Auth\'>, \'B\': <class \'gluon.html.B\'>, \'BEAUTIFY\': <class \'gluon.html.BEAUTIFY\'>, \'BODY\': <class \'gluon.html.BODY\'>, \'BR\': <class \'gluon.html.BR\'>, \'BUTTON\': <class \'gluon.html.BUTTON\'>, ...}, layer=\'/home/sandra/Documents/web2py/applications/sigulab2/models/t_inventarios.py\', scode=<code object <module> at 0xb6eb1968, file "/home...ations/sigulab2/models/t_inventarios.py", line 8>)'
p96
sS'func'
p97
S'restricted'
p98
sa(dp99
g74
S'/home/sandra/Documents/web2py/applications/sigulab2/models/t_inventarios.py'
p100
sg76
(dp101
S'IS_INT_IN_RANGE'
p102
S"<class 'gluon.validators.IS_INT_IN_RANGE'>"
p103
sS'default'
p104
S'undefined'
p105
sS'label'
p106
g105
sS'Field'
p107
S"<class 'pydal.objects.Field'>"
p108
sS'T'
S'<gluon.languages.translator object>'
p109
sS'requires'
p110
g105
ssg82
I90
sg83
(dp111
I85
S"    Field('mbn_localizacion','string',label=T('Localizaci\xc3\xb3n'), requires=IS_EMPTY_OR(IS_IN_SET(['Edo Miranda, Municipio Baruta, Parroquia Baruta','Edo Vargas, Municipio Vargas, Parroquia Macuto']))),"
p112
sI86
S"    Field('mbn_modifica_ficha', 'reference auth_user', label = T('Usuario que modifica la ficha')),"
p113
sI87
S'    # Estado = -1 :Denegado'
p114
sI88
S'    # Estado = 0  :Por validaci\xc3\xb3n'
p115
sI89
S'    # Estado = 1  :Aceptado'
p116
sI90
S"    Field('estado','integer', default=0, label=T('Estado de Solicitud de Modificacion'), requires=IS_INT_IN_RANGE(-1,2))"
p117
sI91
S'    )'
p118
sI92
S''
sI93
S"db.modificacion_bien_mueble.mbn_num.requires = IS_IN_DB(db, db.bien_mueble.id, '%(bm_num)s')"
p119
sI94
S"db.modificacion_bien_mueble.mbn_modifica_ficha.requires = IS_IN_DB(db, db.auth_user, '%(first_name)s %(last_name)s | %(email)s')"
p120
ssg95
S'()'
p121
sg97
S'<module>'
p122
sa(dp123
g74
S'/home/sandra/Documents/web2py/gluon/packages/dal/pydal/base.py'
p124
sg76
(dp125
S'fields'
p126
S'(<pydal.objects.Field object>, <pydal.objects.Field object>, <pydal.objects.Field object>, <pydal.objects.Field object>, <pydal.objects.Field object>, <pydal.objects.Field object>, <pydal.objects.Field object>, <pydal.objects.Field object>, <pydal.objects.Field object>, <pydal.objects.Field object>, <pydal.objects.Field object>, <pydal.objects.Field object>, <pydal.objects.Field object>, <pydal.objects.Field object>, <pydal.objects.Field object>, <pydal.objects.Field object>, <pydal.objects.Field object>, <pydal.objects.Field object>, <pydal.objects.Field object>, <pydal.objects.Field object>, ...)'
p127
sS'self'
p128
S'<DAL uri="postgres:******@localhost:5432/sigulab2">'
p129
sS'args'
p130
S'{}'
p131
sS'tablename'
p132
S"'modificacion_bien_mueble'"
p133
sS'table'
p134
g105
sS'self.lazy_define_table'
p135
S'<bound method DAL.lazy_define_table of <DAL uri="postgres:******@localhost:5432/sigulab2">>'
p136
ssg82
I586
sg83
(dp137
I581
S'                                  (tablename, invalid_args))'
p138
sI582
S'        if self._lazy_tables and tablename not in self._LAZY_TABLES:'
p139
sI583
S'            self._LAZY_TABLES[tablename] = (tablename, fields, args)'
p140
sI584
S'            table = None'
p141
sI585
S'        else:'
p142
sI586
S'            table = self.lazy_define_table(tablename, *fields, **args)'
p143
sI587
S'        if tablename not in self.tables:'
p144
sI588
S'            self.tables.append(tablename)'
p145
sI589
S'        return table'
p146
sI590
S''
ssg95
S'(self=<DAL uri="postgres:******@localhost:5432/sigulab2">, tablename=\'modificacion_bien_mueble\', *fields=(<pydal.objects.Field object>, <pydal.objects.Field object>, <pydal.objects.Field object>, <pydal.objects.Field object>, <pydal.objects.Field object>, <pydal.objects.Field object>, <pydal.objects.Field object>, <pydal.objects.Field object>, <pydal.objects.Field object>, <pydal.objects.Field object>, <pydal.objects.Field object>, <pydal.objects.Field object>, <pydal.objects.Field object>, <pydal.objects.Field object>, <pydal.objects.Field object>, <pydal.objects.Field object>, <pydal.objects.Field object>, <pydal.objects.Field object>, <pydal.objects.Field object>, <pydal.objects.Field object>, ...), **args={})'
p147
sg97
S'define_table'
p148
sa(dp149
g74
S'/home/sandra/Documents/web2py/gluon/packages/dal/pydal/base.py'
p150
sg76
(dp151
S'polymodel'
p152
S'None'
p153
ssg82
I620
sg83
(dp154
I615
S'            try:'
p155
sI616
S'                GLOBAL_LOCKER.acquire()'
p156
sI617
S'                self._adapter.create_table('
p157
sI618
S'                    table, migrate=migrate,'
p158
sI619
S'                    fake_migrate=fake_migrate,'
p159
sI620
S'                    polymodel=polymodel)'
p160
sI621
S'            finally:'
p161
sI622
S'                GLOBAL_LOCKER.release()'
p162
sI623
S'        else:'
p163
sI624
S'            table._dbt = None'
p164
ssg95
S'(self=<DAL uri="postgres:******@localhost:5432/sigulab2">, tablename=\'modificacion_bien_mueble\', *fields=(<pydal.objects.Field object>, <pydal.objects.Field object>, <pydal.objects.Field object>, <pydal.objects.Field object>, <pydal.objects.Field object>, <pydal.objects.Field object>, <pydal.objects.Field object>, <pydal.objects.Field object>, <pydal.objects.Field object>, <pydal.objects.Field object>, <pydal.objects.Field object>, <pydal.objects.Field object>, <pydal.objects.Field object>, <pydal.objects.Field object>, <pydal.objects.Field object>, <pydal.objects.Field object>, <pydal.objects.Field object>, <pydal.objects.Field object>, <pydal.objects.Field object>, <pydal.objects.Field object>, ...), **args={})'
p165
sg97
S'lazy_define_table'
p166
sa(dp167
g74
S'/home/sandra/Documents/web2py/gluon/packages/dal/pydal/adapters/base.py'
p168
sg76
(dp169
S'self'
p170
S'<pydal.adapters.postgres.PostgrePsyco object>'
p171
sS'args'
p172
S'(<Table modificacion_bien_mueble (id, mbn_nombre,...n, mbn_localizacion, mbn_modifica_ficha, estado)>,)'
p173
sS'self.migrator'
p174
S'<pydal.migrator.Migrator object>'
p175
sS'self.migrator.create_table'
p176
S'<bound method Migrator.create_table of <pydal.migrator.Migrator object>>'
p177
sS'kwargs'
p178
S"{'fake_migrate': False, 'migrate': True, 'polymodel': None}"
p179
ssg82
I797
sg83
(dp180
I800
S'        super(SQLAdapter, self)._drop_table_cleanup(table)'
p181
sI801
S'        if table._dbt:'
p182
sI792
S''
sI793
S'    def bulk_insert(self, table, items):'
p183
sI794
S'        return [self.insert(table, item) for item in items]'
p184
sI795
S''
sI796
S'    def create_table(self, *args, **kwargs):'
p185
sI797
S'        return self.migrator.create_table(*args, **kwargs)'
p186
sI798
S''
sI799
S'    def _drop_table_cleanup(self, table):'
p187
ssg95
S"(self=<pydal.adapters.postgres.PostgrePsyco object>, *args=(<Table modificacion_bien_mueble (id, mbn_nombre,...n, mbn_localizacion, mbn_modifica_ficha, estado)>,), **kwargs={'fake_migrate': False, 'migrate': True, 'polymodel': None})"
p188
sg97
S'create_table'
p189
sa(dp190
g74
S'/home/sandra/Documents/web2py/gluon/packages/dal/pydal/migrator.py'
p191
sg76
(dp192
S'fake_migrate'
p193
S'False'
p194
ssg82
I314
sg83
(dp195
I309
S'            if sql_fields != sql_fields_old:'
p196
sI310
S'                self.migrate_table('
p197
sI311
S'                    table,'
p198
sI312
S'                    sql_fields, sql_fields_old,'
p199
sI313
S'                    sql_fields_aux, None,'
p200
sI314
S'                    fake_migrate=fake_migrate'
p201
sI315
S'                    )'
p202
sI316
S'        return query'
p203
sI317
S''
sI318
S'    def _fix(self, item):'
p204
ssg95
S'(self=<pydal.migrator.Migrator object>, table=<Table modificacion_bien_mueble (id, mbn_nombre,...n, mbn_localizacion, mbn_modifica_ficha, estado)>, migrate=True, fake_migrate=False, polymodel=None)'
p205
sg97
g189
sa(dp206
g74
S'/home/sandra/Documents/web2py/gluon/packages/dal/pydal/migrator.py'
p207
sg76
(dp208
S'self'
p209
S'<pydal.migrator.Migrator object>'
p210
sS'self.adapter.execute'
p211
S'<bound method PostgrePsyco.wrap of <pydal.adapters.postgres.PostgrePsyco object>>'
p212
sS'self.adapter'
p213
S'<pydal.adapters.postgres.PostgrePsyco object>'
p214
sS'sub_query'
p215
S'\'ALTER TABLE "modificacion_bien_mueble" ADD "mbn_num__tmp" VARCHAR(512) NOT NULL UNIQUE;\''
p216
ssg82
I447
sg83
(dp217
I448
S'                        # Caveat: mysql, oracle and firebird'
p218
sI449
S'                        # do not allow multiple alter table'
p219
sI450
S'                        # in one transaction so we must commit'
p220
sI451
S'                        # partial transactions and'
p221
sI442
S'                    if fake_migrate:'
p222
sI443
S'                        if db._adapter.commit_on_alter_table:'
p223
sI444
S'                            self.save_dbt(table, sql_fields_current)'
p224
sI445
S"                        self.log('faked!\\n', table)"
p225
sI446
S'                    else:'
p226
sI447
S'                        self.adapter.execute(sub_query)'
p227
ssg95
S'(self=<pydal.migrator.Migrator object>, table=<Table modificacion_bien_mueble (id, mbn_nombre,...n, mbn_localizacion, mbn_modifica_ficha, estado)>, sql_fields={\'estado\': {\'length\': 512, \'notnull\': False, \'raw_rname\': \'estado\', \'rname\': \'"estado"\', \'sortable\': 26, \'sql\': \'INTEGER\', \'type\': \'integer\', \'unique\': False}, \'id\': {\'length\': 512, \'notnull\': False, \'raw_rname\': \'id\', \'rname\': \'"id"\', \'sortable\': 1, \'sql\': \'SERIAL PRIMARY KEY\', \'type\': \'id\', \'unique\': False}, \'mbm_calibrar\': {\'length\': 512, \'notnull\': False, \'raw_rname\': \'mbm_calibrar\', \'rname\': \'"mbm_calibrar"\', \'sortable\': 11, \'sql\': \'VARCHAR(512)\', \'type\': \'string\', \'unique\': False}, \'mbn_alto\': {\'length\': 512, \'notnull\': False, \'raw_rname\': \'mbn_alto\', \'rname\': \'"mbn_alto"\', \'sortable\': 16, \'sql\': \'FLOAT8\', \'type\': \'double\', \'unique\': False}, \'mbn_ancho\': {\'length\': 512, \'notnull\': False, \'raw_rname\': \'mbn_ancho\', \'rname\': \'"mbn_ancho"\', \'sortable\': 14, \'sql\': \'FLOAT8\', \'type\': \'double\', \'unique\': False}, \'mbn_categoria\': {\'length\': 512, \'notnull\': False, \'raw_rname\': \'mbn_categoria\', \'rname\': \'"mbn_categoria"\', \'sortable\': 21, \'sql\': \'VARCHAR(512)\', \'type\': \'string\', \'unique\': False}, \'mbn_codigo_localizacion\': {\'length\': 512, \'notnull\': False, \'raw_rname\': \'mbn_codigo_localizacion\', \'rname\': \'"mbn_codigo_localizacion"\', \'sortable\': 23, \'sql\': \'VARCHAR(512)\', \'type\': \'string\', \'unique\': False}, \'mbn_color\': {\'length\': 512, \'notnull\': False, \'raw_rname\': \'mbn_color\', \'rname\': \'"mbn_color"\', \'sortable\': 10, \'sql\': \'VARCHAR(512)\', \'type\': \'string\', \'unique\': False}, \'mbn_descripcion\': {\'length\': 32768, \'notnull\': False, \'raw_rname\': \'mbn_descripcion\', \'rname\': \'"mbn_descripcion"\', \'sortable\': 8, \'sql\': \'TEXT\', \'type\': \'text\', \'unique\': False}, \'mbn_diametro\': {\'length\': 512, \'notnull\': False, \'raw_rname\': \'mbn_diametro\', \'rname\': \'"mbn_diametro"\', \'sortable\': 17, \'sql\': \'FLOAT8\', \'type\': \'double\', \'unique\': False}, ...}, sql_fields_old={\'estado\': {\'length\': 512, \'notnull\': False, \'raw_rname\': \'estado\', \'rname\': \'"estado"\', \'sortable\': 25, \'sql\': \'INTEGER\', \'type\': \'integer\', \'unique\': False}, \'id\': {\'length\': 512, \'notnull\': False, \'raw_rname\': \'id\', \'rname\': \'"id"\', \'sortable\': 1, \'sql\': \'SERIAL PRIMARY KEY\', \'type\': \'id\', \'unique\': False}, \'mbm_calibrar\': {\'length\': 512, \'notnull\': False, \'raw_rname\': \'mbm_calibrar\', \'rname\': \'"mbm_calibrar"\', \'sortable\': 11, \'sql\': \'VARCHAR(512)\', \'type\': \'string\', \'unique\': False}, \'mbn_alto\': {\'length\': 512, \'notnull\': False, \'raw_rname\': \'mbn_alto\', \'rname\': \'"mbn_alto"\', \'sortable\': 16, \'sql\': \'FLOAT8\', \'type\': \'double\', \'unique\': False}, \'mbn_ancho\': {\'length\': 512, \'notnull\': False, \'raw_rname\': \'mbn_ancho\', \'rname\': \'"mbn_ancho"\', \'sortable\': 14, \'sql\': \'FLOAT8\', \'type\': \'double\', \'unique\': False}, \'mbn_categoria\': {\'length\': 512, \'notnull\': False, \'raw_rname\': \'mbn_categoria\', \'rname\': \'"mbn_categoria"\', \'sortable\': 21, \'sql\': \'VARCHAR(512)\', \'type\': \'string\', \'unique\': False}, \'mbn_codigo_localizacion\': {\'length\': 512, \'notnull\': False, \'raw_rname\': \'mbn_codigo_localizacion\', \'rname\': \'"mbn_codigo_localizacion"\', \'sortable\': 23, \'sql\': \'VARCHAR(512)\', \'type\': \'string\', \'unique\': False}, \'mbn_color\': {\'length\': 512, \'notnull\': False, \'raw_rname\': \'mbn_color\', \'rname\': \'"mbn_color"\', \'sortable\': 10, \'sql\': \'VARCHAR(512)\', \'type\': \'string\', \'unique\': False}, \'mbn_descripcion\': {\'length\': 32768, \'notnull\': False, \'raw_rname\': \'mbn_descripcion\', \'rname\': \'"mbn_descripcion"\', \'sortable\': 8, \'sql\': \'TEXT\', \'type\': \'text\', \'unique\': False}, \'mbn_diametro\': {\'length\': 512, \'notnull\': False, \'raw_rname\': \'mbn_diametro\', \'rname\': \'"mbn_diametro"\', \'sortable\': 17, \'sql\': \'FLOAT8\', \'type\': \'double\', \'unique\': False}, ...}, sql_fields_aux={\'estado\': {\'sql\': \'INTEGER\'}, \'id\': {\'sql\': \'SERIAL PRIMARY KEY\'}, \'mbm_calibrar\': {\'sql\': \'VARCHAR(512)\'}, \'mbn_alto\': {\'sql\': \'FLOAT8\'}, \'mbn_ancho\': {\'sql\': \'FLOAT8\'}, \'mbn_categoria\': {\'sql\': \'VARCHAR(512)\'}, \'mbn_codigo_localizacion\': {\'sql\': \'VARCHAR(512)\'}, \'mbn_color\': {\'sql\': \'VARCHAR(512)\'}, \'mbn_descripcion\': {\'sql\': \'TEXT\'}, \'mbn_diametro\': {\'sql\': \'FLOAT8\'}, ...}, logfile=None, fake_migrate=False)'
p228
sg97
S'migrate_table'
p229
sa(dp230
g74
S'/home/sandra/Documents/web2py/gluon/packages/dal/pydal/adapters/__init__.py'
p231
sg76
(dp232
S'kwargs'
p233
g131
sS'args'
p234
S'(<pydal.adapters.postgres.PostgrePsyco object>, \'ALTER TABLE "modificacion_bien_mueble" ADD "mbn_num__tmp" VARCHAR(512) NOT NULL UNIQUE;\')'
p235
sS'f'
S'<function execute>'
p236
ssg82
I67
sg83
(dp237
I64
S'            if len(args) > 1:'
p238
sI65
S'                raise ValueError(args[1])'
p239
sI66
S"            raise RuntimeError('no connection available')"
p240
sI67
S'        return f(*args, **kwargs)'
p241
sI68
S'    return wrap'
p242
sI69
S''
sI70
S''
sI71
S'from .base import SQLAdapter, NoSQLAdapter'
p243
sI62
S'    def wrap(*args, **kwargs):'
p244
sI63
S'        if not args[0].connection:'
p245
ssg95
S'(*args=(<pydal.adapters.postgres.PostgrePsyco object>, \'ALTER TABLE "modificacion_bien_mueble" ADD "mbn_num__tmp" VARCHAR(512) NOT NULL UNIQUE;\'), **kwargs={})'
p246
sg97
S'wrap'
p247
sa(dp248
g74
S'/home/sandra/Documents/web2py/gluon/packages/dal/pydal/adapters/base.py'
p249
sg76
(dp250
S'rv'
p251
g105
sS'self'
p252
S'<pydal.adapters.postgres.PostgrePsyco object>'
p253
sS'args'
p254
S'(\'ALTER TABLE "modificacion_bien_mueble" ADD "mbn_num__tmp" VARCHAR(512) NOT NULL UNIQUE;\',)'
p255
sS'self.cursor'
p256
S'<cursor object at 0xb594598c; closed: 0>'
p257
sS'command'
p258
S'\'ALTER TABLE "modificacion_bien_mueble" ADD "mbn_num__tmp" VARCHAR(512) NOT NULL UNIQUE;\''
p259
sS'self.cursor.execute'
p260
S'<built-in method execute of psycopg2._psycopg.cursor object>'
p261
sS'kwargs'
p262
g131
ssg82
I412
sg83
(dp263
I416
S''
sI407
S'    def execute(self, *args, **kwargs):'
p264
sI408
S'        command = self.filter_sql_command(args[0])'
p265
sI409
S'        handlers = self._build_handlers_for_execution()'
p266
sI410
S'        for handler in handlers:'
p267
sI411
S'            handler.before_execute(command)'
p268
sI412
S'        rv = self.cursor.execute(command, *args[1:], **kwargs)'
p269
sI413
S'        for handler in handlers:'
p270
sI414
S'            handler.after_execute(command)'
p271
sI415
S'        return rv'
p272
ssg95
S'(self=<pydal.adapters.postgres.PostgrePsyco object>, *args=(\'ALTER TABLE "modificacion_bien_mueble" ADD "mbn_num__tmp" VARCHAR(512) NOT NULL UNIQUE;\',), **kwargs={})'
p273
sg97
S'execute'
p274
sasS'pyver'
p275
S'Python 2.7.6: /usr/bin/python (prefix: /usr)'
p276
sS'session'
p277
g69
(S's\x8d\t\x00\x00<div><table><tr><td style="font-weight:bold;vertical-align:top;">auth</td><td style="vertical-align:top;">:</td><td><div><table><tr><td style="font-weight:bold;vertical-align:top;">expiration</td><td style="vertical-align:top;">:</td><td><div>3600</div></td></tr><tr><td style="font-weight:bold;vertical-align:top;">hmac_key</td><td style="vertical-align:top;">:</td><td><div>a7a3bdbf-cf30-4a11-afe7-bb989f866930</div></td></tr><tr><td style="font-weight:bold;vertical-align:top;">last_visit</td><td style="vertical-align:top;">:</td><td><div>datetime.datetime(2018, 6, 20, 16, 7, 59, 15320)</div></td></tr><tr><td style="font-weight:bold;vertical-align:top;">user</td><td style="vertical-align:top;">:</td><td><div><table><tr><td style="font-weight:bold;vertical-align:top;">email</td><td style="vertical-align:top;">:</td><td><div>sigulabusb@gmail.com</div></td></tr><tr><td style="font-weight:bold;vertical-align:top;">first_name</td><td style="vertical-align:top;">:</td><td><div>Super Usuario</div></td></tr><tr><td style="font-weight:bold;vertical-align:top;">id</td><td style="vertical-align:top;">:</td><td><div>1L</div></td></tr><tr><td style="font-weight:bold;vertical-align:top;">last_name</td><td style="vertical-align:top;">:</td><td><div></div></td></tr><tr><td style="font-weight:bold;vertical-align:top;">registration_id</td><td style="vertical-align:top;">:</td><td><div></div></td></tr><tr><td style="font-weight:bold;vertical-align:top;">registration_key</td><td style="vertical-align:top;">:</td><td><div></div></td></tr><tr><td style="font-weight:bold;vertical-align:top;">reset_password_key</td><td style="vertical-align:top;">:</td><td><div></div></td></tr></table></div></td></tr><tr><td style="font-weight:bold;vertical-align:top;">user_groups</td><td style="vertical-align:top;">:</td><td><div><table><tr><td style="font-weight:bold;vertical-align:top;">1</td><td style="vertical-align:top;">:</td><td><div>WEBMASTER</div></td></tr></table></div></td></tr></table></div></td></tr><tr><td style="font-weight:bold;vertical-align:top;">flash</td><td style="vertical-align:top;">:</td><td><div>None</div></td></tr><tr><td style="font-weight:bold;vertical-align:top;">last_orderby</td><td style="vertical-align:top;">:</td><td><div>None</div></td></tr><tr><td style="font-weight:bold;vertical-align:top;">last_query</td><td style="vertical-align:top;">:</td><td><div>db.espacios_fisicos.id&gt;0</div></td></tr></table></div>'
tRp278
sS'etype'
p279
S"<class 'psycopg2.IntegrityError'>"
p280
sS'date'
p281
S'Wed Jun 20 16:07:59 2018'
p282
sS'response'
p283
g69
(S's\xa7?\x00\x00<div><table><tr><td style="font-weight:bold;vertical-align:top;">body</td><td style="vertical-align:top;">:</td><td><div>&lt;cStringIO.StringO object at 0xb61f6760&gt;</div></td></tr><tr><td style="font-weight:bold;vertical-align:top;">cookies</td><td style="vertical-align:top;">:</td><td><div><table><tr><td style="font-weight:bold;vertical-align:top;">session_id_sigulab2</td><td style="vertical-align:top;">:</td><td><div>127.0.0.1-7f507d1c-d88b-479c-86f9-e1026851fda4<table><tr><td style="font-weight:bold;vertical-align:top;">comment</td><td style="vertical-align:top;">:</td><td><div></div></td></tr><tr><td style="font-weight:bold;vertical-align:top;">domain</td><td style="vertical-align:top;">:</td><td><div></div></td></tr><tr><td style="font-weight:bold;vertical-align:top;">expires</td><td style="vertical-align:top;">:</td><td><div></div></td></tr><tr><td style="font-weight:bold;vertical-align:top;">httponly</td><td style="vertical-align:top;">:</td><td><div></div></td></tr><tr><td style="font-weight:bold;vertical-align:top;">max-age</td><td style="vertical-align:top;">:</td><td><div></div></td></tr><tr><td style="font-weight:bold;vertical-align:top;">path</td><td style="vertical-align:top;">:</td><td><div>/</div></td></tr><tr><td style="font-weight:bold;vertical-align:top;">secure</td><td style="vertical-align:top;">:</td><td><div></div></td></tr><tr><td style="font-weight:bold;vertical-align:top;">version</td><td style="vertical-align:top;">:</td><td><div></div></td></tr></table></div></td></tr></table></div></td></tr><tr><td style="font-weight:bold;vertical-align:top;">delimiters</td><td style="vertical-align:top;">:</td><td><div><table><tr><td><div>{{</div></td></tr><tr><td><div>}}</div></td></tr></table></div></td></tr><tr><td style="font-weight:bold;vertical-align:top;">files</td><td style="vertical-align:top;">:</td><td><div><table></table></div></td></tr><tr><td style="font-weight:bold;vertical-align:top;">flash</td><td style="vertical-align:top;">:</td><td><div></div></td></tr><tr><td style="font-weight:bold;vertical-align:top;">form_label_separator</td><td style="vertical-align:top;">:</td><td><div></div></td></tr><tr><td style="font-weight:bold;vertical-align:top;">formstyle</td><td style="vertical-align:top;">:</td><td><div>bootstrap3_inline</div></td></tr><tr><td style="font-weight:bold;vertical-align:top;">generic_patterns</td><td style="vertical-align:top;">:</td><td><div><table><tr><td><div>*</div></td></tr></table></div></td></tr><tr><td style="font-weight:bold;vertical-align:top;">google_analytics_id</td><td style="vertical-align:top;">:</td><td><div>None</div></td></tr><tr><td style="font-weight:bold;vertical-align:top;">headers</td><td style="vertical-align:top;">:</td><td><div><table><tr><td style="font-weight:bold;vertical-align:top;">X-Powered-By</td><td style="vertical-align:top;">:</td><td><div>web2py</div></td></tr></table></div></td></tr><tr><td style="font-weight:bold;vertical-align:top;">logo</td><td style="vertical-align:top;">:</td><td><div><a class="navbar-brand" href="http://www.web2py.com/" id="web2py-logo"><b>web<span>2</span>py</b>&trade;&nbsp;</a></div></td></tr><tr><td style="font-weight:bold;vertical-align:top;">menu</td><td style="vertical-align:top;">:</td><td><div><table><tr><td><div><table><tr><td><div>Inicio</div></td></tr><tr><td><div>False</div></td></tr><tr><td><div>/sigulab2/default/index</div></td></tr><tr><td><div><table></table></div></td></tr></table></div></td></tr><tr><td><div><table><tr><td><div>Mis Sitios</div></td></tr><tr><td><div>False</div></td></tr><tr><td><div>/admin/default/site</div></td></tr></table></div></td></tr><tr><td><div><table><tr><td><div>Esta Aplicaci\xc3\xb3n</div></td></tr><tr><td><div>False</div></td></tr><tr><td><div>#</div></td></tr><tr><td><div><table><tr><td><div><table><tr><td><div>Dise\xc3\xb1o</div></td></tr><tr><td><div>False</div></td></tr><tr><td><div>/admin/default/design/sigulab2</div></td></tr></table></div></td></tr><tr><td><div><li class="divider"></li></div></td></tr><tr><td><div><table><tr><td><div>Controlador</div></td></tr><tr><td><div>False</div></td></tr><tr><td><div>/admin/default/edit/sigulab2/controllers/default.py</div></td></tr></table></div></td></tr><tr><td><div><table><tr><td><div>Vista</div></td></tr><tr><td><div>False</div></td></tr><tr><td><div>/admin/default/edit/sigulab2/views/default/index.html</div></td></tr></table></div></td></tr><tr><td><div><table><tr><td><div>Modelo BDD</div></td></tr><tr><td><div>False</div></td></tr><tr><td><div>/admin/default/edit/sigulab2/models/db.py</div></td></tr></table></div></td></tr><tr><td><div><table><tr><td><div>Modelo "menu"</div></td></tr><tr><td><div>False</div></td></tr><tr><td><div>/admin/default/edit/sigulab2/models/menu.py</div></td></tr></table></div></td></tr><tr><td><div><table><tr><td><div>Config.ini</div></td></tr><tr><td><div>False</div></td></tr><tr><td><div>/admin/default/edit/sigulab2/private/appconfig.ini</div></td></tr></table></div></td></tr><tr><td><div><table><tr><td><div>Dise\xc3\xb1o de p\xc3\xa1gina</div></td></tr><tr><td><div>False</div></td></tr><tr><td><div>/admin/default/edit/sigulab2/views/layout.html</div></td></tr></table></div></td></tr><tr><td><div><table><tr><td><div>Hoja de estilo</div></td></tr><tr><td><div>False</div></td></tr><tr><td><div>/admin/default/edit/sigulab2/static/css/web2py-bootstrap3.css</div></td></tr></table></div></td></tr><tr><td><div><table><tr><td><div>Base de datos</div></td></tr><tr><td><div>False</div></td></tr><tr><td><div>/sigulab2/appadmin/index</div></td></tr></table></div></td></tr><tr><td><div><table><tr><td><div>Errores</div></td></tr><tr><td><div>False</div></td></tr><tr><td><div>/admin/default/errors/sigulab2</div></td></tr></table></div></td></tr><tr><td><div><table><tr><td><div>Acerca de</div></td></tr><tr><td><div>False</div></td></tr><tr><td><div>/admin/default/about/sigulab2</div></td></tr></table></div></td></tr></table></div></td></tr></table></div></td></tr><tr><td><div><table><tr><td><div>web2py.com</div></td></tr><tr><td><div>False</div></td></tr><tr><td><div>#</div></td></tr><tr><td><div><table><tr><td><div><table><tr><td><div>Descargas</div></td></tr><tr><td><div>False</div></td></tr><tr><td><div>http://www.web2py.com/examples/default/download</div></td></tr></table></div></td></tr><tr><td><div><table><tr><td><div>Soporte</div></td></tr><tr><td><div>False</div></td></tr><tr><td><div>http://www.web2py.com/examples/default/support</div></td></tr></table></div></td></tr><tr><td><div><table><tr><td><div>Demostraci\xc3\xb3n</div></td></tr><tr><td><div>False</div></td></tr><tr><td><div>http://web2py.com/demo_admin</div></td></tr></table></div></td></tr><tr><td><div><table><tr><td><div>Ejemplos R\xc3\xa1pidos</div></td></tr><tr><td><div>False</div></td></tr><tr><td><div>http://web2py.com/examples/default/examples</div></td></tr></table></div></td></tr><tr><td><div><table><tr><td><div>Preguntas frecuentes</div></td></tr><tr><td><div>False</div></td></tr><tr><td><div>http://web2py.com/AlterEgo</div></td></tr></table></div></td></tr><tr><td><div><table><tr><td><div>V\xc3\xaddeos</div></td></tr><tr><td><div>False</div></td></tr><tr><td><div>http://www.web2py.com/examples/default/videos/</div></td></tr></table></div></td></tr><tr><td><div><table><tr><td><div>Aplicaciones Libres</div></td></tr><tr><td><div>False</div></td></tr><tr><td><div>http://web2py.com/appliances</div></td></tr></table></div></td></tr><tr><td><div><table><tr><td><div>Plugins</div></td></tr><tr><td><div>False</div></td></tr><tr><td><div>http://web2py.com/plugins</div></td></tr></table></div></td></tr><tr><td><div><table><tr><td><div>Recetas</div></td></tr><tr><td><div>False</div></td></tr><tr><td><div>http://web2pyslices.com/</div></td></tr></table></div></td></tr></table></div></td></tr></table></div></td></tr><tr><td><div><table><tr><td><div>Documentaci\xc3\xb3n</div></td></tr><tr><td><div>False</div></td></tr><tr><td><div>#</div></td></tr><tr><td><div><table><tr><td><div><table><tr><td><div>Libro Online</div></td></tr><tr><td><div>False</div></td></tr><tr><td><div>http://www.web2py.com/book</div></td></tr></table></div></td></tr><tr><td><div><li class="divider"></li></div></td></tr><tr><td><div><table><tr><td><div>Prefacio</div></td></tr><tr><td><div>False</div></td></tr><tr><td><div>http://www.web2py.com/book/default/chapter/00</div></td></tr></table></div></td></tr><tr><td><div><table><tr><td><div>Introducci\xc3\xb3n</div></td></tr><tr><td><div>False</div></td></tr><tr><td><div>http://www.web2py.com/book/default/chapter/01</div></td></tr></table></div></td></tr><tr><td><div><table><tr><td><div>Python</div></td></tr><tr><td><div>False</div></td></tr><tr><td><div>http://www.web2py.com/book/default/chapter/02</div></td></tr></table></div></td></tr><tr><td><div><table><tr><td><div>Resumen</div></td></tr><tr><td><div>False</div></td></tr><tr><td><div>http://www.web2py.com/book/default/chapter/03</div></td></tr></table></div></td></tr><tr><td><div><table><tr><td><div>El N\xc3\xbacleo</div></td></tr><tr><td><div>False</div></td></tr><tr><td><div>http://www.web2py.com/book/default/chapter/04</div></td></tr></table></div></td></tr><tr><td><div><table><tr><td><div>Las Vistas</div></td></tr><tr><td><div>False</div></td></tr><tr><td><div>http://www.web2py.com/book/default/chapter/05</div></td></tr></table></div></td></tr><tr><td><div><table><tr><td><div>Base de datos</div></td></tr><tr><td><div>False</div></td></tr><tr><td><div>http://www.web2py.com/book/default/chapter/06</div></td></tr></table></div></td></tr><tr><td><div><table><tr><td><div>Formularios y validadores</div></td></tr><tr><td><div>False</div></td></tr><tr><td><div>http://www.web2py.com/book/default/chapter/07</div></td></tr></table></div></td></tr><tr><td><div><table><tr><td><div>Correo electr\xc3\xb3nico y SMS</div></td></tr><tr><td><div>False</div></td></tr><tr><td><div>http://www.web2py.com/book/default/chapter/08</div></td></tr></table></div></td></tr><tr><td><div><table><tr><td><div>Control de Acceso</div></td></tr><tr><td><div>False</div></td></tr><tr><td><div>http://www.web2py.com/book/default/chapter/09</div></td></tr></table></div></td></tr><tr><td><div><table><tr><td><div>Servicios</div></td></tr><tr><td><div>False</div></td></tr><tr><td><div>http://www.web2py.com/book/default/chapter/10</div></td></tr></table></div></td></tr><tr><td><div><table><tr><td><div>Recetas AJAX</div></td></tr><tr><td><div>False</div></td></tr><tr><td><div>http://www.web2py.com/book/default/chapter/11</div></td></tr></table></div></td></tr><tr><td><div><table><tr><td><div>Componentes y Plugins</div></td></tr><tr><td><div>False</div></td></tr><tr><td><div>http://www.web2py.com/book/default/chapter/12</div></td></tr></table></div></td></tr><tr><td><div><table><tr><td><div>Recetas de despliegue</div></td></tr><tr><td><div>False</div></td></tr><tr><td><div>http://www.web2py.com/book/default/chapter/13</div></td></tr></table></div></td></tr><tr><td><div><table><tr><td><div>Otras Recetas</div></td></tr><tr><td><div>False</div></td></tr><tr><td><div>http://www.web2py.com/book/default/chapter/14</div></td></tr></table></div></td></tr><tr><td><div><table><tr><td><div>Ayudando a web2py</div></td></tr><tr><td><div>False</div></td></tr><tr><td><div>http://www.web2py.com/book/default/chapter/15</div></td></tr></table></div></td></tr><tr><td><div><table><tr><td><div>Compra el libro de web2py</div></td></tr><tr><td><div>False</div></td></tr><tr><td><div>http://stores.lulu.com/web2py</div></td></tr></table></div></td></tr></table></div></td></tr></table></div></td></tr><tr><td><div><table><tr><td><div>Comunidad</div></td></tr><tr><td><div>False</div></td></tr><tr><td><div>None</div></td></tr><tr><td><div><table><tr><td><div><table><tr><td><div>Grupos</div></td></tr><tr><td><div>False</div></td></tr><tr><td><div>http://www.web2py.com/examples/default/usergroups</div></td></tr></table></div></td></tr><tr><td><div><table><tr><td><div>Twitter</div></td></tr><tr><td><div>False</div></td></tr><tr><td><div>http://twitter.com/web2py</div></td></tr></table></div></td></tr><tr><td><div><table><tr><td><div>Chat en vivo</div></td></tr><tr><td><div>False</div></td></tr><tr><td><div>http://webchat.freenode.net/?channels=web2py</div></td></tr></table></div></td></tr></table></div></td></tr></table></div></td></tr></table></div></td></tr><tr><td style="font-weight:bold;vertical-align:top;">meta</td><td style="vertical-align:top;">:</td><td><div><table><tr><td style="font-weight:bold;vertical-align:top;">author</td><td style="vertical-align:top;">:</td><td><div>Octopus Technologies &lt;13-10191@usb.ve:</div></td></tr><tr><td style="font-weight:bold;vertical-align:top;">description</td><td style="vertical-align:top;">:</td><td><div>Sistema de Gestion de la Unidad de Laboratorios</div></td></tr><tr><td style="font-weight:bold;vertical-align:top;">generator</td><td style="vertical-align:top;">:</td><td><div>Web2py Web Framework</div></td></tr><tr><td style="font-weight:bold;vertical-align:top;">keywords</td><td style="vertical-align:top;">:</td><td><div>sigulab</div></td></tr></table></div></td></tr><tr><td style="font-weight:bold;vertical-align:top;">models_to_run</td><td style="vertical-align:top;">:</td><td><div><table><tr><td><div>^\\w+\\.py$</div></td></tr><tr><td><div>^default/\\w+\\.py$</div></td></tr><tr><td><div>^default/index/\\w+\\.py$</div></td></tr></table></div></td></tr><tr><td style="font-weight:bold;vertical-align:top;">postprocessing</td><td style="vertical-align:top;">:</td><td><div><table></table></div></td></tr><tr><td style="font-weight:bold;vertical-align:top;">session_client</td><td style="vertical-align:top;">:</td><td><div>127.0.0.1</div></td></tr><tr><td style="font-weight:bold;vertical-align:top;">session_cookie_compression_level</td><td style="vertical-align:top;">:</td><td><div>None</div></td></tr><tr><td style="font-weight:bold;vertical-align:top;">session_cookie_expires</td><td style="vertical-align:top;">:</td><td><div>None</div></td></tr><tr><td style="font-weight:bold;vertical-align:top;">session_data_name</td><td style="vertical-align:top;">:</td><td><div>session_data_sigulab2</div></td></tr><tr><td style="font-weight:bold;vertical-align:top;">session_file</td><td style="vertical-align:top;">:</td><td><div>&lt;open file &#x27;/home/sandra/Documents/web2py/applications/sigulab2/sessions/146/190/127.0.0.1-7f507d1c-d88b-479c-86f9-e1026851fda4&#x27;, mode &#x27;rb+&#x27; at 0xb61dd128&gt;</div></td></tr><tr><td style="font-weight:bold;vertical-align:top;">session_filename</td><td style="vertical-align:top;">:</td><td><div>/home/sandra/Documents/web2py/applications/sigulab2/sessions/127.0.0.1-7f507d1c-d88b-479c-86f9-e1026851fda4</div></td></tr><tr><td style="font-weight:bold;vertical-align:top;">session_hash</td><td style="vertical-align:top;">:</td><td><div>bfc535fde92160dcc23972707d1b5ae0</div></td></tr><tr><td style="font-weight:bold;vertical-align:top;">session_id</td><td style="vertical-align:top;">:</td><td><div>127.0.0.1-7f507d1c-d88b-479c-86f9-e1026851fda4</div></td></tr><tr><td style="font-weight:bold;vertical-align:top;">session_id_name</td><td style="vertical-align:top;">:</td><td><div>session_id_sigulab2</div></td></tr><tr><td style="font-weight:bold;vertical-align:top;">session_locked</td><td style="vertical-align:top;">:</td><td><div>True</div></td></tr><tr><td style="font-weight:bold;vertical-align:top;">session_masterapp</td><td style="vertical-align:top;">:</td><td><div>sigulab2</div></td></tr><tr><td style="font-weight:bold;vertical-align:top;">session_new</td><td style="vertical-align:top;">:</td><td><div>False</div></td></tr><tr><td style="font-weight:bold;vertical-align:top;">session_storage_type</td><td style="vertical-align:top;">:</td><td><div>file</div></td></tr><tr><td style="font-weight:bold;vertical-align:top;">status</td><td style="vertical-align:top;">:</td><td><div>200</div></td></tr><tr><td style="font-weight:bold;vertical-align:top;">subtitle</td><td style="vertical-align:top;">:</td><td><div></div></td></tr><tr><td style="font-weight:bold;vertical-align:top;">title</td><td style="vertical-align:top;">:</td><td><div>Sigulab2</div></td></tr><tr><td style="font-weight:bold;vertical-align:top;">view</td><td style="vertical-align:top;">:</td><td><div>default/index.html</div></td></tr></table></div>'
tRp284
sS'locals'
p285
(dp286
S'handlers'
p287
S'[<pydal.helpers.classes.TimingHandler object>]'
p288
sS'self'
p289
S'<pydal.adapters.postgres.PostgrePsyco object>'
p290
sg50
S'(\'ALTER TABLE "modificacion_bien_mueble" ADD "mbn_num__tmp" VARCHAR(512) NOT NULL UNIQUE;\',)'
p291
sS'handler'
p292
S'<pydal.helpers.classes.TimingHandler object>'
p293
sS'command'
p294
S'\'ALTER TABLE "modificacion_bien_mueble" ADD "mbn_num__tmp" VARCHAR(512) NOT NULL UNIQUE;\''
p295
sS'kwargs'
p296
g131
sssS'traceback'
p297
S'Traceback (most recent call last):\n  File "/home/sandra/Documents/web2py/gluon/restricted.py", line 219, in restricted\n    exec(ccode, environment)\n  File "/home/sandra/Documents/web2py/applications/sigulab2/models/t_inventarios.py", line 90, in <module>\n    Field(\'estado\',\'integer\', default=0, label=T(\'Estado de Solicitud de Modificacion\'), requires=IS_INT_IN_RANGE(-1,2))\n  File "/home/sandra/Documents/web2py/gluon/packages/dal/pydal/base.py", line 586, in define_table\n    table = self.lazy_define_table(tablename, *fields, **args)\n  File "/home/sandra/Documents/web2py/gluon/packages/dal/pydal/base.py", line 620, in lazy_define_table\n    polymodel=polymodel)\n  File "/home/sandra/Documents/web2py/gluon/packages/dal/pydal/adapters/base.py", line 797, in create_table\n    return self.migrator.create_table(*args, **kwargs)\n  File "/home/sandra/Documents/web2py/gluon/packages/dal/pydal/migrator.py", line 314, in create_table\n    fake_migrate=fake_migrate\n  File "/home/sandra/Documents/web2py/gluon/packages/dal/pydal/migrator.py", line 447, in migrate_table\n    self.adapter.execute(sub_query)\n  File "/home/sandra/Documents/web2py/gluon/packages/dal/pydal/adapters/__init__.py", line 67, in wrap\n    return f(*args, **kwargs)\n  File "/home/sandra/Documents/web2py/gluon/packages/dal/pydal/adapters/base.py", line 412, in execute\n    rv = self.cursor.execute(command, *args[1:], **kwargs)\nIntegrityError: column "mbn_num__tmp" contains null values\n\n'
p298
s.