(dp1
S'output'
p2
S"<type 'exceptions.NameError'> name 'sudebid_list' is not defined"
p3
sS'layer'
p4
S'/home/sandra/Documents/web2py/applications/sigulab2/views/inventarios/detalles.html'
p5
sS'code'
p6
S'response.write(\'<!DOCTYPE html>\\n<html lang="es">\\n<head>\\n  <title>SIGULAB</title>    \\n  \\n  <!-- http://dev.w3.org/html5/markup/meta.name.html -->\\n  <meta name="application-name" content="SIGULAB">\\n\\n  <meta charset="utf-8">\\n  <meta name="viewport" content="width=device-width, initial-scale=1.0">\\n\\n  <!-- www.phpied.com/conditional-comments-block-downloads/ -->\\n  <!-- Always force latest IE rendering engine\\n       (even in intranet) & Chrome Frame\\n       Remove this if you use the .htaccess -->\\n  <meta http-equiv="X-UA-Compatible" content="IE=edge">\\n\\n  <!-- Avoid search sites from indexing this website -->\\n  <meta name="robots" content="noindex" />\\n\\n  <link rel="icon" type="image/png" sizes="16x16" href="\', escape=False)\nresponse.write(URL(\'static\', \'favicon.ico\'))\nresponse.write(\'">\\n  <link rel="stylesheet" href="\', escape=False)\nresponse.write(URL(\'static\', \'css/bootstrap.min.css\'))\nresponse.write(\'">\\n  <link rel="stylesheet" href="\', escape=False)\nresponse.write(URL(\'static\',\'css/servicios.css\'))\nresponse.write(\'">\\n  <link rel="stylesheet" href="\', escape=False)\nresponse.write(URL(\'static\',\'font-awesome-4.7.0/css/font-awesome.min.css\'))\nresponse.write(\'">\\n  \\n  <script src="\', escape=False)\nresponse.write(URL(\'static\',\'js/jquery.min.js\'))\nresponse.write(\'"></script>\\n  <script src="\', escape=False)\nresponse.write(URL(\'static\',\'js/bootstrap.min.js\'))\nresponse.write(\'"></script>\\n\\n  <!--[if lt IE 9]>\\n  <script src="https://oss.maxcdn.com/libs/html5shiv/3.7.0/html5shiv.js"></script>\\n  <script src="https://oss.maxcdn.com/libs/respond.js/1.4.2/respond.min.js"></script>\\n  <![endif]-->\\n  \\n  \', escape=False)\nresponse.write(\'\\n\\n<meta charset="UTF-8">\\n\\n    <!-- Para los mensajes con flash -->\\n    <link rel="stylesheet" href="\', escape=False)\nresponse.write(URL(\'static\',\'css/web2py-bootstrap3-flash.css\'))\nresponse.write(\'"/>\\n\\n    <!-- DataTables -->\\n    <link href="\', escape=False)\nresponse.write(URL(\'static\', \'plugins/datatables/jquery.dataTables.min.css\'))\nresponse.write(\'" rel="stylesheet" type="text/css" />\\n    <link href="\', escape=False)\nresponse.write(URL(\'static\', \'plugins/datatables/buttons.bootstrap.min.css\'))\nresponse.write(\'" rel="stylesheet" type="text/css" />\\n    <link href="\', escape=False)\nresponse.write(URL(\'static\', \'plugins/datatables/responsive.bootstrap.min.css\'))\nresponse.write(\'" rel="stylesheet" type="text/css" />  \\n    \\n    <!-- Estilos de modales y listados -->\\n    <link rel="stylesheet" type="text/css" href="\', escape=False)\nresponse.write(URL(\'static\', \'css/smydp_modal.css\'))\nresponse.write(\'">\\n    <link rel="stylesheet" href="\', escape=False)\nresponse.write(URL(\'static\', \'css/smydp_inventarios.css\'))\nresponse.write(\'"> \\n    <link rel="stylesheet" href="\', escape=False)\nresponse.write(URL(\'static\', \'inventarios/css/listado.css\'))\nresponse.write(\'">\\n    <link rel="stylesheet" href="\', escape=False)\nresponse.write(URL(\'static\', \'css/smydp_inventario_dependencia.css\'))\nresponse.write(\'">\\n    <link rel="stylesheet" href="\', escape=False)\nresponse.write(URL(\'static\', \'css/smydp_inventario_espacio.css\'))\nresponse.write(\'">\\n    <link rel="stylesheet" href="\', escape=False)\nresponse.write(URL(\'static\', \'css/smydp_template_modal.css\'))\nresponse.write(\'"> \\n    <script src="\', escape=False)\nresponse.write(URL(\'static\', \'js/inventario_template_modal.js\'))\nresponse.write(\'"></script>   \\n    <!-- Web2py JS - Especialmente para AJAX -->\\n    <script src="\', escape=False)\nresponse.write(URL(\'static\', \'js/web2py.js\'))\nresponse.write(\'"></script>\\n    <style>\\n    .row{\\n        margin-right:0px!important;\\n    }\\n     </style>\\n\\n<style type="text/css">\\n\\n    .wrapper {\\n    max-width: 1000px;\\n    margin: auto;\\n    margin-top: 0;\\n    }\\n\\n    .tab-wrapper {\\n    text-align: center;\\n    display: block;\\n    margin: auto;\\n    max-width: 400px;\\n    }\\n\\n    .tabs {\\n    margin: 0;\\n    padding: 0;\\n    display: flex;\\n    justify-content: center;\\n    }\\n\\n    .tab-link {\\n    margin: 0 1%;\\n    list-style: none;\\n    padding: 10px 20px;\\n    color: #aaa;\\n    cursor: pointer;\\n    font-weight: 700;\\n    transition: all ease 0.5s;\\n    border-bottom: solid 3px rgba(255, 255, 255, 0);\\n    letter-spacing: 1px;\\n    }\\n\\n    .tab-link:hover {\\n    color: #999;\\n    border-color: #999;\\n    }\\n\\n    .tab-link.active {\\n    color: #333;\\n    border-color: #333;\\n    }\\n\\n    .tab-link:nth-of-type(1).active {\\n    color: #1790D2;\\n    border-color: #1790D2\\n    }\\n\\n    .tab-link:nth-of-type(2).active {\\n    color: #1790D2;\\n    border-color: #1790D2;\\n    }\\n\\n    .tab-link:nth-of-type(4).active {\\n    color: #1790D2;\\n    border-color: #1790D2;\\n    }\\n\\n    .tab-link:nth-of-type(5).active {\\n    color: #1790D2;\\n    border-color: #1790D2;\\n    }\\n\\n    .tab-link:nth-of-type(6).active {\\n    color: #1790D2;\\n    border-color: #1790D2;\\n    }\\n\\n    .tab-link:nth-of-type(7).active {\\n    color: #1790D2;\\n    border-color: #1790D2;\\n    }\\n\\n    .tab-link:nth-of-type(3).active {\\n    color: #1790D2;\\n    border-color: #1790D2;\\n    }\\n\\n    .content-wrapper {\\n    padding: 20px 80px;\\n    }\\n\\n    .tab-content {\\n    display: none;\\n    text-align: left;\\n    color:  #464646;\\n    font-weight: 200;\\n    font-size: 20px;\\n    opacity: 0;\\n    transform: translateY(15px);\\n    animation: fadeIn 0.5s ease 1 forwards;\\n    }\\n\\n    .tab-content.active {\\n    display: block;\\n    }\\n\\n    @keyframes fadeIn {\\n    100% {\\n        opacity: 1;\\n        transform: none;\\n    }\\n}\\n</style>\\n<link rel="stylesheet" href="\', escape=False)\nresponse.write(URL(\'static\', \'css/smydp_inventarios.css\'))\nresponse.write(\'">\\n<link rel="stylesheet" href="\', escape=False)\nresponse.write(URL(\'static\', \'inventarios/css/detalles_bm.css\'))\nresponse.write(\'">\\t  \\n\', escape=False)\nresponse.write(\' \\n</head>\\n<body>\\n\\n<!-- Barra de navegaci\\xc3\\xb3n principal -->\\n<div class="container" id="logo">\\n<a class="navbar-brand" href="\', escape=False)\nresponse.write(URL(\'..\', \'sigulab2\'))\nresponse.write(\'"><div class="logotext">SIGULAB</div></a>\\n</div>\\n<nav class="navbar navbar-inverse navbar-fixed-top">\\n  <div class="container-fluid">\\n      <div class="navbar-header">\\n        <button type="button" class="navbar-toggle" data-toggle="collapse" data-target="#myNavbar">\\n          <span class="icon-bar"></span>\\n          <span class="icon-bar"></span>\\n          <span class="icon-bar"></span> \\n          </button>\\n          <a class="navbar-brand" id="hide" href="#"><div class="logotext">SIGULAB</div></a>\\n      </div>\\n      <div class="collapse navbar-collapse" id="myNavbar">\\n\\n        <ul class="nav navbar-nav">\\n            \\n            <li class="dropdown active-item" id="inicio">\\n              <a class="dropdown-toggle" href="\', escape=False)\nresponse.write(URL(\'..\', \'sigulab2\'))\nresponse.write(\'">INICIO</a>\\n            </li>\\n\\n            <li class="dropdown active-item" id="personal">\\n              <a href="#" class="dropdown-toggle" data-toggle="dropdown" role="button" aria-haspopup="true" aria-expanded="false">PERSONAL<span class="caret"></span></a>\\n              <ul class=" dropdown-menu">\\n                <li><a href="\', escape=False)\nresponse.write(URL(\'personal\',\'index\'))\nresponse.write(\'">P\\xc3\\xa1gina Principal</a></li>\\n                <li><a href="\', escape=False)\nresponse.write(URL(\'personal\',\'listado\'))\nresponse.write(\'">Listado General de Personal</a></li>\\n                <li><a href="#">Listado por Categor\\xc3\\xadas de Personal</a></li>\\n                <li><a href="#">Listado por Dependencias de Personal</a></li>\\n                <li><a href="#">Listado por A\\xc3\\xb1os de Servicio de Personal</a></li>\\n              </ul>\\n            </li>\\n            \\n            <li class="dropdown active-item" id="servicios">\\n\\n              <a href="#" class="dropdown-toggle" data-toggle="dropdown" role="button" aria-haspopup="true" aria-expanded="false">SERVICIOS<span class="caret"></span></a>\\n                <ul class=" dropdown-menu">\\n                <li><a href="\', escape=False)\nresponse.write(URL(\'servicios\',\'index\'))\nresponse.write(\'">P\\xc3\\xa1gina Principal</a></li>\\n                <li><a href="\', escape=False)\nresponse.write(URL(\'servicios\',\'listado\'))\nresponse.write(\'">Listado de Servicios</a></li>\\n                <li><a href="\', escape=False)\nresponse.write(URL(\'servicios\',\'solicitudes\'))\nresponse.write(\'">Solicitudes de Servicios</a></li>\\n                <li><a href="\', escape=False)\nresponse.write(URL(\'servicios\',\'certificaciones\'))\nresponse.write(\'">Certificar un servicio</a></li>\\n                <li><a href="\', escape=False)\nresponse.write(URL(\'servicios\',\'historial\'))\nresponse.write(\'">Historial de servicios</a></li>\\n                <li><a href="\', escape=False)\nresponse.write(URL(\'servicios\',\'catalogoServicios\'))\nresponse.write(\'">Cat\\xc3\\xa1logo de Servicios</a></li>\\n              </ul>\\n            </li>\\n\\n            <li class="dropdown active-item" id="smydp">\\n              <a href="#" class="dropdown-toggle" data-toggle="dropdown" role="button" aria-haspopup="true" aria-expanded="false">SMyDP<span class="caret"></span></a>\\n                <ul class="dropdown-menu">\\n                <li><a href="\', escape=False)\nresponse.write(URL(\'smydp\', \'index\'))\nresponse.write(\'">P\\xc3\\xa1gina Principal</a></li>\\n                  <li><a href="\', escape=False)\nresponse.write(URL(\'smydp\', \'catalogo\'))\nresponse.write(\'">Listado de Sustancias</a></li>\\n                  <li><a href="\', escape=False)\nresponse.write(URL(\'smydp\', \'inventarios\'))\nresponse.write(\'">Inventario</a></li>\\n                  <li><a href="\', escape=False)\nresponse.write(URL(\'smydp\', \'solicitudes\'))\nresponse.write(\'">Solicitudes</a></li>\\n                 </ul>\\n            </li> \\n\\n            <li class="dropdown active-item" id="inventario">\\n              <a href="#" class="dropdown-toggle" data-toggle="dropdown" role="button" aria-haspopup="true" aria-expanded="false">INVENTARIOS<span class="caret"></span></a>\\n                <ul class="dropdown-menu">\\n                <li><a href="\', escape=False)\nresponse.write(URL(\'inventarios\', \'index\'))\nresponse.write(\'">P\\xc3\\xa1gina Principal</a></li>\\n                  <li><a href="\', escape=False)\nresponse.write(URL(\'inventarios\', \'bienes_muebles\'))\nresponse.write(\'">Bienes Muebles</a></li>\\n                  <li><a href="\', escape=False)\nresponse.write(URL(\'inventarios\', \'material_lab\'))\nresponse.write(\'">Material de laboratorio</a></li>\\n                  <li><a href="\', escape=False)\nresponse.write(URL(\'inventarios\', \'prestamos\'))\nresponse.write(\'">Pr\\xc3\\xa9stamos</a></li>\\n                  <li><a href="\', escape=False)\nresponse.write(URL(\'inventarios\', \'mantenimiento\'))\nresponse.write(\'">Mantenimiento</a></li>\\n                </ul>\\n            </li> \\n        </ul>\\n\\n      <ul class="nav navbar-nav navbar-right">\\n      \', escape=False)\nif auth.has_membership(\'ADMINISTRADOR PERSONAL\') \\\nor auth.has_membership(\'WEBMASTER\')\\\nor auth.has_membership(\'DIRECTOR\')\\\nor (auth.user.email == "ulab-calidad@usb.ve"):\n    response.write(\'\\n        <li class="dropdown">\\n          <div class="dropdown">\\n            <button class="btn btn-primary dropdown-toggle" type="button" data-toggle="dropdown">\\n              <i id="iconoInfo" class="fa fa-cog" aria-hidden="true"></i>\\n            </button>\\n            <ul class="dropdown-menu">\\n              <li><a href="\', escape=False)\n    response.write(URL(\'modulos\',\'register\'))\n    response.write(\'">Registrar Usuario</a></li>\\n              <li><a href="\', escape=False)\n    response.write(URL(\'gestion\',\'usuarios\'))\n    response.write(\'">Usuarios Autorizados</a></li>\\n              <li><a href="\', escape=False)\n    response.write(URL(\'gestion\',\'dependencias\'))\n    response.write(\'">Dependencias</a></li>\\n              <li><a href="\', escape=False)\n    response.write(URL(\'gestion\',\'espacios_fisicos\'))\n    response.write(\'">Espacios F\\xc3\\xadsicos</a></li>\\n            </ul>\\n          </div>\\n        </li>\\n        \', escape=False)\n    pass\nresponse.write(\'\\n\\n        <li class="dropdown">\\n          <div class="dropdown">\\n            <button class="btn btn-primary dropdown-toggle" type="button" data-toggle="dropdown">\\n              <span id="iconoUser" class="glyphicon glyphicon-user dropdown-toggle"></span>\\n            </button>\\n            <ul class="dropdown-menu">\\n              <li>\', escape=False)\nif auth.is_logged_in():\n    response.write(\'<a href="\', escape=False)\n    response.write(URL(\'modulos\', \'editprofile\', args=\'profile\'))\n    response.write(\'">\', escape=False)\n    response.write(auth.user.first_name)\n    response.write(\'  \', escape=False)\n    response.write(auth.user.last_name)\n    response.write(\'</a>\', escape=False)\n    pass\nresponse.write(\'</li>\\n              <li><a href="\', escape=False)\nresponse.write(URL(\'modulos\',\'logout\'))\nresponse.write(\'">Salir</a></li>\\n            </ul>\\n          </div>\\n        </li>\\n      </ul> \\n     </div>\\n  </div>\\n</nav>\\n<!-- Fin de la barra de navegaci\\xc3\\xb3n principal -->\\n<div class="fondoblanco"></div> \\n<div class="separador"></div>\\n\\n\', escape=False)\nresponse.write(\'\\n    <h2 class="dep-titulo text-center">Detalles de \', escape=False)\nresponse.write(bien[\'bm_nombre\'])\nresponse.write(\'</h2>\\n    <h4 class="dep-titulo text-center">N/B: \', escape=False)\nresponse.write(bien[\'bm_num\'])\nresponse.write(\'</h4>\\n    \', escape=False)\nif bien[\'bm_placa\'] != \'\':\n    response.write(\'\\n        <h4 class="dep-titulo text-center">Placa: \', escape=False)\n    response.write(bien[\'bm_placa\'])\n    response.write(\'</h4>\\n    \', escape=False)\n    pass\nresponse.write(\'\\n\', escape=False)\npass\nresponse.write(\'\\n\\n<!-- Inicio Boton Modificar BM -->\\n<div class="container" id="containerAgregar">\\n    <div class="row">\\n        <div class="col-sm-6"></div>\\n        <div id="columnBotonAgregar" class="col-sm-6">\\n            <div class="col-sm-6"></div>\\n            <div class="col-sm-6">\\n                <!-- Boton que lleva al modal --> <!-- Cambiar data-target="#addservice por el id de la forma de la sustancia -->\\n                <button type="button" id="botonAgregar" class="btn botonesListado" data-toggle="modal" data-target="#addbm">Modificar Bien</button>\\n            </div>\\n        </div>\\n    </div>\\n</div>\\n<!-- Fin Boton Agregar Sustancia -->\\n\\n<div class="wrapper">\\n\\t\\t\\n\\t<div class="tab-wrapper">\\n\\t\\t<ul class="tabs">\\n\\t\\t\\t\\t<li class="tab-link active" data-tab="1">CARACTER\\xc3\\x8dSTICAS</li>\\n\\t\\t\\t\\t<li class="tab-link" data-tab="2">SUDEBID</li>\\n                <li class="tab-link" data-tab="3">DATOS ADQUISICI\\xc3\\x93N</li>\\n                <li class="tab-link" data-tab="4">UBICACI\\xc3\\x93N</li>\\n                <li class="tab-link" data-tab="5">MANTENIMIENTO</li>\\n                <li class="tab-link" data-tab="6">SERVICIOS</li>\\n                <li class="tab-link" data-tab="7">PR\\xc3\\x89STAMOS</li>\\n            </ul>\\n\\t</div>\\n\\n\\t<div class="content-wrapper">\\n\\t\\t<div id="tab-1" class="tab-content active">\\n            <div class="grid-container">\\n                \', escape=False)\nfor title in caracteristicas_list:\n    response.write(\'\\n                    <div class="grid-item">\\n                        \', escape=False)\n    response.write(title)\n    response.write(\'\\n                    </div>\\n                    <div class="grid-item">\\n                        \', escape=False)\n    response.write(caracteristicas_dict.get(title))\n    response.write(\'\\n                    </div>\\n                \', escape=False)\n    pass\nresponse.write(\'\\n            </div>\\n            <!-- Pensar como Mostrar esto en el grid-->\\n            \', escape=False)\nif bien[\'bm_unidad\'] != \'\':\n    response.write(\'\\n                \', escape=False)\n    if bien[\'bm_unidad\'] == \'m\':\n        response.write(\'\\n                    <h4>Dimensiones: metros</h4>\\n                \', escape=False)\n    else:\n        response.write(\'\\n                    <h4>Dimensiones: cent\\xc3\\xadmetros</h4>\\n                \', escape=False)\n        pass\n    response.write(\'\\n                \', escape=False)\n    if bien[\'bm_ancho\'] != \'\':\n        response.write(\'\\n                    <h4> &emsp;   Ancho: \', escape=False)\n        response.write(bien[\'bm_ancho\'])\n        response.write(\' </h4>\\n                \', escape=False)\n        pass\n    response.write(\'\\n                \', escape=False)\n    if bien[\'bm_largo\'] != \'\':\n        response.write(\'\\n                    <h4>  &emsp;   Largo: \', escape=False)\n        response.write(bien[\'bm_largo\'])\n        response.write(\' </h4>\\n                \', escape=False)\n        pass\n    response.write(\'\\n                \', escape=False)\n    if bien[\'bm_alto\'] != \'\':\n        response.write(\'\\n                    <h4>  &emsp;   Alto: \', escape=False)\n        response.write(bien[\'bm_alto\'])\n        response.write(\' </h4>\\n                \', escape=False)\n        pass\n    response.write(\'\\n                \', escape=False)\n    if bien[\'bm_diametro\'] != \'\':\n        response.write(\'\\n                    <h4>  &emsp;   Di\\xc3\\xa1metro: \', escape=False)\n        response.write(bien[\'bm_diametro\'])\n        response.write(\' </h4>\\n                \', escape=False)\n        pass\n    response.write(\'\\n            \', escape=False)\n    pass\nresponse.write(\'\\n        </div>\\n\\n        <!-- Pensar utilizar grid-->\\n\\t\\t<div id="tab-2" class="tab-content">\\n            <div class="grid-container">\\n            \', escape=False)\nfor title in sudebid_list:\n    response.write(\'\\n                <div class="grid-item">\\n                    \', escape=False)\n    response.write(title)\n    response.write(\'\\n                </div>\\n                <div class="grid-item">\\n                    \', escape=False)\n    response.write(sudebid_dict.get(title))\n    response.write(\'\\n                </div>\\n            \', escape=False)\n    pass\nresponse.write(\'\\n            </div>\\n            <h4>Localizaci\\xc3\\xb3n: \', escape=False)\nresponse.write(bien[\'bm_localizacion\'])\nresponse.write(\' </h4>\\n            <h4>C\\xc3\\xb3digo Localizaci\\xc3\\xb3n: \', escape=False)\nresponse.write(bien[\'bm_codigo_localizacion\'])\nresponse.write(\' </h4>\\n            <h4>Categoria: \', escape=False)\nresponse.write(bien[\'bm_categoria\'])\nresponse.write(\'</h4>\\n        </div>\\n\\n\\t\\t<div id="tab-3"class="tab-content">En desarrollo</div>\\n        <div id="tab-4"class="tab-content">\\n            <h4> Espacio f\\xc3\\xadsico : \', escape=False)\nresponse.write(bien[\'bm_espacio_fisico\'])\nresponse.write(\' </h4>\\n            <h4> Unidad de Adscripci\\xc3\\xb3n : \', escape=False)\nresponse.write(bien[\'bm_unidad_de_adscripcion\'])\nresponse.write(\' </h4>\\n            <h4> Dependencia : \', escape=False)\nresponse.write(bien[\'bm_depedencia\'])\nresponse.write(\' </h4>\\n        </div>\\n\\t\\t<div id="tab-5"class="tab-content">En Desarrollo</div>\\n\\t\\t<div id="tab-6"class="tab-content">En desarrollo</div>\\n\\t\\t<div id="tab-7"class="tab-content">En desarrollo</div>\\n\\n\\n\\n\\t</div>\\n\\t\\n</div>\\n\\n<!-- Modal a\\xc3\\xb1adir un BM nuevo al inventario -->\\n<div class="modal fade" id="addbm" role="dialog">\\n  <div class="modal-dialog">\\n\\n    <!-- Modal content-->\\n    <div class="modal-content">\\n\\n      <!-- Modal Header -->\\n      <div class="modal-header addHeader">\\n        <div class="row addRow" id="rowHeader">\\n          <div class="col-sm-1" id="col1Header">\\n            <div class="container" id="plus">\\n              <h1 id="agregar">+</h1>\\n            </div>\\n          </div>\\n          <div class="col-sm-11" id="col11Header">\\n            <h4 class="modal-title" id="nuevaBien" style="\\n              text-align: left;\\n              padding-top: 12px;\\n              color: white;\\n            ">Modificar Bien Mueble<button type="button" class="close" data-dismiss="modal">&times;</button>\\n            </h4>\\n          </div>\\n        </div>\\n      </div>\\n      <!-- Fin Modal Header -->\\n      \\n      <!-- Modal Body -->\\n      <div class="modal-body addBody">\\n        <div class="row addRow">\\n          <div class="col-md-12 form-box">\\n              <form id="formularioCarga" class="registration-form" method="post" onsubmit="return validar_campos()">\\n \\n                <!-- Primer paso-->\\n                <fieldset class="formField">\\n                  <div class="form-bottom" data-step="2" data-title="Segundo Paso">\\n                    <!-- Barra lateral gris (vacia en este caso, pues no hay pasos) -->\\n                    <div class="col-sm-1 col1Body"> \\n                      <span class="step activePass">1</span>\\n                      <span class="step">2</span>\\n                      <span class="step">3</span>\\n                    </div>\\n                    <!-- Aqui va la informacion -->\\n                    <div class="col-sm-11 col11Body">\\n                      <h4 class="titulosForm">Caracter\\xc3\\xadsticas del Bien</h4>                \\n                      <label>Campos marcados con * son obligatorios.</label>\\n\\n\\n                        <div class="form-group" tag="Formato:">\\n                            <input type="text" class="form-control" id="nombre" name="nombre" title="Ingrese el nombre del Bien Mueble" placeholder="Nombre*" value=\', escape=False)\nresponse.write(bien[\'bm_nombre\'])\nresponse.write(\' required>\\n                            <div class="field-error"> <p id="error-nombre"> </p> </div>\\n                        </div>\\n\\n                        <div class="form-group">\\n                            <input type="text" class="form-control" id="no_bien" name="no_bien" placeholder="N\\xc3\\xbamero de Bien Nacional*" title="Formato: ###### (6 d\\xc3\\xadgitos)" value=\', escape=False)\nresponse.write(bien[\'bm_num\'])\nresponse.write(\'  required>\\n                            <font color="red"><div id="err_no_bien" hidden></div></font>\\n                        </div>\\n\\n                        <div class="form-group">\\n                            \', escape=False)\nif bien[\'bm_placa\']=="":\n    response.write(\'\\n                                <input type="text" class="form-control" id="no_placa" name="no_placa" title="Formato: ##### (5 d\\xc3\\xadgitos)" placeholder="N\\xc2\\xb0 de placa">\\n                            \', escape=False)\nelse:\n    response.write(\'\\n                                <input type="text" class="form-control" id="no_placa" name="no_placa" title="Formato: ##### (5 d\\xc3\\xadgitos)" value=\', escape=False)\n    response.write(bien[\'bm_placa\'])\n    response.write(\' placeholder="N\\xc2\\xb0 de placa">\\n                            \', escape=False)\n    pass\nresponse.write(\'\\n                            <font color="red"><div id="err_placa" hidden></div></font>\\n                        </div>\\n\\n                        <div class="form-group">\\n                            <input type="text" class="form-control" value=\', escape=False)\nresponse.write(bien[\'bm_marca\'])\nresponse.write(\' id="marca" name="marca" placeholder="Marca*" required >\\n                            <div class="field-error"> <p id="error-marca"> </p> </div>\\n                        </div>\\n\\n                        <div class="form-group">\\n                            <input type="text" class="form-control" id="modelo" value=\', escape=False)\nresponse.write(bien[\'bm_modelo\'])\nresponse.write(\' name="modelo" value="" placeholder="Modelo*" required>\\n                            <div class="field-error"> <p id="error-modelo"> </p> </div>\\n                        </div>\\n\\n                        <div class="form-group">\\n                            <input type="text" class="form-control" id="serial" value=\', escape=False)\nresponse.write(bien[\'bm_serial\'])\nresponse.write(\' name="serial" placeholder="Serial*" required>\\n                            <div class="field-error"> <p id="error-serial"> </p> </div>\\n                          </div>\\n                        \\n                          <div class="form-group">\\n                            <input type="text" class="form-control" id="Descripcion" value=\', escape=False)\nresponse.write(bien[\'bm_descripcion\'])\nresponse.write(\' name="descripcion" placeholder="Descripci\\xc3\\xb3n*" required>\\n                            <div class="field-error"> <p id="error-est-descripcion"> </p> </div>\\n                        </div>\\n                        \\n                    </div>\\n                  </div>\\n                  <button type="button" class="btn btn-next botonForm">Siguiente</button>         \\n                </fieldset>\\n                <!-- Fin Primer Paso -->\\n\\n                <!-- Segundo paso Parte 3-->\\n                <fieldset class="formField">\\n                    <div class="form-bottom" data-step="3" data-title="Tercer Paso">\\n                      <!-- Barra lateral gris (vacia en este caso, pues no hay pasos) -->\\n                      <div class="col-sm-1 col1Body"> \\n                        <span class="step">1</span>\\n                        <span class="step activePass">2</span>\\n                        <span class="step">3</span>\\n                      </div>\\n                      <!-- Aqui va la informacion -->\\n                      <div class="col-sm-11 col11Body">\\n                        <h4 class="titulosForm">Caracter\\xc3\\xadsticas del Bien</h4>                \\n                        <label>Campos marcados con * son obligatorios.</label>\\n                          \\n                          <div class="form-group">\\n                              <select class="form-control" value=\', escape=False)\nresponse.write(bien[\'bm_material\'])\nresponse.write(\' type="select" id="material" name="material" placeholder="Material predominante" required>\\n                                <!-- Insertar un for-->\\n                                <option type="text" value="">Selecione un material*</option>\\n                                \', escape=False)\nfor material in material_pred:\n    response.write(\'\\n                                    \', escape=False)\n    if bien[\'bm_material\']==material:\n        response.write(\'\\n                                        <option value="\', escape=False)\n        response.write(material)\n        response.write(\'" selected="selected">\', escape=False)\n        response.write(material)\n        response.write(\'</option>\\n                                    \', escape=False)\n    else:\n        response.write(\'\\n                                        <option value="\', escape=False)\n        response.write(material)\n        response.write(\'">\', escape=False)\n        response.write(material)\n        response.write(\'</option>\\n                                    \', escape=False)\n        pass\n    response.write(\'\\n                                \', escape=False)\n    pass\nresponse.write(\'\\n                              </select>\\n                              <div class="field-error"> <p id="error-material"> </p> </div>\\n                          </div>\\n\\n  \\n                          <div class="form-group">\\n                              <select class="form-control" type="select" value=\', escape=False)\nresponse.write(bien[\'bm_color\'])\nresponse.write(\' id="color" name="color" placeholder="Color" required>\\n                                <option value="">Selecione un color*</option>\\n                                \', escape=False)\nfor color in color_list:\n    response.write(\'\\n                                    \', escape=False)\n    if bien[\'bm_color\']==color:\n        response.write(\'\\n                                        <option value="\', escape=False)\n        response.write(color)\n        response.write(\'" selected="selected">\', escape=False)\n        response.write(color)\n        response.write(\'</option>\\n                                    \', escape=False)\n    else:\n        response.write(\'\\n                                        <option value="\', escape=False)\n        response.write(color)\n        response.write(\'">\', escape=False)\n        response.write(color)\n        response.write(\'</option>\\n                                    \', escape=False)\n        pass\n    response.write(\'\\n                                \\n                                \', escape=False)\n    pass\nresponse.write(\'\\n                              </select>\\n                              <div class="field-error"> <p id="error-color"> </p> </div>\\n                          </div>\\n\\n                          <label>Dimensiones</label>\\n\\n                          <div class="form-group">\\n                                <select class="form-control" value="" type="select" id="unidad" name="unidad" placeholder="Unidad de medida" onchange="display_units(this.value)">\\n                                <option value="">Selecione una unidad</option>\\n                                \', escape=False)\nfor med in unidad_med:\n    response.write(\'\\n                                    \', escape=False)\n    if bien[\'bm_unidad\']==med:\n        response.write(\'\\n                                        <option value="\', escape=False)\n        response.write(med)\n        response.write(\'" selected="selected">\', escape=False)\n        response.write(med)\n        response.write(\'</option>\\n                                    \', escape=False)\n    else:\n        response.write(\'\\n                                        <option value="\', escape=False)\n        response.write(med)\n        response.write(\'">\', escape=False)\n        response.write(med)\n        response.write(\'</option>\\n                                    \', escape=False)\n        pass\n    response.write(\'\\n                                \', escape=False)\n    pass\nresponse.write(\'\\n                                </select>\\n                            <div class="field-error"> <p id="error-unidad" > </p> </div>\\n                          </div>\\n\\n                          <div class="form-group">\\n                            \', escape=False)\nif bien[\'bm_ancho\']=="":\n    response.write(\'\\n                                <input type="hidden" class="form-control" id="ancho" name="ancho" title="Formato ##.##" placeholder="Ancho">\\n                            \', escape=False)\nelse:\n    response.write(\'\\n                                <input type="hidden" class="form-control" value=\', escape=False)\n    response.write(bien[\'bm_ancho\'])\n    response.write(\' id="ancho" name="ancho" title="Formato ##.##" placeholder="Ancho">\\n                            \', escape=False)\n    pass\nresponse.write(\'\\n                            <font color="red"><div id="err_ancho" hidden></div></font>\\n                          </div>\\n\\n\\n                          <div class="form-group">\\n                            \\n                            \', escape=False)\nif bien[\'bm_largo\']=="":\n    response.write(\'\\n                                <input type="hidden" class="form-control" id="largo" name="largo" title="Formato ##.##" placeholder="Largo" >\\n                            \', escape=False)\nelse:\n    response.write(\'\\n                                <input type="hidden" class="form-control" id="largo" value=\', escape=False)\n    response.write(bien[\'bm_largo\'])\n    response.write(\' name="largo" title="Formato ##.##" placeholder="Largo" >\\n                            \', escape=False)\n    pass\nresponse.write(\'\\n                            <font color="red"><div id="err_largo" hidden></div></font>\\n                          </div>\\n\\n                          <div class="form-group">\\n                            \\n                            \', escape=False)\nif bien[\'bm_alto\']=="":\n    response.write(\'\\n                                <input type="hidden" class="form-control" id="alto" name="alto" title="Formato ##.##" placeholder="Altura" >\\n                            \', escape=False)\nelse:\n    response.write(\'\\n                                <input type="hidden" class="form-control" id="alto" value=\', escape=False)\n    response.write(bien[\'bm_alto\'])\n    response.write(\' name="alto" title="Formato ##.##" placeholder="Altura" >\\n                            \', escape=False)\n    pass\nresponse.write(\'\\n                            <font color="red"><div id="err_alto" hidden></div></font>\\n                          </div>\\n\\n                          <div class="form-group">\\n                            \\n                            \', escape=False)\nif bien[\'bm_diametro\']=="":\n    response.write(\'\\n                                <input type="hidden" class="form-control" id="diametro" name="diametro" title="Formato ##.##" placeholder="Di\\xc3\\xa1metro" >\\n                            \', escape=False)\nelse:\n    response.write(\'\\n                                <input type="hidden" class="form-control" id="diametro" value=\', escape=False)\n    response.write(bien[\'bm_diametro\'])\n    response.write(\' name="diametro" title="Formato ##.##" placeholder="Di\\xc3\\xa1metro" >\\n                            \', escape=False)\n    pass\nresponse.write(\'\\n                            <font color="red"><div id="err_diametro" hidden></div></font>\\n                          </div>\\n                          \\n                        </div>\\n                      </div>\\n                    <button type="button" class="btn btn-previous botonForm">Anterior</button>\\n                    <button type="button" class="btn btn-next botonForm">Siguiente</button>       \\n                  </fieldset>\\n                  <!-- Fin Segundo Paso -->\\n\\n\\n                <!--Segundo Paso parte 2-->\\n                <fieldset class="formField">\\n                    <div class="form-bottom" data-step="3" data-title="Tercer Paso">\\n                      <!-- Barra lateral gris (vacia en este caso, pues no hay pasos) -->\\n                      <div class="col-sm-1 col1Body"> \\n                        <span class="step">1</span>\\n                        <span class="step activePass">2</span>\\n                        <span class="step">3</span>\\n                      </div>\\n                      <!-- Aqui va la informacion -->\\n                      <div class="col-sm-11 col11Body">\\n                        <h4 class="titulosForm">Caracter\\xc3\\xadsticas del Bien</h4>                \\n                        <label>Campos marcados con * son obligatorios.</label>\\n                        \\n                        <div class="form-group">\\n                            <label>Seleccione un tipo de movilidad*</label>\\n                            <select class="form-control" type="select" id="movilidad" value=\', escape=False)\nresponse.write(bien[\'bm_movilidad\'])\nresponse.write(\' name="movilidad" placeholder="Movilidad" required>\\n                              <option value="">Seleccione un tipo de movilidad</option>\\n                              \', escape=False)\nfor movilidad in movilidad_list:\n    response.write(\'\\n                                \', escape=False)\n    if bien[\'bm_movilidad\']==movilidad:\n        response.write(\'\\n                                    <option value="\', escape=False)\n        response.write(movilidad)\n        response.write(\'" selected="selected">\', escape=False)\n        response.write(movilidad)\n        response.write(\'</option>\\n                                \', escape=False)\n    else:\n        response.write(\'\\n                                    <option value="\', escape=False)\n        response.write(movilidad)\n        response.write(\'">\', escape=False)\n        response.write(movilidad)\n        response.write(\'</option>\\n                                \', escape=False)\n        pass\n    response.write(\'\\n                              \', escape=False)\n    pass\nresponse.write(\'\\n                            </select>\\n                            <div class="field-error"> <p id="error-movilidad"> </p> </div>\\n                        </div>\\n\\n                        <label>Tipo de Uso</label>\\n                        <div class="checkbox-group">\\n                        \', escape=False)\nfor uso in uso_list:\n    response.write(\'\\n                            \', escape=False)\n    i=1\n    response.write(\'\\n                            \', escape=False)\n    if uso in bien[\'bm_uso\']:\n        response.write(\'\\n                                <input type="checkbox" name="tipo_uso" id="tipo_uso\', escape=False)\n        response.write(i)\n        response.write(\'" value="\', escape=False)\n        response.write(uso)\n        response.write(\'" checked>\', escape=False)\n        response.write(uso)\n        response.write(\'\\n                            \', escape=False)\n    else:\n        response.write(\'\\n                                <input type="checkbox" name="tipo_uso" id="tipo_uso\', escape=False)\n        response.write(i)\n        response.write(\'" value="\', escape=False)\n        response.write(uso)\n        response.write(\'">\', escape=False)\n        response.write(uso)\n        response.write(\'\\n                            \', escape=False)\n        pass\n    response.write(\'\\n                            \', escape=False)\n    i = i+1\n    response.write(\' \\n                          <br>\\n                        \', escape=False)\n    pass\nresponse.write(\'\\n                        </div>\\n\\n                        <div class="form-group" id="calibrar">\\n                          <label>Seleccione si el equipo ha sido calibrado*</label>\\n                          <select class="form-control" id="select-calibrar" value=\', escape=False)\nresponse.write(bien[\'bm_calibrar\'])\nresponse.write(\' type="select" name="calibrar" placeholder="Calibraci\\xc3\\xb3n" onchange="display_date(this.value)">\\n                            <option value="">Seleccione una opci\\xc3\\xb3n</option>\\n                                \', escape=False)\nif bien[\'bm_calibrar\']=="Si":\n    response.write(\'\\n                                    <option value="Si" selected="selected">Si</option>\\n                                \', escape=False)\nelse:\n    response.write(\'\\n                                    <option value="Si">Si</option>\\n                                \', escape=False)\n    pass\nresponse.write(\'\\n                            \\n                                \', escape=False)\nif bien[\'bm_calibrar\']=="No":\n    response.write(\'\\n                                    <option value="No" selected="selected">No</option>\\n                                \', escape=False)\nelse:\n    response.write(\'\\n                                    <option value="No">No</option>\\n                                \', escape=False)\n    pass\nresponse.write(\'\\n                            \\n                          </select>\\n                          <div class="field-error"> <p id="error-calibrar"> </p> </div>\\n                        </div>\\n  \\n                        <div class="form-group" id="fecha_calibracion">\\n                          <label>Seleccione la fecha de la \\xc3\\xbaltima calibraci\\xc3\\xb3n del equipo*</label>\\n                            \', escape=False)\nif bien[\'bm_fecha_calibracion\']=="":\n    response.write(\'\\n                                <input type="date" class="form-control" name="fecha_calibracion">\\n                            \', escape=False)\nelse:\n    response.write(\'\\n                                <input type="date" class="form-control" value=\', escape=False)\n    response.write(bien[\'bm_fecha_calibracion\'])\n    response.write(\' name="fecha_calibracion">\\n                            \', escape=False)\n    pass\nresponse.write(\'\\n                          \\n                          <div class="field-error"> <p id="error-fecha_calibracion"></p></div>\\n                        </div>\\n  \\n                        <div class="form-group">\\n                          <label>Seleccione el estado del bien mueble*</label>\\n                          <select class="form-control" type="select" id="estatus" value=\', escape=False)\nresponse.write(bien[\'bm_estatus\'])\nresponse.write(\' name="estatus" placeholder="Estatus del equipo" required>\\n                            <option value="">Seleccione una opci\\xc3\\xb3n</option>\\n                            \', escape=False)\nform_estatus = [\'Operativo\',\'Inoperativo\',\'En desuso\',\'Inservible\']\nresponse.write(\'\\n                            \', escape=False)\nfor estatus in form_estatus:\n    response.write(\'\\n                                \', escape=False)\n    if bien[\'bm_estatus\']==estatus:\n        response.write(\'\\n                                    <option value="\', escape=False)\n        response.write(estatus)\n        response.write(\'" selected="selected">\', escape=False)\n        response.write(estatus)\n        response.write(\'</option>\\n                                \', escape=False)\n    else:\n        response.write(\'\\n                                    <option value="\', escape=False)\n        response.write(estatus)\n        response.write(\'">\', escape=False)\n        response.write(estatus)\n        response.write(\'</option>\\n                                \', escape=False)\n        pass\n    response.write(\'\\n                            \', escape=False)\n    pass\nresponse.write(\'\\n                          </select>\\n                          <div class="field-error"> <p id="error-estatus"> </p> </div>\\n                        </div>\\n\\n                        </div>\\n                      </div>\\n\\n                    <button type="button" class="btn btn-previous botonForm">Anterior</button>\\n                    <button type="button" class="btn btn-next botonForm" onclick="colocar_subcategoria2(0);">Siguiente</button>       \\n                  </fieldset>\\n                  <!-- Fin segundo paso-->\\n\\n                <!-- Comienzo Tercer Paso Parte 1-->\\n                <fieldset class="formField">\\n                    <div class="form-bottom" data-step="4" data-title="Cuarto Paso">\\n                      <!-- Aqui va la barra lateral -->\\n                      <div class="col-sm-1 col1Body">\\n                        <span class="step">1</span>\\n                        <span class="step">2</span>\\n                        <span class="step activePass">3</span>\\n                      </div>\\n  \\n                      <!-- Aqui va la informacion -->\\n                      <div class="col-sm-11 col11Body" style="padding-top: 50px">\\n                      <h4 class="titulosForm">SUDEBID</h4>\\n                      <label>Importante: llene seg\\xc3\\xban requerimientos de SUDEBID</label>\\n                        \\n                      <div class="form-group">\\n                          <label class="form-group" id="numRegistro" style="margin-bottom: 0px" >Ubicaci\\xc3\\xb3n</label>\\n                          <select class="form-control" type="select" value=\', escape=False)\nresponse.write(bien[\'bm_localizacion\'])\nresponse.write(\' value="" id="localizacion" onchange="placeholder_localizacion(this.value);"  name="localizacion" required>\\n                            <option value="" onchange="placeholder_localizacion(this.value);">Seleccione una localizacion</option>\\n                            \', escape=False)\nfor cod in localizacion:\n    response.write(\'\\n                                \', escape=False)\n    if bien[\'bm_localizacion\']==cod:\n        response.write(\'\\n                                    <option value="\', escape=False)\n        response.write(cod)\n        response.write(\'" selected="selected" onchange="placeholder_localizacion(this.value);">\', escape=False)\n        response.write(cod)\n        response.write(\'</option>\\n                                \', escape=False)\n    else:\n        response.write(\'\\n                                    <option value="\', escape=False)\n        response.write(cod)\n        response.write(\'" onchange="placeholder_localizacion(this.value);">\', escape=False)\n        response.write(cod)\n        response.write(\'</option>\\n                                \', escape=False)\n        pass\n    response.write(\'\\n                            \\n                            \', escape=False)\n    pass\nresponse.write(\'\\n                          </select>\\n                          <div class="field-error"> <p id="error-cod-localizacion"> </p> </div>\\n                        </div>\\n\\n                        <div class="form-group">\\n                            <label class="form-group" id="numRegistro" style="margin-bottom: 0px">C\\xc3\\xb3digo de localizaci\\xc3\\xb3n</label>\\n                            <input type="text" class="form-control" value=\', escape=False)\nresponse.write(bien[\'bm_codigo_localizacion\'])\nresponse.write(\' id="cod_loc" name="cod_loc" placeholder="" readonly >\\n                            <div class="field-error"> <p id="error-cod_loc"> </p> </div>\\n                          </div>\\n                  \\n\\n                      <div class="form-group">\\n                          <label class="form-group" id="numRegistro" style="margin-bottom: 0px">Categorias</label>\\n                          <select class="form-control" type="select" value=\', escape=False)\nresponse.write(bien[\'bm_categoria\'])\nresponse.write(\' id="categoria" onchange="colocar_subcategoria2(2);" name="nombre_cat" required>\\n                            <option value="" onchange="colocar_subcategoria2(2);" >Seleccione una categorias</option>\\n                            \', escape=False)\nfor categoria in nombre_cat:\n    response.write(\'\\n                                \', escape=False)\n    if bien[\'bm_categoria\']==categoria:\n        response.write(\'\\n                                    <option value="\', escape=False)\n        response.write(categoria)\n        response.write(\'" selected="selected" onchange="colocar_subcategoria2(2);" >\', escape=False)\n        response.write(categoria)\n        response.write(\'</option>\\n                                \', escape=False)\n    else:\n        response.write(\'\\n                                    <option value="\', escape=False)\n        response.write(categoria)\n        response.write(\'" onchange="colocar_subcategoria2(2);" >\', escape=False)\n        response.write(categoria)\n        response.write(\'</option>\\n                                \', escape=False)\n        pass\n    response.write(\'\\n                            \', escape=False)\n    pass\nresponse.write(\'\\n\\n                          </select>\\n                          <div class="field-error"> <p id="error-categorias"> </p> </div>\\n                        </div>\\n\\n                    \\n                        <div class="form-group">\\n                            <label class="form-group" id="numRegistro" style="margin-bottom: 0px">Subcategorias</label>\\n                            <label class="form-group" id="numRegistro2" style="margin-bottom: 0px" ></label>\\n                            <select class="form-control" onchange="colocar_subcategoria2(1);" type="select" value=\', escape=False)\nresponse.write(bien[\'bm_subcategoria\'])\nresponse.write(\' id="Subcategorias"  name="subcategoria" required>\\n                              <option value=\', escape=False)\nresponse.write(bien[\'bm_subcategoria\'])\nresponse.write(" id=\'Opcion0\'>", escape=False)\nresponse.write(bien[\'bm_subcategoria\'])\nresponse.write(\'</option>\\n                              <option value="" id="Opcion1" hidden></option>\\n                              <option value="" id="Opcion2" hidden ></option>\\n                              <option value="" id="Opcion3" hidden ></option>\\n                              <option value="" id="Opcion4" hidden ></option>\\n                              <option value="" id="Opcion5" hidden ></option>\\n                              <option value="" id="Opcion6" hidden ></option>\\n                              <option value="" id="Opcion7" hidden ></option>\\n                              <option value="" id="Opcion8" hidden ></option>\\n                              <option value="" id="Opcion9" hidden ></option>\\n                            </select>\\n                            <div class="field-error"> <p id="error-categorias"> </p> </div>\\n                        </div>\\n\\n                      </div>\\n                    </div>\\n                    <button type="button" class="btn btn-previous botonForm">Anterior</button>\\n                    <button type="submit button" form="formularioCarga" id="submit" name="modificacion" value="True" class="btn btn-submit botonForm">Modificar</button>\\n                </fieldset>\\n                <!-- Fin Tercer Paso -->\\n              </form>\\n          </div>\\n        </div>               \\n      </div>\\n    </div>\\n  </div>\\n</div>\\n\\n<!-- Fin Modal Agregar BM -->\\n\\n\\n<script type="text/javascript">\\n\\n    // Funcion para mostrar campos dependendiendo de la categoria\\n    function elegir_campos(){\\n      var selecion = document.getElementById("clasificacion");\\n      if (selecion.value == "Mobiliario"){\\n        document.getElementById("marca").type = \\\'hidden\\\';\\n        document.getElementById("modelo").type = \\\'hidden\\\';\\n        document.getElementById("serial").type = \\\'hidden\\\';\\n        document.getElementById("estatus").type = \\\'hidden\\\';\\n        document.getElementById("calibrar").style.display = \\\'none\\\';\\n      }\\n      else{\\n        document.getElementById("select-calibrar").setAttribute("required", "");\\n        document.getElementById("marca").type = \\\'text\\\';\\n        document.getElementById("modelo").type = \\\'text\\\';\\n        document.getElementById("serial").type = \\\'text\\\';\\n        document.getElementById("estatus").type = \\\'text\\\';\\n        document.getElementById("calibrar").style.display = \\\'block\\\';\\n      }\\n      document.getElementById("fecha_calibracion").style.display = \\\'none\\\';\\n    }\\n  \\n    // Mostrar fecha de calibracion\\n    function display_date(value){\\n      if ( value == "Si" ){\\n        document.getElementById("fecha_calibracion").style.display = \\\'block\\\';\\n        document.getElementById("fecha_calibracion").setAttribute("required", "");\\n      }else{\\n        document.getElementById("fecha_calibracion").style.display = \\\'none\\\';\\n      }\\n    }\\n  \\n    // Mostrar unidades\\n    function display_units(value){\\n      if ( value == \\\'\\\' ){\\n        document.getElementById("unidad").type = \\\'hidden\\\';\\n        document.getElementById("ancho").type = \\\'hidden\\\';\\n        document.getElementById("largo").type = \\\'hidden\\\';\\n        document.getElementById("alto").type = \\\'hidden\\\';\\n        document.getElementById("diametro").type = \\\'hidden\\\';\\n      }else{\\n        document.getElementById("unidad").type = \\\'text\\\';\\n        document.getElementById("ancho").type = \\\'text\\\';\\n        document.getElementById("largo").type = \\\'text\\\';\\n        document.getElementById("alto").type = \\\'text\\\';\\n        document.getElementById("diametro").type = \\\'text\\\';\\n      }\\n    }\\n  \\n    // Valida los campos de la forma en el modal "addbm"\\n    function validar_campos(){\\n  \\n      // Buscando divs para ingresar mensajes de error\\n      var error_total = document.getElementById("error-total");\\n      var error_uso_interno = document.getElementById("error-uso-interno");\\n      var fecha_calibracion = document.getElementById("fecha_calibracion")\\n  \\n      // Limpiando los mensajes anteriores de validadores\\n      if (error_total.innerText != \\\'\\\'){\\n        error_total.innerText = \\\'\\\';\\n      }\\n      if (error_uso_interno.innerText != \\\'\\\'){\\n        error_uso_interno.innerText = \\\'\\\';\\n      }\\n       \\n      // Buscando los valores ingresados por el usuario en cada campo\\n      var total = document.forms[\\\'formularioCarga\\\'][\\\'total\\\'].value;\\n      var uso_interno = document.forms[\\\'formularioCarga\\\'][\\\'uso_interno\\\'].value;\\n  \\n      // Mensajes de error\\n      var mensaje_error_tipo = "Por favor ingrese un valor num\\xc3\\xa9rico. Por ejemplo \\\\"2.5\\\\"";\\n      var mensaje_error_negativo = "Por favor ingrese un valor no negativo.";\\n      var mensaje_error_nulo = "Por favor ingrese un valor mayor a cero.";\\n      var mensaje_error_uso_interno = "Por favor ingrese un valor inferior o igual a la cantidad en existencia.";\\n  \\n      /* Validando el campo total (cantidad total de la sustancia en el inventario) */\\n      if (!is_number(total)) {\\n        error_total.innerText = mensaje_error_tipo;\\n        return false;\\n      }\\n      \\n      if (is_negative(total)) {\\n        error_total.innerText = mensaje_error_negativo;\\n        return false;\\n      }\\n  \\n      if (is_zero(total)) {\\n        error_total.innerText = mensaje_error_nulo;\\n        return false;\\n      }\\n  \\n      /* Validando el campo uso_interno */\\n      if (!is_number(uso_interno)) {\\n        error_uso_interno.innerText = mensaje_error_tipo;\\n        return false;\\n      }\\n      \\n      if (is_negative(uso_interno)) {\\n        error_uso_interno.innerText = mensaje_error_negativo;\\n        return false;\\n      }\\n      // La cantidad de sustancia para uso interno no puede ser mayor al total\\n      if (uso_interno > total) {\\n        error_uso_interno.innerText = mensaje_error_uso_interno;\\n        return false;\\n      }\\n  \\n    }\\n  \\n    // True si "n" es un numero\\n    function is_number(n){\\n      return !isNaN(n);\\n    }\\n  \\n    // True si "n" es negativo\\n    function is_negative(n){\\n      return (n < 0)\\n    }\\n  \\n    // True si "n" es cero\\n    function is_zero(n){\\n      return (n == 0)\\n    }\\n  \\n    function placeholder_localizacion(value){\\n      var x = document.getElementById("cod_loc");\\n      var y = document.getElementById("localizacion");\\n  \\n  \\n      if (value  ==\\\'Edo Miranda, Municipio Baruta, Parroquia Baruta\\\'){\\n        x.placeholder = \\\'150301\\\';\\n        x.value = \\\'150301\\\';\\n      }else{;\\n        x.placeholder =\\\'240107\\\';\\n        x.value = \\\'240107\\\';\\n  \\n      }\\n    }\\n\\n    function colocar_subcategoria2(indicador){\\n    value = document.getElementById(\\\'categoria\\\').value;\\n      var dict = {\\n          \\\'Maquinaria Construcci\\xc3\\xb3n\\\':\\n              ["Maquinaria y equipos de construcci\\xc3\\xb3n y mantenimiento",\\n              "Maquinarias y equipos para mantenimiento de automotores",\\n              "Maquinarias y equipos agr\\xc3\\xadcolas y pecuarios",\\n              "Maquinarias y equipos de artes gr\\xc3\\xa1ficas y reproducci\\xc3\\xb3n",\\n              "Maquinarias y equipos industriales y de taller",\\n              "Maquinarias y equipos de energ\\xc3\\xada",\\n              "Maquinarias y equipos de riego y acueductos",\\n              "Equipos de almacen",\\n              "Otras maquinarias y dem\\xc3\\xa1s equipos de construcci\\xc3\\xb3n, campo, industria y taller"],\\n          "Equipo Transporte":\\n              ["Veh\\xc3\\xadculos automotores terrestres",\\n              "Equipos ferroviarios y de cables a\\xc3\\xa9reos",\\n              "Equipos mar\\xc3\\xadtimos de transporte",\\n              "Equipos a\\xc3\\xa9reos de transporte",\\n              "Veh\\xc3\\xadculos de tracci\\xc3\\xb3n no motorizados",\\n              "Equipos auxiliares de transporte",\\n              "Otros equipos de transporte, tracci\\xc3\\xb3n y elevaci\\xc3\\xb3n"],\\n          "Equipo Comunicaciones":\\n              ["Equipos de telecomunicaciones",\\n              "Equipos de se\\xc3\\xb1alamiento",\\n              "Equipos de control de tr\\xc3\\xa1fico a\\xc3\\xa9reo",\\n              "Equipos de correo",\\n              "Otros equipos de comunicaciones y de se\\xc3\\xb1alamiento"],\\n          "Equipo M\\xc3\\xa9dico":\\n              ["Equipos m\\xc3\\xa9dicos - quir\\xc3\\xbargicos, dentales y veterinarios",\\n              "Otros Equipos m\\xc3\\xa9dicos - quir\\xc3\\xbargicos, dentales y veterinarios"],\\n          "Equipo Cient\\xc3\\xadfico Religioso":\\n              ["Equipos cient\\xc3\\xadficos y de laboratorio",\\n              "Equipos de ense\\xc3\\xb1anza, deporte y recreaci\\xc3\\xb3n",\\n              "Obras de arte",\\n              "Libros y revistas",\\n              "Equipos religiosos",\\n              "Instrumentos musicales",\\n              "Otros equipos cient\\xc3\\xadficos, religiosos, de ense\\xc3\\xb1anza y recreaci\\xc3\\xb3n"],\\n          "Equipo Oficina" : \\n              ["Mobiliario y equipos de oficina",\\n              "Equipos de procesamiento de datos",\\n              "Mobiliario y equipos de alojamiento",\\n              "Otras m\\xc3\\xa1quinas, muebles y dem\\xc3\\xa1s equipos de oficina y de alojamiento"]};\\n    var n = 1;\\n    var x;\\n    var y = document.getElementById("numRegistro2");\\n  \\n    if (indicador == \\\'1\\\' || indicador == \\\'2\\\'){\\n        var z = document.getElementById(\\\'Opcion0\\\');\\n        z.value = \\\'\\\';\\n        z.innerHTML = \\\'Seleccione una opcion\\\';\\n        if (indicador == \\\'2\\\'){\\n            z.selected = true;\\n        }\\n    }\\n\\n    if (value != ""){\\n      for (var i in dict[value]){\\n        x = document.getElementById("Opcion".concat(n.toString()));\\n        x.innerText = dict[value][i];\\n        x.style.display= "block";\\n        $(\\\'#Opcion\\\'.concat(n.toString())).html(dict[value][i]);\\n        $(\\\'#Opcion\\\'.concat(n.toString())).show();\\n        x.value = dict[value][i];\\n        n = n + 1;  \\n      }\\n      while (n <= 9){\\n        x = document.getElementById("Opcion".concat(n.toString()));\\n        //x.innerText = "";\\n        //x.style.display = "none";\\n        $(\\\'#Opcion\\\'.concat(n.toString())).hide();\\n        $(\\\'#Opcion\\\'.concat(n.toString())).html("");\\n        x.value = "";\\n        n = n +1;\\n        \\n      }\\n      \\n    }\\n  }\\n  </script>\\n  <script type="text/javascript">\\n    $(\\\'.tab-link\\\').click( function() {\\n        \\n        var tabID = $(this).attr(\\\'data-tab\\\');\\n        \\n        $(this).addClass(\\\'active\\\').siblings().removeClass(\\\'active\\\');\\n        \\n        $(\\\'#tab-\\\'+tabID).addClass(\\\'active\\\').siblings().removeClass(\\\'active\\\');\\n    });\\n      \\n      </script>\\n  \', escape=False)\nresponse.write(\'\\n\\n<script type="text/javascript">\\n  if(window.location.pathname.includes(\\\'personal\\\')){\\n    $(\\\'li#personal\\\').addClass("active");\\n  }\\n  else if (window.location.pathname.includes(\\\'servicios\\\')){\\n    $(\\\'li#servicios\\\').addClass("active");\\n  }\\n</script>\\n</body>\\n</html>\', escape=False)'
p7
sS'snapshot'
p8
(dp9
S'exception'
p10
(dp11
S'__getslice__'
p12
S"<method-wrapper '__getslice__' of exceptions.NameError object>"
p13
sS'__str__'
p14
S"<method-wrapper '__str__' of exceptions.NameError object>"
p15
sS'__reduce__'
p16
S'<built-in method __reduce__ of exceptions.NameError object>'
p17
sS'__dict__'
p18
S'{}'
p19
sS'message'
p20
S'"name \'sudebid_list\' is not defined"'
p21
sS'__sizeof__'
p22
S'<built-in method __sizeof__ of exceptions.NameError object>'
p23
sS'__init__'
p24
S"<method-wrapper '__init__' of exceptions.NameError object>"
p25
sS'__setattr__'
p26
S"<method-wrapper '__setattr__' of exceptions.NameError object>"
p27
sS'__reduce_ex__'
p28
S'<built-in method __reduce_ex__ of exceptions.NameError object>'
p29
sS'__new__'
p30
S'<built-in method __new__ of type object>'
p31
sS'__format__'
p32
S'<built-in method __format__ of exceptions.NameError object>'
p33
sS'__class__'
p34
S"<type 'exceptions.NameError'>"
p35
sS'__doc__'
p36
S"'Name not found globally.'"
p37
sS'__getitem__'
p38
S"<method-wrapper '__getitem__' of exceptions.NameError object>"
p39
sS'__setstate__'
p40
S'<built-in method __setstate__ of exceptions.NameError object>'
p41
sS'__getattribute__'
p42
S"<method-wrapper '__getattribute__' of exceptions.NameError object>"
p43
sS'args'
p44
S'("name \'sudebid_list\' is not defined",)'
p45
sS'__subclasshook__'
p46
S'<built-in method __subclasshook__ of type object>'
p47
sS'__unicode__'
p48
S'<built-in method __unicode__ of exceptions.NameError object>'
p49
sS'__delattr__'
p50
S"<method-wrapper '__delattr__' of exceptions.NameError object>"
p51
sS'__repr__'
p52
S"<method-wrapper '__repr__' of exceptions.NameError object>"
p53
sS'__hash__'
p54
S"<method-wrapper '__hash__' of exceptions.NameError object>"
p55
ssS'evalue'
p56
S"name 'sudebid_list' is not defined"
p57
sS'request'
p58
cgluon.html
XML_unpickle
p59
(S's\x02d\x00\x00<div><table><tr><td style="font-weight:bold;vertical-align:top;">ajax</td><td style="vertical-align:top;">:</td><td><div>False</div></td></tr><tr><td style="font-weight:bold;vertical-align:top;">application</td><td style="vertical-align:top;">:</td><td><div>sigulab2</div></td></tr><tr><td style="font-weight:bold;vertical-align:top;">args</td><td style="vertical-align:top;">:</td><td><div><table></table></div></td></tr><tr><td style="font-weight:bold;vertical-align:top;">cid</td><td style="vertical-align:top;">:</td><td><div>None</div></td></tr><tr><td style="font-weight:bold;vertical-align:top;">client</td><td style="vertical-align:top;">:</td><td><div>127.0.0.1</div></td></tr><tr><td style="font-weight:bold;vertical-align:top;">controller</td><td style="vertical-align:top;">:</td><td><div>inventarios</div></td></tr><tr><td style="font-weight:bold;vertical-align:top;">cookies</td><td style="vertical-align:top;">:</td><td><div><table><tr><td style="font-weight:bold;vertical-align:top;">csrftoken</td><td style="vertical-align:top;">:</td><td><div>J2kA0yMUTTe8cUZwYgZmKFGMt1vAqsegvlpyjhmzwgemcplSpecVPzjr46cHImSP<table><tr><td style="font-weight:bold;vertical-align:top;">comment</td><td style="vertical-align:top;">:</td><td><div></div></td></tr><tr><td style="font-weight:bold;vertical-align:top;">domain</td><td style="vertical-align:top;">:</td><td><div></div></td></tr><tr><td style="font-weight:bold;vertical-align:top;">expires</td><td style="vertical-align:top;">:</td><td><div></div></td></tr><tr><td style="font-weight:bold;vertical-align:top;">httponly</td><td style="vertical-align:top;">:</td><td><div></div></td></tr><tr><td style="font-weight:bold;vertical-align:top;">max-age</td><td style="vertical-align:top;">:</td><td><div></div></td></tr><tr><td style="font-weight:bold;vertical-align:top;">path</td><td style="vertical-align:top;">:</td><td><div></div></td></tr><tr><td style="font-weight:bold;vertical-align:top;">secure</td><td style="vertical-align:top;">:</td><td><div></div></td></tr><tr><td style="font-weight:bold;vertical-align:top;">version</td><td style="vertical-align:top;">:</td><td><div></div></td></tr></table></div></td></tr><tr><td style="font-weight:bold;vertical-align:top;">session_id_admin</td><td style="vertical-align:top;">:</td><td><div>127.0.0.1-1eeb051e-664e-4062-9391-5abfe7cd4c6e<table><tr><td style="font-weight:bold;vertical-align:top;">comment</td><td style="vertical-align:top;">:</td><td><div></div></td></tr><tr><td style="font-weight:bold;vertical-align:top;">domain</td><td style="vertical-align:top;">:</td><td><div></div></td></tr><tr><td style="font-weight:bold;vertical-align:top;">expires</td><td style="vertical-align:top;">:</td><td><div></div></td></tr><tr><td style="font-weight:bold;vertical-align:top;">httponly</td><td style="vertical-align:top;">:</td><td><div></div></td></tr><tr><td style="font-weight:bold;vertical-align:top;">max-age</td><td style="vertical-align:top;">:</td><td><div></div></td></tr><tr><td style="font-weight:bold;vertical-align:top;">path</td><td style="vertical-align:top;">:</td><td><div></div></td></tr><tr><td style="font-weight:bold;vertical-align:top;">secure</td><td style="vertical-align:top;">:</td><td><div></div></td></tr><tr><td style="font-weight:bold;vertical-align:top;">version</td><td style="vertical-align:top;">:</td><td><div></div></td></tr></table></div></td></tr><tr><td style="font-weight:bold;vertical-align:top;">session_id_sigulab2</td><td style="vertical-align:top;">:</td><td><div>127.0.0.1-f3bbb783-0910-4913-aa62-37861a91a6a9<table><tr><td style="font-weight:bold;vertical-align:top;">comment</td><td style="vertical-align:top;">:</td><td><div></div></td></tr><tr><td style="font-weight:bold;vertical-align:top;">domain</td><td style="vertical-align:top;">:</td><td><div></div></td></tr><tr><td style="font-weight:bold;vertical-align:top;">expires</td><td style="vertical-align:top;">:</td><td><div></div></td></tr><tr><td style="font-weight:bold;vertical-align:top;">httponly</td><td style="vertical-align:top;">:</td><td><div></div></td></tr><tr><td style="font-weight:bold;vertical-align:top;">max-age</td><td style="vertical-align:top;">:</td><td><div></div></td></tr><tr><td style="font-weight:bold;vertical-align:top;">path</td><td style="vertical-align:top;">:</td><td><div></div></td></tr><tr><td style="font-weight:bold;vertical-align:top;">secure</td><td style="vertical-align:top;">:</td><td><div></div></td></tr><tr><td style="font-weight:bold;vertical-align:top;">version</td><td style="vertical-align:top;">:</td><td><div></div></td></tr></table></div></td></tr><tr><td style="font-weight:bold;vertical-align:top;">session_id_welcome</td><td style="vertical-align:top;">:</td><td><div>127.0.0.1-62d0af1c-e685-4d56-8033-6528d2291129<table><tr><td style="font-weight:bold;vertical-align:top;">comment</td><td style="vertical-align:top;">:</td><td><div></div></td></tr><tr><td style="font-weight:bold;vertical-align:top;">domain</td><td style="vertical-align:top;">:</td><td><div></div></td></tr><tr><td style="font-weight:bold;vertical-align:top;">expires</td><td style="vertical-align:top;">:</td><td><div></div></td></tr><tr><td style="font-weight:bold;vertical-align:top;">httponly</td><td style="vertical-align:top;">:</td><td><div></div></td></tr><tr><td style="font-weight:bold;vertical-align:top;">max-age</td><td style="vertical-align:top;">:</td><td><div></div></td></tr><tr><td style="font-weight:bold;vertical-align:top;">path</td><td style="vertical-align:top;">:</td><td><div></div></td></tr><tr><td style="font-weight:bold;vertical-align:top;">secure</td><td style="vertical-align:top;">:</td><td><div></div></td></tr><tr><td style="font-weight:bold;vertical-align:top;">version</td><td style="vertical-align:top;">:</td><td><div></div></td></tr></table></div></td></tr></table></div></td></tr><tr><td style="font-weight:bold;vertical-align:top;">env</td><td style="vertical-align:top;">:</td><td><div><table><tr><td style="font-weight:bold;vertical-align:top;">HTTP_ACCEPT</td><td style="vertical-align:top;">:</td><td><div>text/html,application/xhtml+xml,application/xml;q=0.9,image/webp,image/apng,*/*;q=0.8</div></td></tr><tr><td style="font-weight:bold;vertical-align:top;">HTTP_ACCEPT_ENCODING</td><td style="vertical-align:top;">:</td><td><div>gzip, deflate, br</div></td></tr><tr><td style="font-weight:bold;vertical-align:top;">HTTP_ACCEPT_LANGUAGE</td><td style="vertical-align:top;">:</td><td><div>es-ES,es;q=0.9,en;q=0.8</div></td></tr><tr><td style="font-weight:bold;vertical-align:top;">HTTP_CACHE_CONTROL</td><td style="vertical-align:top;">:</td><td><div>max-age=0</div></td></tr><tr><td style="font-weight:bold;vertical-align:top;">HTTP_CONNECTION</td><td style="vertical-align:top;">:</td><td><div>keep-alive</div></td></tr><tr><td style="font-weight:bold;vertical-align:top;">HTTP_COOKIE</td><td style="vertical-align:top;">:</td><td><div>csrftoken=J2kA0yMUTTe8cUZwYgZmKFGMt1vAqsegvlpyjhmzwgemcplSpecVPzjr46cHImSP; session_id_welcome=127.0.0.1-62d0af1c-e685-4d56-8033-6528d2291129; session_id_admin=127.0.0.1-1eeb051e-664e-4062-9391-5abfe7cd4c6e; session_id_sigulab2=127.0.0.1-f3bbb783-0910-4913-aa62-37861a91a6a9</div></td></tr><tr><td style="font-weight:bold;vertical-align:top;">HTTP_HOST</td><td style="vertical-align:top;">:</td><td><div>127.0.0.1:8000</div></td></tr><tr><td style="font-weight:bold;vertical-align:top;">HTTP_REFERER</td><td style="vertical-align:top;">:</td><td><div>http://127.0.0.1:8000/sigulab2/inventarios/bienes_muebles?dependencia=1&amp;es_espacio=True</div></td></tr><tr><td style="font-weight:bold;vertical-align:top;">HTTP_UPGRADE_INSECURE_REQUESTS</td><td style="vertical-align:top;">:</td><td><div>1</div></td></tr><tr><td style="font-weight:bold;vertical-align:top;">HTTP_USER_AGENT</td><td style="vertical-align:top;">:</td><td><div>Mozilla/5.0 (X11; Linux i686) AppleWebKit/537.36 (KHTML, like Gecko) Ubuntu Chromium/65.0.3325.181 Chrome/65.0.3325.181 Safari/537.36</div></td></tr><tr><td style="font-weight:bold;vertical-align:top;">PATH_INFO</td><td style="vertical-align:top;">:</td><td><div>/sigulab2/inventarios/detalles</div></td></tr><tr><td style="font-weight:bold;vertical-align:top;">QUERY_STRING</td><td style="vertical-align:top;">:</td><td><div>bm=123456</div></td></tr><tr><td style="font-weight:bold;vertical-align:top;">REMOTE_ADDR</td><td style="vertical-align:top;">:</td><td><div>127.0.0.1</div></td></tr><tr><td style="font-weight:bold;vertical-align:top;">REMOTE_PORT</td><td style="vertical-align:top;">:</td><td><div>44830</div></td></tr><tr><td style="font-weight:bold;vertical-align:top;">REQUEST_METHOD</td><td style="vertical-align:top;">:</td><td><div>GET</div></td></tr><tr><td style="font-weight:bold;vertical-align:top;">SCRIPT_NAME</td><td style="vertical-align:top;">:</td><td><div></div></td></tr><tr><td style="font-weight:bold;vertical-align:top;">SERVER_NAME</td><td style="vertical-align:top;">:</td><td><div>sandra-VIT</div></td></tr><tr><td style="font-weight:bold;vertical-align:top;">SERVER_PORT</td><td style="vertical-align:top;">:</td><td><div>8000</div></td></tr><tr><td style="font-weight:bold;vertical-align:top;">SERVER_PROTOCOL</td><td style="vertical-align:top;">:</td><td><div>HTTP/1.1</div></td></tr><tr><td style="font-weight:bold;vertical-align:top;">SERVER_SOFTWARE</td><td style="vertical-align:top;">:</td><td><div>Rocket 1.2.6</div></td></tr><tr><td style="font-weight:bold;vertical-align:top;">app_folders</td><td style="vertical-align:top;">:</td><td><div>set([&#x27;/home/sandra/Documents/web2py/applications/welcome/&#x27;, &#x27;/home/sandra/Documents/web2py/applications/sigulab2/&#x27;, &#x27;/home/sandra/Documents/web2py/applications/admin/&#x27;])</div></td></tr><tr><td style="font-weight:bold;vertical-align:top;">applications_parent</td><td style="vertical-align:top;">:</td><td><div>/home/sandra/Documents/web2py</div></td></tr><tr><td style="font-weight:bold;vertical-align:top;">cmd_args</td><td style="vertical-align:top;">:</td><td><div><table></table></div></td></tr><tr><td style="font-weight:bold;vertical-align:top;">cmd_options</td><td style="vertical-align:top;">:</td><td><div>&lt;Values at 0xb62f2f8c: {&#x27;verbose&#x27;: False, &#x27;ip&#x27;: &#x27;127.0.0.1&#x27;, &#x27;debuglevel&#x27;: 30, &#x27;with_scheduler&#x27;: False, &#x27;shutdown_timeout&#x27;: 5, &#x27;taskbar&#x27;: False, &#x27;with_coverage&#x27;: False, &#x27;pid_filename&#x27;: &#x27;httpserver.pid&#x27;, &#x27;maxthreads&#x27;: None, &#x27;softcron&#x27;: False, &#x27;server_name&#x27;: &#x27;sandra-VIT&#x27;, &#x27;bpython&#x27;: False, &#x27;nogui&#x27;: False, &#x27;port&#x27;: 8000, &#x27;print_errors&#x27;: False, &#x27;extcron&#x27;: False, &#x27;runcron&#x27;: False, &#x27;run_system_tests&#x27;: False, &#x27;test&#x27;: None, &#x27;folder&#x27;: &#x27;/home/sandra/Documents/web2py&#x27;, &#x27;config&#x27;: &#x27;&#x27;, &#x27;minthreads&#x27;: None, &#x27;shell&#x27;: None, &#x27;run&#x27;: &#x27;&#x27;, &#x27;log_filename&#x27;: &#x27;httpserver.log&#x27;, &#x27;profiler_dir&#x27;: None, &#x27;args&#x27;: [&#x27;&#x27;], &#x27;socket_timeout&#x27;: 5, &#x27;ssl_ca_certificate&#x27;: None, &#x27;scheduler&#x27;: None, &#x27;interfaces&#x27;: None, &#x27;ssl_private_key&#x27;: &#x27;&#x27;, &#x27;gae&#x27;: None, &#x27;password&#x27;: &#x27;******&#x27;, &#x27;request_queue_size&#x27;: 5, &#x27;ssl_certificate&#x27;: &#x27;&#x27;, &#x27;cronjob&#x27;: False, &#x27;numthreads&#x27;: None, &#x27;quiet&#x27;: False, &#x27;import_models&#x27;: False, &#x27;timeout&#x27;: 10, &#x27;plain&#x27;: False, &#x27;nobanner&#x27;: False}&gt;</div></td></tr><tr><td style="font-weight:bold;vertical-align:top;">db_sessions</td><td style="vertical-align:top;">:</td><td><div>set([])</div></td></tr><tr><td style="font-weight:bold;vertical-align:top;">debugging</td><td style="vertical-align:top;">:</td><td><div>False</div></td></tr><tr><td style="font-weight:bold;vertical-align:top;">gluon_parent</td><td style="vertical-align:top;">:</td><td><div>/home/sandra/Documents/web2py</div></td></tr><tr><td style="font-weight:bold;vertical-align:top;">http_accept</td><td style="vertical-align:top;">:</td><td><div>text/html,application/xhtml+xml,application/xml;q=0.9,image/webp,image/apng,*/*;q=0.8</div></td></tr><tr><td style="font-weight:bold;vertical-align:top;">http_accept_encoding</td><td style="vertical-align:top;">:</td><td><div>gzip, deflate, br</div></td></tr><tr><td style="font-weight:bold;vertical-align:top;">http_accept_language</td><td style="vertical-align:top;">:</td><td><div>es-ES,es;q=0.9,en;q=0.8</div></td></tr><tr><td style="font-weight:bold;vertical-align:top;">http_cache_control</td><td style="vertical-align:top;">:</td><td><div>max-age=0</div></td></tr><tr><td style="font-weight:bold;vertical-align:top;">http_connection</td><td style="vertical-align:top;">:</td><td><div>keep-alive</div></td></tr><tr><td style="font-weight:bold;vertical-align:top;">http_cookie</td><td style="vertical-align:top;">:</td><td><div>csrftoken=J2kA0yMUTTe8cUZwYgZmKFGMt1vAqsegvlpyjhmzwgemcplSpecVPzjr46cHImSP; session_id_welcome=127.0.0.1-62d0af1c-e685-4d56-8033-6528d2291129; session_id_admin=127.0.0.1-1eeb051e-664e-4062-9391-5abfe7cd4c6e; session_id_sigulab2=127.0.0.1-f3bbb783-0910-4913-aa62-37861a91a6a9</div></td></tr><tr><td style="font-weight:bold;vertical-align:top;">http_host</td><td style="vertical-align:top;">:</td><td><div>127.0.0.1:8000</div></td></tr><tr><td style="font-weight:bold;vertical-align:top;">http_referer</td><td style="vertical-align:top;">:</td><td><div>http://127.0.0.1:8000/sigulab2/inventarios/bienes_muebles?dependencia=1&amp;es_espacio=True</div></td></tr><tr><td style="font-weight:bold;vertical-align:top;">http_upgrade_insecure_requests</td><td style="vertical-align:top;">:</td><td><div>1</div></td></tr><tr><td style="font-weight:bold;vertical-align:top;">http_user_agent</td><td style="vertical-align:top;">:</td><td><div>Mozilla/5.0 (X11; Linux i686) AppleWebKit/537.36 (KHTML, like Gecko) Ubuntu Chromium/65.0.3325.181 Chrome/65.0.3325.181 Safari/537.36</div></td></tr><tr><td style="font-weight:bold;vertical-align:top;">is_jython</td><td style="vertical-align:top;">:</td><td><div>False</div></td></tr><tr><td style="font-weight:bold;vertical-align:top;">is_py2</td><td style="vertical-align:top;">:</td><td><div>True</div></td></tr><tr><td style="font-weight:bold;vertical-align:top;">is_pypy</td><td style="vertical-align:top;">:</td><td><div>False</div></td></tr><tr><td style="font-weight:bold;vertical-align:top;">is_source</td><td style="vertical-align:top;">:</td><td><div>True</div></td></tr><tr><td style="font-weight:bold;vertical-align:top;">local_hosts</td><td style="vertical-align:top;">:</td><td><div><table><tr><td><div>sandra-VIT</div></td></tr><tr><td><div>::1</div></td></tr><tr><td><div>127.0.1.1</div></td></tr><tr><td><div>::ffff:127.0.0.1</div></td></tr><tr><td><div>127.0.0.1</div></td></tr></table></div></td></tr><tr><td style="font-weight:bold;vertical-align:top;">path_info</td><td style="vertical-align:top;">:</td><td><div>/sigulab2/inventarios/detalles</div></td></tr><tr><td style="font-weight:bold;vertical-align:top;">query_string</td><td style="vertical-align:top;">:</td><td><div>bm=123456</div></td></tr><tr><td style="font-weight:bold;vertical-align:top;">remote_addr</td><td style="vertical-align:top;">:</td><td><div>127.0.0.1</div></td></tr><tr><td style="font-weight:bold;vertical-align:top;">remote_port</td><td style="vertical-align:top;">:</td><td><div>44830</div></td></tr><tr><td style="font-weight:bold;vertical-align:top;">request_method</td><td style="vertical-align:top;">:</td><td><div>GET</div></td></tr><tr><td style="font-weight:bold;vertical-align:top;">request_uri</td><td style="vertical-align:top;">:</td><td><div>/sigulab2/inventarios/detalles?bm=123456</div></td></tr><tr><td style="font-weight:bold;vertical-align:top;">script_name</td><td style="vertical-align:top;">:</td><td><div></div></td></tr><tr><td style="font-weight:bold;vertical-align:top;">server_name</td><td style="vertical-align:top;">:</td><td><div>sandra-VIT</div></td></tr><tr><td style="font-weight:bold;vertical-align:top;">server_port</td><td style="vertical-align:top;">:</td><td><div>8000</div></td></tr><tr><td style="font-weight:bold;vertical-align:top;">server_protocol</td><td style="vertical-align:top;">:</td><td><div>HTTP/1.1</div></td></tr><tr><td style="font-weight:bold;vertical-align:top;">server_software</td><td style="vertical-align:top;">:</td><td><div>Rocket 1.2.6</div></td></tr><tr><td style="font-weight:bold;vertical-align:top;">web2py_path</td><td style="vertical-align:top;">:</td><td><div>/home/sandra/Documents/web2py</div></td></tr><tr><td style="font-weight:bold;vertical-align:top;">web2py_version</td><td style="vertical-align:top;">:</td><td><div>2.16.1-stable+timestamp.2017.11.14.05.54.25</div></td></tr><tr><td style="font-weight:bold;vertical-align:top;">wsgi.errors</td><td style="vertical-align:top;">:</td><td><div>&lt;open file &#x27;&lt;stderr&gt;&#x27;, mode &#x27;w&#x27; at 0xb75700d0&gt;</div></td></tr><tr><td style="font-weight:bold;vertical-align:top;">wsgi.file_wrapper</td><td style="vertical-align:top;">:</td><td><div>&lt;class wsgiref.util.FileWrapper at 0xb6323b3c&gt;</div></td></tr><tr><td style="font-weight:bold;vertical-align:top;">wsgi.input</td><td style="vertical-align:top;">:</td><td><div>&lt;socket._fileobject object at 0xaf1c71ec&gt;</div></td></tr><tr><td style="font-weight:bold;vertical-align:top;">wsgi.multiprocess</td><td style="vertical-align:top;">:</td><td><div>False</div></td></tr><tr><td style="font-weight:bold;vertical-align:top;">wsgi.multithread</td><td style="vertical-align:top;">:</td><td><div>True</div></td></tr><tr><td style="font-weight:bold;vertical-align:top;">wsgi.run_once</td><td style="vertical-align:top;">:</td><td><div>False</div></td></tr><tr><td style="font-weight:bold;vertical-align:top;">wsgi.url_scheme</td><td style="vertical-align:top;">:</td><td><div>http</div></td></tr><tr><td style="font-weight:bold;vertical-align:top;">wsgi.version</td><td style="vertical-align:top;">:</td><td><div><table><tr><td><div>1</div></td></tr><tr><td><div>0</div></td></tr></table></div></td></tr><tr><td style="font-weight:bold;vertical-align:top;">wsgi_errors</td><td style="vertical-align:top;">:</td><td><div>&lt;open file &#x27;&lt;stderr&gt;&#x27;, mode &#x27;w&#x27; at 0xb75700d0&gt;</div></td></tr><tr><td style="font-weight:bold;vertical-align:top;">wsgi_file_wrapper</td><td style="vertical-align:top;">:</td><td><div>&lt;class wsgiref.util.FileWrapper at 0xb6323b3c&gt;</div></td></tr><tr><td style="font-weight:bold;vertical-align:top;">wsgi_input</td><td style="vertical-align:top;">:</td><td><div>&lt;socket._fileobject object at 0xaf1c71ec&gt;</div></td></tr><tr><td style="font-weight:bold;vertical-align:top;">wsgi_multiprocess</td><td style="vertical-align:top;">:</td><td><div>False</div></td></tr><tr><td style="font-weight:bold;vertical-align:top;">wsgi_multithread</td><td style="vertical-align:top;">:</td><td><div>True</div></td></tr><tr><td style="font-weight:bold;vertical-align:top;">wsgi_run_once</td><td style="vertical-align:top;">:</td><td><div>False</div></td></tr><tr><td style="font-weight:bold;vertical-align:top;">wsgi_url_scheme</td><td style="vertical-align:top;">:</td><td><div>http</div></td></tr><tr><td style="font-weight:bold;vertical-align:top;">wsgi_version</td><td style="vertical-align:top;">:</td><td><div><table><tr><td><div>1</div></td></tr><tr><td><div>0</div></td></tr></table></div></td></tr></table></div></td></tr><tr><td style="font-weight:bold;vertical-align:top;">extension</td><td style="vertical-align:top;">:</td><td><div>html</div></td></tr><tr><td style="font-weight:bold;vertical-align:top;">folder</td><td style="vertical-align:top;">:</td><td><div>/home/sandra/Documents/web2py/applications/sigulab2/</div></td></tr><tr><td style="font-weight:bold;vertical-align:top;">function</td><td style="vertical-align:top;">:</td><td><div>detalles</div></td></tr><tr><td style="font-weight:bold;vertical-align:top;">global_settings</td><td style="vertical-align:top;">:</td><td><div><table><tr><td style="font-weight:bold;vertical-align:top;">app_folders</td><td style="vertical-align:top;">:</td><td><div>set([&#x27;/home/sandra/Documents/web2py/applications/welcome/&#x27;, &#x27;/home/sandra/Documents/web2py/applications/sigulab2/&#x27;, &#x27;/home/sandra/Documents/web2py/applications/admin/&#x27;])</div></td></tr><tr><td style="font-weight:bold;vertical-align:top;">applications_parent</td><td style="vertical-align:top;">:</td><td><div>/home/sandra/Documents/web2py</div></td></tr><tr><td style="font-weight:bold;vertical-align:top;">cmd_args</td><td style="vertical-align:top;">:</td><td><div><table></table></div></td></tr><tr><td style="font-weight:bold;vertical-align:top;">cmd_options</td><td style="vertical-align:top;">:</td><td><div>&lt;Values at 0xb62f2f8c: {&#x27;verbose&#x27;: False, &#x27;ip&#x27;: &#x27;127.0.0.1&#x27;, &#x27;debuglevel&#x27;: 30, &#x27;with_scheduler&#x27;: False, &#x27;shutdown_timeout&#x27;: 5, &#x27;taskbar&#x27;: False, &#x27;with_coverage&#x27;: False, &#x27;pid_filename&#x27;: &#x27;httpserver.pid&#x27;, &#x27;maxthreads&#x27;: None, &#x27;softcron&#x27;: False, &#x27;server_name&#x27;: &#x27;sandra-VIT&#x27;, &#x27;bpython&#x27;: False, &#x27;nogui&#x27;: False, &#x27;port&#x27;: 8000, &#x27;print_errors&#x27;: False, &#x27;extcron&#x27;: False, &#x27;runcron&#x27;: False, &#x27;run_system_tests&#x27;: False, &#x27;test&#x27;: None, &#x27;folder&#x27;: &#x27;/home/sandra/Documents/web2py&#x27;, &#x27;config&#x27;: &#x27;&#x27;, &#x27;minthreads&#x27;: None, &#x27;shell&#x27;: None, &#x27;run&#x27;: &#x27;&#x27;, &#x27;log_filename&#x27;: &#x27;httpserver.log&#x27;, &#x27;profiler_dir&#x27;: None, &#x27;args&#x27;: [&#x27;&#x27;], &#x27;socket_timeout&#x27;: 5, &#x27;ssl_ca_certificate&#x27;: None, &#x27;scheduler&#x27;: None, &#x27;interfaces&#x27;: None, &#x27;ssl_private_key&#x27;: &#x27;&#x27;, &#x27;gae&#x27;: None, &#x27;password&#x27;: &#x27;******&#x27;, &#x27;request_queue_size&#x27;: 5, &#x27;ssl_certificate&#x27;: &#x27;&#x27;, &#x27;cronjob&#x27;: False, &#x27;numthreads&#x27;: None, &#x27;quiet&#x27;: False, &#x27;import_models&#x27;: False, &#x27;timeout&#x27;: 10, &#x27;plain&#x27;: False, &#x27;nobanner&#x27;: False}&gt;</div></td></tr><tr><td style="font-weight:bold;vertical-align:top;">db_sessions</td><td style="vertical-align:top;">:</td><td><div>set([])</div></td></tr><tr><td style="font-weight:bold;vertical-align:top;">debugging</td><td style="vertical-align:top;">:</td><td><div>False</div></td></tr><tr><td style="font-weight:bold;vertical-align:top;">gluon_parent</td><td style="vertical-align:top;">:</td><td><div>/home/sandra/Documents/web2py</div></td></tr><tr><td style="font-weight:bold;vertical-align:top;">is_jython</td><td style="vertical-align:top;">:</td><td><div>False</div></td></tr><tr><td style="font-weight:bold;vertical-align:top;">is_py2</td><td style="vertical-align:top;">:</td><td><div>True</div></td></tr><tr><td style="font-weight:bold;vertical-align:top;">is_pypy</td><td style="vertical-align:top;">:</td><td><div>False</div></td></tr><tr><td style="font-weight:bold;vertical-align:top;">is_source</td><td style="vertical-align:top;">:</td><td><div>True</div></td></tr><tr><td style="font-weight:bold;vertical-align:top;">local_hosts</td><td style="vertical-align:top;">:</td><td><div><table><tr><td><div>sandra-VIT</div></td></tr><tr><td><div>::1</div></td></tr><tr><td><div>127.0.1.1</div></td></tr><tr><td><div>::ffff:127.0.0.1</div></td></tr><tr><td><div>127.0.0.1</div></td></tr></table></div></td></tr><tr><td style="font-weight:bold;vertical-align:top;">web2py_version</td><td style="vertical-align:top;">:</td><td><div>2.16.1-stable+timestamp.2017.11.14.05.54.25</div></td></tr></table></div></td></tr><tr><td style="font-weight:bold;vertical-align:top;">is_https</td><td style="vertical-align:top;">:</td><td><div>False</div></td></tr><tr><td style="font-weight:bold;vertical-align:top;">is_local</td><td style="vertical-align:top;">:</td><td><div>True</div></td></tr><tr><td style="font-weight:bold;vertical-align:top;">is_restful</td><td style="vertical-align:top;">:</td><td><div>False</div></td></tr><tr><td style="font-weight:bold;vertical-align:top;">is_scheduler</td><td style="vertical-align:top;">:</td><td><div>False</div></td></tr><tr><td style="font-weight:bold;vertical-align:top;">is_shell</td><td style="vertical-align:top;">:</td><td><div>False</div></td></tr><tr><td style="font-weight:bold;vertical-align:top;">now</td><td style="vertical-align:top;">:</td><td><div>datetime.datetime(2018, 6, 18, 18, 50, 25, 87918)</div></td></tr><tr><td style="font-weight:bold;vertical-align:top;">raw_args</td><td style="vertical-align:top;">:</td><td><div></div></td></tr><tr><td style="font-weight:bold;vertical-align:top;">raw_extension</td><td style="vertical-align:top;">:</td><td><div>None</div></td></tr><tr><td style="font-weight:bold;vertical-align:top;">url</td><td style="vertical-align:top;">:</td><td><div>/sigulab2/inventarios/detalles</div></td></tr><tr><td style="font-weight:bold;vertical-align:top;">utcnow</td><td style="vertical-align:top;">:</td><td><div>datetime.datetime(2018, 6, 18, 22, 50, 25, 87951)</div></td></tr><tr><td style="font-weight:bold;vertical-align:top;">wsgi</td><td style="vertical-align:top;">:</td><td><div>&lt;gluon.main.LazyWSGI object at 0xaf00f56c&gt;</div></td></tr></table></div>'
tRp60
sS'frames'
p61
(lp62
(dp63
S'file'
p64
S'/home/sandra/Documents/web2py/gluon/restricted.py'
p65
sS'dump'
p66
(dp67
S'environment'
p68
S"{'A': <class 'gluon.html.A'>, 'ANY_OF': <class 'gluon.validators.ANY_OF'>, 'ASSIGNJS': <function ASSIGNJS>, 'AppConfig': <function AppConfig>, 'Auth': <class 'gluon.tools.Auth'>, 'B': <class 'gluon.html.B'>, 'BEAUTIFY': <class 'gluon.html.BEAUTIFY'>, 'BODY': <class 'gluon.html.BODY'>, 'BR': <class 'gluon.html.BR'>, 'BUTTON': <class 'gluon.html.BUTTON'>, ...}"
p69
sS'ccode'
p70
S'<code object <module> at 0xae1e6f98, file "/home...igulab2/views/inventarios/detalles.html", line 1>'
p71
ssS'lnum'
p72
I219
sS'lines'
p73
(dp74
I214
S'    if environment is None:'
p75
sI215
S'        environment = {}'
p76
sI216
S"    environment['__file__'] = layer"
p77
sI217
S"    environment['__name__'] = '__restricted__'"
p78
sI218
S'    try:'
p79
sI219
S'        exec(ccode, environment)'
p80
sI220
S'    except HTTP:'
p81
sI221
S'        raise'
p82
sI222
S'    except RestrictedError:'
p83
sI223
S'        # do not encapsulate (obfuscate) the original RestrictedError'
p84
ssS'call'
p85
S'(ccode=<code object <module> at 0xae1e6f98, file "/home...igulab2/views/inventarios/detalles.html", line 1>, environment={\'A\': <class \'gluon.html.A\'>, \'ANY_OF\': <class \'gluon.validators.ANY_OF\'>, \'ASSIGNJS\': <function ASSIGNJS>, \'AppConfig\': <function AppConfig>, \'Auth\': <class \'gluon.tools.Auth\'>, \'B\': <class \'gluon.html.B\'>, \'BEAUTIFY\': <class \'gluon.html.BEAUTIFY\'>, \'BODY\': <class \'gluon.html.BODY\'>, \'BR\': <class \'gluon.html.BR\'>, \'BUTTON\': <class \'gluon.html.BUTTON\'>, ...}, layer=\'/home/sandra/Documents/web2py/applications/sigulab2/views/inventarios/detalles.html\', scode=\'response.write(\\\'<!DOCTYPE html>\\\\n<html lang="es"...n  }\\\\n</script>\\\\n</body>\\\\n</html>\\\', escape=False)\')'
p86
sS'func'
p87
S'restricted'
p88
sa(dp89
g64
S'/home/sandra/Documents/web2py/applications/sigulab2/views/inventarios/detalles.html'
p90
sg66
(dp91
S'div'
p92
S'undefined'
p93
ssg72
I164
sg73
(dp94
I160
S'        pass'
p95
sI161
S"    response.write('\\n            ', escape=False)"
p96
sI162
S'    pass'
p97
sI163
S'response.write(\'\\n        </div>\\n\\n        <!-- Pensar utilizar grid-->\\n\\t\\t<div id="tab-2" class="tab-content">\\n            <div class="grid-container">\\n            \', escape=False)'
p98
sI164
S'for title in sudebid_list:'
p99
sI165
S'    response.write(\'\\n                <div class="grid-item">\\n                    \', escape=False)'
p100
sI166
S'    response.write(title)'
p101
sI167
S'    response.write(\'\\n                </div>\\n                <div class="grid-item">\\n                    \', escape=False)'
p102
sI168
S'    response.write(sudebid_dict.get(title))'
p103
sI169
S"    response.write('\\n                </div>\\n            ', escape=False)"
p104
sI170
S'    pass'
p105
sI171
S"response.write('\\n            </div>\\n            <h4>Localizaci\\xc3\\xb3n: ', escape=False)"
p106
sI172
S"response.write(bien['bm_localizacion'])"
p107
sI173
S"response.write(' </h4>\\n            <h4>C\\xc3\\xb3digo Localizaci\\xc3\\xb3n: ', escape=False)"
p108
sI174
S"response.write(bien['bm_codigo_localizacion'])"
p109
sI155
S"    response.write('\\n                ', escape=False)"
p110
sI156
S"    if bien['bm_diametro'] != '':"
p111
sI157
S"        response.write('\\n                    <h4>  &emsp;   Di\\xc3\\xa1metro: ', escape=False)"
p112
sI158
S"        response.write(bien['bm_diametro'])"
p113
sI159
S"        response.write(' </h4>\\n                ', escape=False)"
p114
ssg85
S'()'
p115
sg87
S'<module>'
p116
sasS'pyver'
p117
S'Python 2.7.6: /usr/bin/python (prefix: /usr)'
p118
sS'session'
p119
g59
(S'sc\x08\x00\x00<div><table><tr><td style="font-weight:bold;vertical-align:top;">auth</td><td style="vertical-align:top;">:</td><td><div><table><tr><td style="font-weight:bold;vertical-align:top;">expiration</td><td style="vertical-align:top;">:</td><td><div>3600</div></td></tr><tr><td style="font-weight:bold;vertical-align:top;">hmac_key</td><td style="vertical-align:top;">:</td><td><div>07478fef-4fc3-42a3-b489-a9cd90a1cd1d</div></td></tr><tr><td style="font-weight:bold;vertical-align:top;">last_visit</td><td style="vertical-align:top;">:</td><td><div>datetime.datetime(2018, 6, 18, 18, 50, 25, 87918)</div></td></tr><tr><td style="font-weight:bold;vertical-align:top;">user</td><td style="vertical-align:top;">:</td><td><div><table><tr><td style="font-weight:bold;vertical-align:top;">email</td><td style="vertical-align:top;">:</td><td><div>sigulabusb@gmail.com</div></td></tr><tr><td style="font-weight:bold;vertical-align:top;">first_name</td><td style="vertical-align:top;">:</td><td><div>Super Usuario</div></td></tr><tr><td style="font-weight:bold;vertical-align:top;">id</td><td style="vertical-align:top;">:</td><td><div>1L</div></td></tr><tr><td style="font-weight:bold;vertical-align:top;">last_name</td><td style="vertical-align:top;">:</td><td><div></div></td></tr><tr><td style="font-weight:bold;vertical-align:top;">registration_id</td><td style="vertical-align:top;">:</td><td><div></div></td></tr><tr><td style="font-weight:bold;vertical-align:top;">registration_key</td><td style="vertical-align:top;">:</td><td><div></div></td></tr><tr><td style="font-weight:bold;vertical-align:top;">reset_password_key</td><td style="vertical-align:top;">:</td><td><div></div></td></tr></table></div></td></tr><tr><td style="font-weight:bold;vertical-align:top;">user_groups</td><td style="vertical-align:top;">:</td><td><div><table><tr><td style="font-weight:bold;vertical-align:top;">1</td><td style="vertical-align:top;">:</td><td><div>WEBMASTER</div></td></tr></table></div></td></tr></table></div></td></tr><tr><td style="font-weight:bold;vertical-align:top;">flash</td><td style="vertical-align:top;">:</td><td><div></div></td></tr></table></div>'
tRp120
sS'etype'
p121
S"<type 'exceptions.NameError'>"
p122
sS'date'
p123
S'Mon Jun 18 18:50:25 2018'
p124
sS'response'
p125
g59
(S's\xc4?\x00\x00<div><table><tr><td style="font-weight:bold;vertical-align:top;">body</td><td style="vertical-align:top;">:</td><td><div>&lt;cStringIO.StringO object at 0xae414a00&gt;</div></td></tr><tr><td style="font-weight:bold;vertical-align:top;">cookies</td><td style="vertical-align:top;">:</td><td><div><table><tr><td style="font-weight:bold;vertical-align:top;">session_id_sigulab2</td><td style="vertical-align:top;">:</td><td><div>127.0.0.1-f3bbb783-0910-4913-aa62-37861a91a6a9<table><tr><td style="font-weight:bold;vertical-align:top;">comment</td><td style="vertical-align:top;">:</td><td><div></div></td></tr><tr><td style="font-weight:bold;vertical-align:top;">domain</td><td style="vertical-align:top;">:</td><td><div></div></td></tr><tr><td style="font-weight:bold;vertical-align:top;">expires</td><td style="vertical-align:top;">:</td><td><div></div></td></tr><tr><td style="font-weight:bold;vertical-align:top;">httponly</td><td style="vertical-align:top;">:</td><td><div></div></td></tr><tr><td style="font-weight:bold;vertical-align:top;">max-age</td><td style="vertical-align:top;">:</td><td><div></div></td></tr><tr><td style="font-weight:bold;vertical-align:top;">path</td><td style="vertical-align:top;">:</td><td><div>/</div></td></tr><tr><td style="font-weight:bold;vertical-align:top;">secure</td><td style="vertical-align:top;">:</td><td><div></div></td></tr><tr><td style="font-weight:bold;vertical-align:top;">version</td><td style="vertical-align:top;">:</td><td><div></div></td></tr></table></div></td></tr></table></div></td></tr><tr><td style="font-weight:bold;vertical-align:top;">delimiters</td><td style="vertical-align:top;">:</td><td><div><table><tr><td><div>{{</div></td></tr><tr><td><div>}}</div></td></tr></table></div></td></tr><tr><td style="font-weight:bold;vertical-align:top;">files</td><td style="vertical-align:top;">:</td><td><div><table></table></div></td></tr><tr><td style="font-weight:bold;vertical-align:top;">flash</td><td style="vertical-align:top;">:</td><td><div></div></td></tr><tr><td style="font-weight:bold;vertical-align:top;">form_label_separator</td><td style="vertical-align:top;">:</td><td><div></div></td></tr><tr><td style="font-weight:bold;vertical-align:top;">formstyle</td><td style="vertical-align:top;">:</td><td><div>bootstrap3_inline</div></td></tr><tr><td style="font-weight:bold;vertical-align:top;">generic_patterns</td><td style="vertical-align:top;">:</td><td><div><table><tr><td><div>*</div></td></tr></table></div></td></tr><tr><td style="font-weight:bold;vertical-align:top;">google_analytics_id</td><td style="vertical-align:top;">:</td><td><div>None</div></td></tr><tr><td style="font-weight:bold;vertical-align:top;">headers</td><td style="vertical-align:top;">:</td><td><div><table><tr><td style="font-weight:bold;vertical-align:top;">X-Powered-By</td><td style="vertical-align:top;">:</td><td><div>web2py</div></td></tr></table></div></td></tr><tr><td style="font-weight:bold;vertical-align:top;">logo</td><td style="vertical-align:top;">:</td><td><div><a class="navbar-brand" href="http://www.web2py.com/" id="web2py-logo"><b>web<span>2</span>py</b>&trade;&nbsp;</a></div></td></tr><tr><td style="font-weight:bold;vertical-align:top;">menu</td><td style="vertical-align:top;">:</td><td><div><table><tr><td><div><table><tr><td><div>Inicio</div></td></tr><tr><td><div>False</div></td></tr><tr><td><div>/sigulab2/default/index</div></td></tr><tr><td><div><table></table></div></td></tr></table></div></td></tr><tr><td><div><table><tr><td><div>Mis Sitios</div></td></tr><tr><td><div>False</div></td></tr><tr><td><div>/admin/default/site</div></td></tr></table></div></td></tr><tr><td><div><table><tr><td><div>Esta Aplicaci\xc3\xb3n</div></td></tr><tr><td><div>False</div></td></tr><tr><td><div>#</div></td></tr><tr><td><div><table><tr><td><div><table><tr><td><div>Dise\xc3\xb1o</div></td></tr><tr><td><div>False</div></td></tr><tr><td><div>/admin/default/design/sigulab2</div></td></tr></table></div></td></tr><tr><td><div><li class="divider"></li></div></td></tr><tr><td><div><table><tr><td><div>Controlador</div></td></tr><tr><td><div>False</div></td></tr><tr><td><div>/admin/default/edit/sigulab2/controllers/inventarios.py</div></td></tr></table></div></td></tr><tr><td><div><table><tr><td><div>Vista</div></td></tr><tr><td><div>False</div></td></tr><tr><td><div>/admin/default/edit/sigulab2/views/inventarios/detalles.html</div></td></tr></table></div></td></tr><tr><td><div><table><tr><td><div>Modelo BDD</div></td></tr><tr><td><div>False</div></td></tr><tr><td><div>/admin/default/edit/sigulab2/models/db.py</div></td></tr></table></div></td></tr><tr><td><div><table><tr><td><div>Modelo "menu"</div></td></tr><tr><td><div>False</div></td></tr><tr><td><div>/admin/default/edit/sigulab2/models/menu.py</div></td></tr></table></div></td></tr><tr><td><div><table><tr><td><div>Config.ini</div></td></tr><tr><td><div>False</div></td></tr><tr><td><div>/admin/default/edit/sigulab2/private/appconfig.ini</div></td></tr></table></div></td></tr><tr><td><div><table><tr><td><div>Dise\xc3\xb1o de p\xc3\xa1gina</div></td></tr><tr><td><div>False</div></td></tr><tr><td><div>/admin/default/edit/sigulab2/views/layout.html</div></td></tr></table></div></td></tr><tr><td><div><table><tr><td><div>Hoja de estilo</div></td></tr><tr><td><div>False</div></td></tr><tr><td><div>/admin/default/edit/sigulab2/static/css/web2py-bootstrap3.css</div></td></tr></table></div></td></tr><tr><td><div><table><tr><td><div>Base de datos</div></td></tr><tr><td><div>False</div></td></tr><tr><td><div>/sigulab2/appadmin/index</div></td></tr></table></div></td></tr><tr><td><div><table><tr><td><div>Errores</div></td></tr><tr><td><div>False</div></td></tr><tr><td><div>/admin/default/errors/sigulab2</div></td></tr></table></div></td></tr><tr><td><div><table><tr><td><div>Acerca de</div></td></tr><tr><td><div>False</div></td></tr><tr><td><div>/admin/default/about/sigulab2</div></td></tr></table></div></td></tr></table></div></td></tr></table></div></td></tr><tr><td><div><table><tr><td><div>web2py.com</div></td></tr><tr><td><div>False</div></td></tr><tr><td><div>#</div></td></tr><tr><td><div><table><tr><td><div><table><tr><td><div>Descargas</div></td></tr><tr><td><div>False</div></td></tr><tr><td><div>http://www.web2py.com/examples/default/download</div></td></tr></table></div></td></tr><tr><td><div><table><tr><td><div>Soporte</div></td></tr><tr><td><div>False</div></td></tr><tr><td><div>http://www.web2py.com/examples/default/support</div></td></tr></table></div></td></tr><tr><td><div><table><tr><td><div>Demostraci\xc3\xb3n</div></td></tr><tr><td><div>False</div></td></tr><tr><td><div>http://web2py.com/demo_admin</div></td></tr></table></div></td></tr><tr><td><div><table><tr><td><div>Ejemplos R\xc3\xa1pidos</div></td></tr><tr><td><div>False</div></td></tr><tr><td><div>http://web2py.com/examples/default/examples</div></td></tr></table></div></td></tr><tr><td><div><table><tr><td><div>Preguntas frecuentes</div></td></tr><tr><td><div>False</div></td></tr><tr><td><div>http://web2py.com/AlterEgo</div></td></tr></table></div></td></tr><tr><td><div><table><tr><td><div>V\xc3\xaddeos</div></td></tr><tr><td><div>False</div></td></tr><tr><td><div>http://www.web2py.com/examples/default/videos/</div></td></tr></table></div></td></tr><tr><td><div><table><tr><td><div>Aplicaciones Libres</div></td></tr><tr><td><div>False</div></td></tr><tr><td><div>http://web2py.com/appliances</div></td></tr></table></div></td></tr><tr><td><div><table><tr><td><div>Plugins</div></td></tr><tr><td><div>False</div></td></tr><tr><td><div>http://web2py.com/plugins</div></td></tr></table></div></td></tr><tr><td><div><table><tr><td><div>Recetas</div></td></tr><tr><td><div>False</div></td></tr><tr><td><div>http://web2pyslices.com/</div></td></tr></table></div></td></tr></table></div></td></tr></table></div></td></tr><tr><td><div><table><tr><td><div>Documentaci\xc3\xb3n</div></td></tr><tr><td><div>False</div></td></tr><tr><td><div>#</div></td></tr><tr><td><div><table><tr><td><div><table><tr><td><div>Libro Online</div></td></tr><tr><td><div>False</div></td></tr><tr><td><div>http://www.web2py.com/book</div></td></tr></table></div></td></tr><tr><td><div><li class="divider"></li></div></td></tr><tr><td><div><table><tr><td><div>Prefacio</div></td></tr><tr><td><div>False</div></td></tr><tr><td><div>http://www.web2py.com/book/default/chapter/00</div></td></tr></table></div></td></tr><tr><td><div><table><tr><td><div>Introducci\xc3\xb3n</div></td></tr><tr><td><div>False</div></td></tr><tr><td><div>http://www.web2py.com/book/default/chapter/01</div></td></tr></table></div></td></tr><tr><td><div><table><tr><td><div>Python</div></td></tr><tr><td><div>False</div></td></tr><tr><td><div>http://www.web2py.com/book/default/chapter/02</div></td></tr></table></div></td></tr><tr><td><div><table><tr><td><div>Resumen</div></td></tr><tr><td><div>False</div></td></tr><tr><td><div>http://www.web2py.com/book/default/chapter/03</div></td></tr></table></div></td></tr><tr><td><div><table><tr><td><div>El N\xc3\xbacleo</div></td></tr><tr><td><div>False</div></td></tr><tr><td><div>http://www.web2py.com/book/default/chapter/04</div></td></tr></table></div></td></tr><tr><td><div><table><tr><td><div>Las Vistas</div></td></tr><tr><td><div>False</div></td></tr><tr><td><div>http://www.web2py.com/book/default/chapter/05</div></td></tr></table></div></td></tr><tr><td><div><table><tr><td><div>Base de datos</div></td></tr><tr><td><div>False</div></td></tr><tr><td><div>http://www.web2py.com/book/default/chapter/06</div></td></tr></table></div></td></tr><tr><td><div><table><tr><td><div>Formularios y validadores</div></td></tr><tr><td><div>False</div></td></tr><tr><td><div>http://www.web2py.com/book/default/chapter/07</div></td></tr></table></div></td></tr><tr><td><div><table><tr><td><div>Correo electr\xc3\xb3nico y SMS</div></td></tr><tr><td><div>False</div></td></tr><tr><td><div>http://www.web2py.com/book/default/chapter/08</div></td></tr></table></div></td></tr><tr><td><div><table><tr><td><div>Control de Acceso</div></td></tr><tr><td><div>False</div></td></tr><tr><td><div>http://www.web2py.com/book/default/chapter/09</div></td></tr></table></div></td></tr><tr><td><div><table><tr><td><div>Servicios</div></td></tr><tr><td><div>False</div></td></tr><tr><td><div>http://www.web2py.com/book/default/chapter/10</div></td></tr></table></div></td></tr><tr><td><div><table><tr><td><div>Recetas AJAX</div></td></tr><tr><td><div>False</div></td></tr><tr><td><div>http://www.web2py.com/book/default/chapter/11</div></td></tr></table></div></td></tr><tr><td><div><table><tr><td><div>Componentes y Plugins</div></td></tr><tr><td><div>False</div></td></tr><tr><td><div>http://www.web2py.com/book/default/chapter/12</div></td></tr></table></div></td></tr><tr><td><div><table><tr><td><div>Recetas de despliegue</div></td></tr><tr><td><div>False</div></td></tr><tr><td><div>http://www.web2py.com/book/default/chapter/13</div></td></tr></table></div></td></tr><tr><td><div><table><tr><td><div>Otras Recetas</div></td></tr><tr><td><div>False</div></td></tr><tr><td><div>http://www.web2py.com/book/default/chapter/14</div></td></tr></table></div></td></tr><tr><td><div><table><tr><td><div>Ayudando a web2py</div></td></tr><tr><td><div>False</div></td></tr><tr><td><div>http://www.web2py.com/book/default/chapter/15</div></td></tr></table></div></td></tr><tr><td><div><table><tr><td><div>Compra el libro de web2py</div></td></tr><tr><td><div>False</div></td></tr><tr><td><div>http://stores.lulu.com/web2py</div></td></tr></table></div></td></tr></table></div></td></tr></table></div></td></tr><tr><td><div><table><tr><td><div>Comunidad</div></td></tr><tr><td><div>False</div></td></tr><tr><td><div>None</div></td></tr><tr><td><div><table><tr><td><div><table><tr><td><div>Grupos</div></td></tr><tr><td><div>False</div></td></tr><tr><td><div>http://www.web2py.com/examples/default/usergroups</div></td></tr></table></div></td></tr><tr><td><div><table><tr><td><div>Twitter</div></td></tr><tr><td><div>False</div></td></tr><tr><td><div>http://twitter.com/web2py</div></td></tr></table></div></td></tr><tr><td><div><table><tr><td><div>Chat en vivo</div></td></tr><tr><td><div>False</div></td></tr><tr><td><div>http://webchat.freenode.net/?channels=web2py</div></td></tr></table></div></td></tr></table></div></td></tr></table></div></td></tr></table></div></td></tr><tr><td style="font-weight:bold;vertical-align:top;">meta</td><td style="vertical-align:top;">:</td><td><div><table><tr><td style="font-weight:bold;vertical-align:top;">author</td><td style="vertical-align:top;">:</td><td><div>Octopus Technologies &lt;13-10191@usb.ve:</div></td></tr><tr><td style="font-weight:bold;vertical-align:top;">description</td><td style="vertical-align:top;">:</td><td><div>Sistema de Gestion de la Unidad de Laboratorios</div></td></tr><tr><td style="font-weight:bold;vertical-align:top;">generator</td><td style="vertical-align:top;">:</td><td><div>Web2py Web Framework</div></td></tr><tr><td style="font-weight:bold;vertical-align:top;">keywords</td><td style="vertical-align:top;">:</td><td><div>sigulab</div></td></tr></table></div></td></tr><tr><td style="font-weight:bold;vertical-align:top;">models_to_run</td><td style="vertical-align:top;">:</td><td><div><table><tr><td><div>^\\w+\\.py$</div></td></tr><tr><td><div>^inventarios/\\w+\\.py$</div></td></tr><tr><td><div>^inventarios/detalles/\\w+\\.py$</div></td></tr></table></div></td></tr><tr><td style="font-weight:bold;vertical-align:top;">postprocessing</td><td style="vertical-align:top;">:</td><td><div><table></table></div></td></tr><tr><td style="font-weight:bold;vertical-align:top;">session_client</td><td style="vertical-align:top;">:</td><td><div>127.0.0.1</div></td></tr><tr><td style="font-weight:bold;vertical-align:top;">session_cookie_compression_level</td><td style="vertical-align:top;">:</td><td><div>None</div></td></tr><tr><td style="font-weight:bold;vertical-align:top;">session_cookie_expires</td><td style="vertical-align:top;">:</td><td><div>None</div></td></tr><tr><td style="font-weight:bold;vertical-align:top;">session_data_name</td><td style="vertical-align:top;">:</td><td><div>session_data_sigulab2</div></td></tr><tr><td style="font-weight:bold;vertical-align:top;">session_file</td><td style="vertical-align:top;">:</td><td><div>&lt;open file &#x27;/home/sandra/Documents/web2py/applications/sigulab2/sessions/0de/0ca/127.0.0.1-f3bbb783-0910-4913-aa62-37861a91a6a9&#x27;, mode &#x27;rb+&#x27; at 0xae1cca70&gt;</div></td></tr><tr><td style="font-weight:bold;vertical-align:top;">session_filename</td><td style="vertical-align:top;">:</td><td><div>/home/sandra/Documents/web2py/applications/sigulab2/sessions/127.0.0.1-f3bbb783-0910-4913-aa62-37861a91a6a9</div></td></tr><tr><td style="font-weight:bold;vertical-align:top;">session_hash</td><td style="vertical-align:top;">:</td><td><div>ca92df277eaa289cdfab961f5ab39ca3</div></td></tr><tr><td style="font-weight:bold;vertical-align:top;">session_id</td><td style="vertical-align:top;">:</td><td><div>127.0.0.1-f3bbb783-0910-4913-aa62-37861a91a6a9</div></td></tr><tr><td style="font-weight:bold;vertical-align:top;">session_id_name</td><td style="vertical-align:top;">:</td><td><div>session_id_sigulab2</div></td></tr><tr><td style="font-weight:bold;vertical-align:top;">session_locked</td><td style="vertical-align:top;">:</td><td><div>True</div></td></tr><tr><td style="font-weight:bold;vertical-align:top;">session_masterapp</td><td style="vertical-align:top;">:</td><td><div>sigulab2</div></td></tr><tr><td style="font-weight:bold;vertical-align:top;">session_new</td><td style="vertical-align:top;">:</td><td><div>False</div></td></tr><tr><td style="font-weight:bold;vertical-align:top;">session_storage_type</td><td style="vertical-align:top;">:</td><td><div>file</div></td></tr><tr><td style="font-weight:bold;vertical-align:top;">status</td><td style="vertical-align:top;">:</td><td><div>200</div></td></tr><tr><td style="font-weight:bold;vertical-align:top;">subtitle</td><td style="vertical-align:top;">:</td><td><div></div></td></tr><tr><td style="font-weight:bold;vertical-align:top;">title</td><td style="vertical-align:top;">:</td><td><div>Sigulab2</div></td></tr><tr><td style="font-weight:bold;vertical-align:top;">view</td><td style="vertical-align:top;">:</td><td><div>inventarios/detalles.html</div></td></tr></table></div>'
tRp126
sS'locals'
p127
(dp128
S'Service'
p129
S"<class 'gluon.tools.Service'>"
p130
sS'PY2'
p131
S'True'
p132
sS'OBJECT'
p133
S"<class 'gluon.html.OBJECT'>"
p134
sS'track_changes'
p135
S'<function track_changes>'
p136
sS'SQLDB'
p137
S"<class 'pydal.base.DAL'>"
p138
sS'MARKMIN'
p139
S"<class 'gluon.html.MARKMIN'>"
p140
sg119
S"<Storage {'flash': '', 'auth': <Storage {'hmac_k...gin]': ['67d08be1-6391-409b-94df-ca743caa5139']}>"
p141
sS'LINK'
p142
S"<class 'gluon.html.LINK'>"
p143
sS'BR'
p144
S"<class 'gluon.html.BR'>"
p145
sS'local_import'
p146
S'<function <lambda>>'
p147
sS'OPTGROUP'
p148
S"<class 'gluon.html.OPTGROUP'>"
p149
sS'__package__'
p150
S'None'
p151
sS'PRE'
p152
S"<class 'gluon.html.PRE'>"
p153
sS'IS_INT_IN_RANGE'
p154
S"<class 'gluon.validators.IS_INT_IN_RANGE'>"
p155
sS'to_bytes'
p156
S'<function to_bytes>'
p157
sS'IS_LOWER'
p158
S"<class 'gluon.validators.IS_LOWER'>"
p159
sS'IS_STRONG'
p160
S"<class 'gluon.validators.IS_STRONG'>"
p161
sS'cache'
p162
S'<gluon.cache.Cache object>'
p163
sS'IS_IN_DB'
p164
S"<class 'gluon.validators.IS_IN_DB'>"
p165
sS'TAG'
p166
S'<gluon.html.__TAG__ object>'
p167
sS'SQLField'
p168
S"<class 'pydal.objects.Field'>"
p169
sS'mail'
p170
S'<gluon.tools.Mail object>'
p171
sS'uso_list'
p172
S"['Docencia', 'Investigaci\\xc3\\xb3n', 'Extensi\\xc3\\xb3n', 'Apoyo administrativo']"
p173
sS'BODY'
p174
S"<class 'gluon.html.BODY'>"
p175
sS'IS_DATE_IN_RANGE'
p176
S"<class 'gluon.validators.IS_DATE_IN_RANGE'>"
p177
sS'IFRAME'
p178
S"<class 'gluon.html.IFRAME'>"
p179
sS'URL'
p180
S'<function URL>'
p181
sS'__file__'
p182
S"'/home/sandra/Documents/web2py/applications/sigulab2/views/inventarios/detalles.html'"
p183
sS'db'
p184
S'<DAL uri="postgres:******@localhost:5432/sigulab2">'
p185
sS'auth'
p186
S'<gluon.tools.Auth object>'
p187
sS'P'
S"<class 'gluon.html.P'>"
p188
sS'TFOOT'
p189
S"<class 'gluon.html.TFOOT'>"
p190
sS'iteritems'
p191
S'<function <lambda>>'
p192
sS'XHTML'
p193
S"<class 'gluon.html.XHTML'>"
p194
sS'caracteristicas_dict'
p195
S'{\'Color:\': \'Blanco\', \'Descripci\\xc3\\xb3n:\': \'a\', \'Material predominante:\': \'Acr\\xc3\\xadlico\', \'Movilidad:\': \'Port\\xc3\\xa1til\', \'Uso:\': "[\'Docencia\', \'Apoyo administrativo\']"}'
p196
sS'ON'
p197
g132
sS'OL'
p198
S"<class 'gluon.html.OL'>"
p199
sS'TEXTAREA'
p200
S"<class 'gluon.html.TEXTAREA'>"
p201
sS'MENU'
p202
S"<class 'gluon.html.MENU'>"
p203
sS'IS_IMAGE'
p204
S"<class 'gluon.validators.IS_IMAGE'>"
p205
sS'EM'
p206
S"<class 'gluon.html.EM'>"
p207
sS'CODE'
p208
S"<class 'gluon.html.CODE'>"
p209
sS'HTTP'
p210
S"<class 'gluon.http.HTTP'>"
p211
sS'HR'
p212
S"<class 'gluon.html.HR'>"
p213
sS'IS_DATETIME'
p214
S"<class 'gluon.validators.IS_DATETIME'>"
p215
sS'reduce'
p216
S'<built-in function reduce>'
p217
sS'STYLE'
p218
S"<class 'gluon.html.STYLE'>"
p219
sS'LABEL'
p220
S"<class 'gluon.html.LABEL'>"
p221
sS'CLEANUP'
p222
S"<class 'gluon.validators.CLEANUP'>"
p223
sS'plugins'
p224
S'<gluon.tools.PluginManager object>'
p225
sS'SELECT'
p226
S"<class 'gluon.html.SELECT'>"
p227
sS'CENTER'
p228
S"<class 'gluon.html.CENTER'>"
p229
sS'localizacion'
p230
S"['Edo Miranda, Municipio Baruta, Parroquia Baruta', 'Edo Vargas, Municipio Vargas, Parroquia Macuto']"
p231
sS'Auth'
p232
S"<class 'gluon.tools.Auth'>"
p233
sS'DEVELOPMENT_MENU'
p234
g132
sS'current'
p235
S'<thread._local object>'
p236
sS'__builtins__'
p237
S"{'ArithmeticError': <type 'exceptions.ArithmeticError'>, 'AssertionError': <type 'exceptions.AssertionError'>, 'AttributeError': <type 'exceptions.AttributeError'>, 'BaseException': <type 'exceptions.BaseException'>, 'BufferError': <type 'exceptions.BufferError'>, 'BytesWarning': <type 'exceptions.BytesWarning'>, 'DeprecationWarning': <type 'exceptions.DeprecationWarning'>, 'EOFError': <type 'exceptions.EOFError'>, 'Ellipsis': Ellipsis, 'EnvironmentError': <type 'exceptions.EnvironmentError'>, ...}"
p238
sS'bien'
p239
S"<Row {'bm_espacio_fisico': 1L, 'bm_unidad_de_ads...: '', 'bm_estatus': 'Operativo', 'bm_placa': ''}>"
p240
sS'HTML'
p241
S"<class 'gluon.html.HTML'>"
p242
sS'SQLFORM'
p243
S"<class 'gluon.sqlhtml.SQLFORM'>"
p244
sS'LOAD'
p245
S'<function LOAD>'
p246
sS'redirect'
p247
S'<function redirect>'
p248
sS'FIELDSET'
p249
S"<class 'gluon.html.FIELDSET'>"
p250
sS'IS_EQUAL_TO'
p251
S"<class 'gluon.validators.IS_EQUAL_TO'>"
p252
sS'embed64'
p253
S'<function embed64>'
p254
sS'IS_LIST_OF'
p255
S"<class 'gluon.validators.IS_LIST_OF'>"
p256
sS'__name__'
p257
S"'__restricted__'"
p258
sS'EMBED'
p259
S"<class 'gluon.html.EMBED'>"
p260
sS'_'
S'<function _>'
p261
sS'myconf'
p262
S"{'forms': {'formstyle': 'bootstrap3_inline', 'se...': {'names': 'localhost:*, 127.0.0.1:*, *:*, *'}}"
p263
sS'H2'
p264
S"<class 'gluon.html.H2'>"
p265
sS'H3'
p266
S"<class 'gluon.html.H3'>"
p267
sS'AppConfig'
p268
S'<function AppConfig>'
p269
sS'H1'
p270
S"<class 'gluon.html.H1'>"
p271
sS'H6'
p272
S"<class 'gluon.html.H6'>"
p273
sS'H4'
p274
S"<class 'gluon.html.H4'>"
p275
sS'H5'
p276
S"<class 'gluon.html.H5'>"
p277
sS'UL'
p278
S"<class 'gluon.html.UL'>"
p279
sS'IS_UPPER'
p280
S"<class 'gluon.validators.IS_UPPER'>"
p281
sS'xmlescape'
p282
S'<function xmlescape>'
p283
sS'IS_TIME'
p284
S"<class 'gluon.validators.IS_TIME'>"
p285
sS'localizacion_list'
p286
S"['Localizaci\\xc3\\xb3n:', 'C\\xc3\\xb3digo Localizaci\\xc3\\xb3n:', 'Categor\\xc3\\xada:', 'Subcategor\\xc3\\xada:']"
p287
sS'OPTION'
p288
S"<class 'gluon.html.OPTION'>"
p289
sS'META'
p290
S"<class 'gluon.html.META'>"
p291
sS'TITLE'
p292
S"<class 'gluon.html.TITLE'>"
p293
sS'caracteristicas_list'
p294
S"['Descripci\\xc3\\xb3n:', 'Material predominante:', 'Color:', 'Movilidad:', 'Uso:']"
p295
sS'CRYPT'
p296
S"<class 'gluon.validators.CRYPT'>"
p297
sS'IS_EMPTY_OR'
p298
S"<class 'gluon.validators.IS_EMPTY_OR'>"
p299
sS'movilidad_list'
p300
S"['Fijo', 'Port\\xc3\\xa1til']"
p301
sS'INPUT'
p302
S"<class 'gluon.html.INPUT'>"
p303
sS'STRONG'
p304
S"<class 'gluon.html.STRONG'>"
p305
sS'COL'
p306
S"<class 'gluon.html.COL'>"
p307
sS'service'
p308
S'<gluon.tools.Service object>'
p309
sS'SCRIPT'
p310
S"<class 'gluon.html.SCRIPT'>"
p311
sS'TABLE'
p312
S"<class 'gluon.html.TABLE'>"
p313
sS'IS_IPV4'
p314
S"<class 'gluon.validators.IS_IPV4'>"
p315
sS'IS_LENGTH'
p316
S"<class 'gluon.validators.IS_LENGTH'>"
p317
sS'IS_IPV6'
p318
S"<class 'gluon.validators.IS_IPV6'>"
p319
sS'XML'
p320
S"<class 'gluon.html.XML'>"
p321
sS'B'
S"<class 'gluon.html.B'>"
p322
sS'IMG'
p323
S"<class 'gluon.html.IMG'>"
p324
sS'SQLTABLE'
p325
S"<class 'gluon.sqlhtml.SQLTABLE'>"
p326
sS'IS_MATCH'
p327
S"<class 'gluon.validators.IS_MATCH'>"
p328
sS'localizacion_dict'
p329
S"{'Categor\\xc3\\xada:': 'Equipo Oficina', 'C\\xc3\\xb3digo Localizaci\\xc3\\xb3n:': '150301', 'Localizaci\\xc3\\xb3n:': 'Edo Miranda, Municipio Baruta, Parroquia Baruta', 'Subcategor\\xc3\\xada:': 'Mobiliario y equipos de oficina'}"
p330
sS'IS_ALPHANUMERIC'
p331
S"<class 'gluon.validators.IS_ALPHANUMERIC'>"
p332
sS'SPAN'
p333
S"<class 'gluon.html.SPAN'>"
p334
sS'IS_JSON'
p335
S"<class 'gluon.validators.IS_JSON'>"
p336
sS'IS_IPADDRESS'
p337
S"<class 'gluon.validators.IS_IPADDRESS'>"
p338
sS'unidad_med'
p339
S"['cm', 'm']"
p340
sS'IS_SLUG'
p341
S"<class 'gluon.validators.IS_SLUG'>"
p342
sS'BEAUTIFY'
p343
S"<class 'gluon.html.BEAUTIFY'>"
p344
sS'nombre_cat'
p345
S"['Maquinaria Construcci\\xc3\\xb3n', 'Equipo Transporte', 'Equipo Comunicaciones', 'Equipo M\\xc3\\xa9dico', 'Equipo Cient\\xc3\\xadfico Religioso', 'Equipo Oficina']"
p346
sS'BUTTON'
p347
S"<class 'gluon.html.BUTTON'>"
p348
sS'IS_DATE'
p349
S"<class 'gluon.validators.IS_DATE'>"
p350
sS'IS_EMAIL'
p351
S"<class 'gluon.validators.IS_EMAIL'>"
p352
sS'IS_NOT_EMPTY'
p353
S"<class 'gluon.validators.IS_NOT_EMPTY'>"
p354
sS'xrange'
p355
S"<type 'xrange'>"
p356
sS'TBODY'
p357
S"<class 'gluon.html.TBODY'>"
p358
sS'CAT'
p359
S"<class 'gluon.html.CAT'>"
p360
sS'Field'
p361
S"<class 'pydal.objects.Field'>"
p362
sS'IS_LIST_OF_EMAILS'
p363
S"<class 'gluon.validators.IS_LIST_OF_EMAILS'>"
p364
sg58
S"<Storage {'_vars': <Storage {'bm': '123456'}>, '...sandra/Documents/web2py/applications/sigulab2/'}>"
p365
sS'DIV'
p366
S"<class 'gluon.html.DIV'>"
p367
sS'LEGEND'
p368
S"<class 'gluon.html.LEGEND'>"
p369
sS'to_native'
p370
S'<function to_native>'
p371
sS'COLGROUP'
p372
S"<class 'gluon.html.COLGROUP'>"
p373
sS'DAL'
p374
S"<class 'pydal.base.DAL'>"
p375
sS'ASSIGNJS'
p376
S'<function ASSIGNJS>'
p377
sS'TR'
p378
S"<class 'gluon.html.TR'>"
p379
sS'LI'
p380
S"<class 'gluon.html.LI'>"
p381
sS'material_pred'
p382
S"['Acero', 'Acr\\xc3\\xadlico', 'Madera', 'Metal', 'Pl\\xc3\\xa1stico', 'Tela', 'Vidrio', 'Otro']"
p383
sS'TH'
p384
S"<class 'gluon.html.TH'>"
p385
sS'TD'
p386
S"<class 'gluon.html.TD'>"
p387
sS'PluginManager'
p388
S"<class 'gluon.tools.PluginManager'>"
p389
sS'IS_URL'
p390
S"<class 'gluon.validators.IS_URL'>"
p391
sS'A'
S"<class 'gluon.html.A'>"
p392
sS'HEAD'
p393
S"<class 'gluon.html.HEAD'>"
p394
sS'IS_DATETIME_IN_RANGE'
p395
S"<class 'gluon.validators.IS_DATETIME_IN_RANGE'>"
p396
sS'FORM'
p397
S"<class 'gluon.html.FORM'>"
p398
sS'I'
S"<class 'gluon.html.I'>"
p399
sS'IS_NOT_IN_DB'
p400
S"<class 'gluon.validators.IS_NOT_IN_DB'>"
p401
sg125
S"<Storage {'body': <cStringIO.StringO object at 0...xaeb1b6f4>, 'view': 'inventarios/detalles.html'}>"
p402
sS'THEAD'
p403
S"<class 'gluon.html.THEAD'>"
p404
sS'ANY_OF'
p405
S"<class 'gluon.validators.ANY_OF'>"
p406
sS'IS_NULL_OR'
p407
S"<class 'gluon.validators.IS_EMPTY_OR'>"
p408
sS'cod_localizacion'
p409
S"['150301', '240107']"
p410
sS'color_list'
p411
S"['Amarillo', 'Azul', 'Beige', 'Blanco', 'Dorado', 'Gris', 'Madera', 'Marr\\xc3\\xb3n', 'Mostaza', 'Naranja', 'Negro', 'Plateado', 'Rojo', 'Rosado', 'Verde', 'Vinotinto', 'Otro color']"
p412
sS'IS_FLOAT_IN_RANGE'
p413
S"<class 'gluon.validators.IS_FLOAT_IN_RANGE'>"
p414
sS'IS_EXPR'
p415
S"<class 'gluon.validators.IS_EXPR'>"
p416
sS'T'
S'<gluon.languages.translator object>'
p417
sS'IS_IN_SET'
p418
S"<class 'gluon.validators.IS_IN_SET'>"
p419
sS'IS_UPLOAD_FILENAME'
p420
S"<class 'gluon.validators.IS_UPLOAD_FILENAME'>"
p421
sS'title'
p422
S"'Uso:'"
p423
sS'TT'
p424
S"<class 'gluon.html.TT'>"
p425
sS'IS_DECIMAL_IN_RANGE'
p426
S"<class 'gluon.validators.IS_DECIMAL_IN_RANGE'>"
p427
sssS'traceback'
p428
S'Traceback (most recent call last):\n  File "/home/sandra/Documents/web2py/gluon/restricted.py", line 219, in restricted\n    exec(ccode, environment)\n  File "/home/sandra/Documents/web2py/applications/sigulab2/views/inventarios/detalles.html", line 164, in <module>\n    </div>\nNameError: name \'sudebid_list\' is not defined\n'
p429
s.