(dp1
S'output'
p2
S'missing "pass" in view'
p3
sS'layer'
p4
S'ParserContainer'
p5
sS'code'
p6
S'response.write(\'<!DOCTYPE html>\\n<html lang="es">\\n<head>\\n  <title>SIGULAB</title>    \\n  \\n  <!-- http://dev.w3.org/html5/markup/meta.name.html -->\\n  <meta name="application-name" content="SIGULAB">\\n\\n  <meta charset="utf-8">\\n  <meta name="viewport" content="width=device-width, initial-scale=1.0">\\n\\n  <!-- www.phpied.com/conditional-comments-block-downloads/ -->\\n  <!-- Always force latest IE rendering engine\\n       (even in intranet) & Chrome Frame\\n       Remove this if you use the .htaccess -->\\n  <meta http-equiv="X-UA-Compatible" content="IE=edge">\\n\\n  <!-- Avoid search sites from indexing this website -->\\n  <meta name="robots" content="noindex" />\\n\\n  <link rel="icon" type="image/png" sizes="16x16" href="\', escape=False)\nresponse.write(URL(\'static\', \'favicon.ico\'))\nresponse.write(\'">\\n    \\n\\n  <link rel="stylesheet" href="\', escape=False)\nresponse.write(URL(\'static\', \'css/bootstrap.min.css\'))\nresponse.write(\'">\\n  <link rel="stylesheet" href="\', escape=False)\nresponse.write(URL(\'static\',\'css/servicios.css\'))\nresponse.write(\'">\\n  <link rel="stylesheet" href="\', escape=False)\nresponse.write(URL(\'static\',\'font-awesome-4.7.0/css/font-awesome.min.css\'))\nresponse.write(\'">\\n  \\n  <script src="\', escape=False)\nresponse.write(URL(\'static\',\'js/jquery.min.js\'))\nresponse.write(\'"></script>\\n  <script src="\', escape=False)\nresponse.write(URL(\'static\',\'js/bootstrap.min.js\'))\nresponse.write(\'"></script>\\n\\n  <!--[if lt IE 9]>\\n  <script src="https://oss.maxcdn.com/libs/html5shiv/3.7.0/html5shiv.js"></script>\\n  <script src="https://oss.maxcdn.com/libs/respond.js/1.4.2/respond.min.js"></script>\\n  <![endif]-->\\n  \\n  \', escape=False)\nresponse.write(\'\\n  <link rel="stylesheet" href="https://cdn.linearicons.com/free/1.0.0/icon-font.min.css">\\n  <meta name="viewport" content="width=device-width, initial-scale=1">\\n  <link rel="stylesheet" href="https://cdnjs.cloudflare.com/ajax/libs/meyer-reset/2.0/reset.min.css">\\n  <link rel="stylesheet" href="\', escape=False)\nresponse.write(URL(\'static\', \'css/agregarDoc.css\'))\nresponse.write(\'">\\n  <link rel=\\\'stylesheet prefetch\\\' href=\\\'https://fonts.googleapis.com/css?family=Poppins:300,400,700\\\'>\\n  <style type="text/css">\\n    \\n    .wrapper {\\n      max-width: 80%;\\n      margin: auto;\\n      margin-top: 10px;\\n    }\\n\\n    .tab-wrapper2 {\\n      text-align: center;\\n      display: block;\\n      margin: auto;\\n      max-width: 1200px;\\n    }\\n\\n    .tabs {\\n      margin: 0;\\n      padding: 0;\\n      display: flex;\\n      justify-content: center;\\n    }\\n\\n    .tab-link {\\n      margin: 0 1%;\\n      list-style: none;\\n      padding: 10px 40px;\\n      font-size: 25px;\\n      color: #aaa;\\n      cursor: pointer;\\n      font-weight: 700;\\n      transition: all ease 0.5s;\\n      border-bottom: solid 3px rgba(255, 255, 255, 0);\\n      letter-spacing: 1px;\\n    }\\n\\n    .tab-link:hover {\\n      color: #999;\\n      border-color: #999;\\n    }\\n\\n    .tab-link.active {\\n      color: #333;\\n      border-color: #333;\\n    }\\n\\n    .tab-link:nth-of-type(1).active {\\n      color: #60e8f2;\\n      border-color: #60e8f2;\\n    }\\n\\n    .tab-link:nth-of-type(2).active {\\n      color: #60e8f2;\\n      border-color: #60e8f2;\\n    }\\n\\n    .tab-link:nth-of-type(3).active {\\n      color: #60e8f2;\\n      border-color: #60e8f2;\\n    }\\n\\n    .content-wrapper {\\n      margin-top: 30px;\\n      padding: 40px 80px;\\n    }\\n\\n    .tab-content {\\n      display: none;\\n      text-align: left;\\n      color: #888;\\n      font-weight: 300;\\n      font-size: 15px;\\n      opacity: 0;\\n      transform: translateY(15px);\\n      animation: fadeIn 0.5s ease 1 forwards;\\n    }\\n\\n    .tab-content.active {\\n      display: block;\\n    }\\n\\n    @keyframes fadeIn {\\n      100% {\\n        opacity: 1;\\n        transform: none;\\n      }\\n    }\\n\\n  </style>\\n\\n\', escape=False)\nresponse.write(\' \\n</head>\\n<body>\\n\\n<!-- Barra de navegaci\\xc3\\xb3n principal -->\\n<div class="container" id="logo">\\n<a class="navbar-brand" href="\', escape=False)\nresponse.write(URL(\'..\', \'sigulab2\'))\nresponse.write(\'"><div class="logotext">SIGULAB</div></a>\\n</div>\\n<nav class="navbar navbar-inverse navbar-fixed-top">\\n  <div class="container-fluid">\\n      <div class="navbar-header">\\n        <button type="button" class="navbar-toggle" data-toggle="collapse" data-target="#myNavbar">\\n          <span class="icon-bar"></span>\\n          <span class="icon-bar"></span>\\n          <span class="icon-bar"></span> \\n          </button>\\n          <a class="navbar-brand" id="hide" href="#"><div class="logotext">SIGULAB</div></a>\\n      </div>\\n      <div class="collapse navbar-collapse" id="myNavbar">\\n\\n        <ul class="nav navbar-nav">\\n            \\n            <li class="dropdown active-item" id="inicio">\\n              <a class="dropdown-toggle" href="\', escape=False)\nresponse.write(URL(\'..\', \'sigulab2\'))\nresponse.write(\'">INICIO</a>\\n            </li>\\n\\n            <li class="dropdown active-item" id="personal">\\n              <a href="#" class="dropdown-toggle" data-toggle="dropdown" role="button" aria-haspopup="true" aria-expanded="false">PERSONAL<span class="caret"></span></a>\\n              <ul class=" dropdown-menu">\\n                <li><a href="\', escape=False)\nresponse.write(URL(\'personal\',\'index\'))\nresponse.write(\'">P\\xc3\\xa1gina Principal</a></li>\\n                <li><a href="\', escape=False)\nresponse.write(URL(\'personal\',\'listado\'))\nresponse.write(\'">Listado General de Personal</a></li>\\n                <li><a href="#">Listado por Categor\\xc3\\xadas de Personal</a></li>\\n                <li><a href="#">Listado por Dependencias de Personal</a></li>\\n                <li><a href="#">Listado por A\\xc3\\xb1os de Servicio de Personal</a></li>\\n              </ul>\\n            </li>\\n            \\n            <li class="dropdown active-item" id="servicios">\\n\\n              <a href="#" class="dropdown-toggle" data-toggle="dropdown" role="button" aria-haspopup="true" aria-expanded="false">SERVICIOS<span class="caret"></span></a>\\n                <ul class=" dropdown-menu">\\n                <li><a href="\', escape=False)\nresponse.write(URL(\'servicios\',\'index\'))\nresponse.write(\'">P\\xc3\\xa1gina Principal</a></li>\\n                <li><a href="\', escape=False)\nresponse.write(URL(\'servicios\',\'listado\'))\nresponse.write(\'">Listado de Servicios</a></li>\\n                <li><a href="\', escape=False)\nresponse.write(URL(\'servicios\',\'solicitudes\'))\nresponse.write(\'">Solicitudes de Servicios</a></li>\\n                <li><a href="\', escape=False)\nresponse.write(URL(\'servicios\',\'certificaciones\'))\nresponse.write(\'">Certificar un servicio</a></li>\\n                <li><a href="\', escape=False)\nresponse.write(URL(\'servicios\',\'historial\'))\nresponse.write(\'">Historial de servicios</a></li>\\n                <li><a href="\', escape=False)\nresponse.write(URL(\'servicios\',\'catalogoServicios\'))\nresponse.write(\'">Cat\\xc3\\xa1logo de Servicios</a></li>\\n              </ul>\\n            </li>\\n\\n            <li class="dropdown active-item" id="smydp">\\n              <a href="#" class="dropdown-toggle" data-toggle="dropdown" role="button" aria-haspopup="true" aria-expanded="false">SMyDP<span class="caret"></span></a>\\n                <ul class="dropdown-menu">\\n                <li><a href="\', escape=False)\nresponse.write(URL(\'smydp\', \'index\'))\nresponse.write(\'">P\\xc3\\xa1gina Principal</a></li>\\n                  <li><a href="\', escape=False)\nresponse.write(URL(\'smydp\', \'catalogo\'))\nresponse.write(\'">Listado de Sustancias</a></li>\\n                  <li><a href="\', escape=False)\nresponse.write(URL(\'smydp\', \'inventarios\'))\nresponse.write(\'">Inventario</a></li>\\n                 </ul>\\n            </li> \\n            <li class="dropdown active-item" id="smydp">\\n              <a href="#" class="dropdown-toggle" data-toggle="dropdown" role="button" aria-haspopup="true" aria-expanded="false">Informaci\\xc3\\xb3n Documentada<span class="caret"></span></a>\\n                <ul class="dropdown-menu">\\n                <li><a href="\', escape=False)\nresponse.write(URL(\'informacion_documentada\', \'index\'))\nresponse.write(\'">P\\xc3\\xa1gina Principal</a></li>\\n                  <li><a href="\', escape=False)\nresponse.write(URL(\'informacion_documentada\', \'lista_documentos\'))\nresponse.write(\'">Listado de Documentos</a></li>\\n                 </ul>\\n            </li> \\n\\n        </ul>\\n\\n      <ul class="nav navbar-nav navbar-right">\\n      \', escape=False)\nif auth.has_membership(\'ADMINISTRADOR PERSONAL\') \\\nor auth.has_membership(\'WEBMASTER\')\\\nor auth.has_membership(\'DIRECTOR\'):\n    response.write(\'\\n        <li class="dropdown">\\n          <div class="dropdown">\\n            <button class="btn btn-primary dropdown-toggle" type="button" data-toggle="dropdown">\\n              <i id="iconoInfo" class="fa fa-cog" aria-hidden="true"></i>\\n            </button>\\n            <ul class="dropdown-menu">\\n              <li><a href="\', escape=False)\n    response.write(URL(\'modulos\',\'register\'))\n    response.write(\'">Registrar Usuario</a></li>\\n              <li><a href="\', escape=False)\n    response.write(URL(\'gestion\',\'usuarios\'))\n    response.write(\'">Usuarios Autorizados</a></li>\\n              <li><a href="\', escape=False)\n    response.write(URL(\'gestion\',\'dependencias\'))\n    response.write(\'">Dependencias</a></li>\\n              <li><a href="\', escape=False)\n    response.write(URL(\'gestion\',\'espacios_fisicos\'))\n    response.write(\'">Espacios F\\xc3\\xadsicos</a></li>\\n            </ul>\\n          </div>\\n        </li>\\n        \', escape=False)\n    pass\nresponse.write(\'\\n\\n        <li class="dropdown">\\n          <div class="dropdown">\\n            <button class="btn btn-primary dropdown-toggle" type="button" data-toggle="dropdown">\\n              <span id="iconoUser" class="glyphicon glyphicon-user dropdown-toggle"></span>\\n            </button>\\n            <ul class="dropdown-menu">\\n              <li>\', escape=False)\nif auth.is_logged_in():\n    response.write(\'<a href="\', escape=False)\n    response.write(URL(\'modulos\', \'editprofile\', args=\'profile\'))\n    response.write(\'">\', escape=False)\n    response.write(auth.user.first_name)\n    response.write(\'  \', escape=False)\n    response.write(auth.user.last_name)\n    response.write(\'</a>\', escape=False)\n    pass\nresponse.write(\'</li>\\n              <li><a href="\', escape=False)\nresponse.write(URL(\'modulos\',\'logout\'))\nresponse.write(\'">Salir</a></li>\\n            </ul>\\n          </div>\\n        </li>\\n      </ul> \\n     </div>\\n  </div>\\n</nav>\\n<!-- Fin de la barra de navegaci\\xc3\\xb3n principal -->\\n\\n<div class="fondoblanco"></div> \\n<div class="separador"></div>\\n\\n\', escape=False)\nresponse.write(\'\\n<nav class="navbar navbar-inverse navbar-fixed-top breadcrumbs">\\n  <div class="breadcrumb">\\n  <a class="breadcrumb-item" href="\', escape=False)\nresponse.write(URL(\'..\', \'sigulab2\'))\nresponse.write(\'">Inicio</a>\\n  <a class="breadcrumb-item" href="\', escape=False)\nresponse.write(URL(\'..\', \'sigulab2\',\'informacion_documentada\',\'\'))\nresponse.write(\'">Informaci\\xc3\\xb3n Documentada</a>\\n  <a class="breadcrumb-item" href="\', escape=False)\nresponse.write(URL(\'..\', \'sigulab2\',\'informacion_documentada\',\'\'))\nresponse.write(\'">Listado de Documentos</a>\\n  <span class="breadcrumb-item active">Ficha</span>\\n  </div>\\n</nav>\\n  \', escape=False)\nfor doc in message:\n    response.write(\'\\n\\n\\n\\n<div class="wrapper">\\n    \\n  <div class="tab-wrapper2">\\n    <ul class="tabs">\\n        <li class="tab-link active" data-tab="1">Informaci\\xc3\\xb3n General</li>\\n        <li class="tab-link" data-tab="2">Historial de Revisi\\xc3\\xb3n</li>\\n        <li class="tab-link" data-tab="3">Ubicaci\\xc3\\xb3n</li>\\n    </ul>\\n  </div>\\n\\n  <div class="content-wrapper">\\n    <div id="tab-1" class="tab-content active">\\n\\n      <p><span style="color: #52798c; font-size: 1.2em;">C\\xc3\\xb3digo:  \', escape=False)\n    response.write(doc.codigo)\n    response.write(\'  </span></p>\\n      <p><span style="color: #52798c; font-size: 1.2em;">Tipo:    \', escape=False)\n    response.write(doc.tipo_doc)\n    response.write(\'  </span></p>\\n      <p><span style="color: #52798c; font-size: 1.2em;">Documento: \', escape=False)\n    response.write(doc.nombre_doc)\n    response.write(\'    </span> </p>\\n      <p><span style="color: #52798c; font-size: 1.2em;">Objetivo: \', escape=False)\n    response.write(doc.objetivo)\n    response.write(\'       </span></p>\\n      <p><span style="color: #52798c; font-size: 1.2em;">Estatus:  \', escape=False)\n    response.write(doc.estatus)\n    response.write(\'    </span></p>\\n      <p><span style="color: #52798c; font-size: 1.2em;">Per\\xc3\\xadodo de Revisi\\xc3\\xb3n:  \', escape=False)\n    response.write(doc.periodo_rev)\n    response.write(\'   </span></p>\\n\\n      <div style="margin-top: 50px; float: right;">\\n        <div class="row container-fluid">\\n            <form method="POST">\\n                <button type="button" class="btn btn-primary btn-lg" id="botonModal" style="margin-right: 15px;">Editar</button>\\n                <button type="button" class="btn btn-info btn-lg" style="margin-right: 15px;">Ocultar</button>\\n                <button type="submit" class="btn btn-danger btn-lg" name="eliminar" value="eliminar">Eliminar</button>\\n            </form>\\n        </div>\\n      </div>  \\n    \\n\\n    </div>\\n\\n\\n\\n    <div id="tab-2" class="tab-content">\\n\\n\\n\\n      <table class="container">\\n        <thead>\\n          <tr>\\n            <th>Responsable</th>\\n            <th>Elaborado por</th>\\n            <th>Revisi\\xc3\\xb3n de contenido realizado por</th>\\n            <th>Fecha de revisi\\xc3\\xb3n de contenido</th>\\n            <th>Revisi\\xc3\\xb3n de especificaciones del documento realizado por</th>\\n            <th>Fecha de revisi\\xc3\\xb3n de especificaciones del documento</th>\\n            <th>Revisi\\xc3\\xb3n por el Consejo Asesor</th>\\n            <th>Fecha de revisi\\xc3\\xb3n por el Consejo Asesor</th>\\n\\n          </tr>\\n        </thead>\\n        <tbody>\\n          <tr>\\n\\n            <td>\', escape=False)\n    response.write(doc.responsable)\n    response.write(\'</td>\\n            <td>\', escape=False)\n    response.write(doc.elaborado_actualizado_por)\n    response.write(\'</td>\\n            <td>\', escape=False)\n    response.write(doc.rev_contenido_realizado_por)\n    response.write(\'</td>\\n            <td>\', escape=False)\n    response.write(doc.fecha_rev_contenido)\n    response.write(\'</td>\\n            <td>\', escape=False)\n    response.write(doc.rev_especficaciones_doc_realizado_por)\n    response.write(\'</td>\\n            <td>\', escape=False)\n    response.write(doc.fecha_rev_especificaciones_doc)\n    response.write(\'</td>\\n            <td>\', escape=False)\n    response.write(doc.rev_por_consejo_asesor)\n    response.write(\'</td>\\n            <td>\', escape=False)\n    response.write(doc.fecha_rev_por_consejo_asesor)\n    response.write(\'</td>\\n            \\n          </tr>\\n\\n        </tbody>\\n      </table>\\n\\n\\n\\n    </div>\\n    <div id="tab-3" class="tab-content">\\n    \\n\\n      <p><span style="color: #52798c; font-size: 1.2em;">C\\xc3\\xb3digo de registro de Ubicacion: \', escape=False)\n    response.write(doc.registro)\n    response.write(\'  </span></p>\\n      <p><span style="color: #52798c; font-size: 1.2em;">Fecha de registro de Ubicacion:      </span></p>\\n      <p><span style="color: #52798c; font-size: 1.2em;">Carpeta electr\\xc3\\xb3nica:     </span> </p>\\n      <p><span style="color: #52798c; font-size: 1.2em;">Archivo electr\\xc3\\xb3nico:   \', escape=False)\n    response.write(doc.ubicacion_electronica)\n    response.write(\'  </span></p>\\n      <p><span style="color: #52798c; font-size: 1.2em;">Ubicaci\\xc3\\xb3n f\\xc3\\xadsica del documento: \', escape=False)\n    response.write(doc.ubicacion_fisica)\n    response.write(\'     </span></p>\\n    \\n\\n    </div>\\n  </div>\\n  \\n</div>    \\n\\n\\n\\n\\n\\n\\n\\n\\n\\n\\n\\n\\n\\n\\n\\n\\n\\n\\n\\n\\n\\n\\n\\n\\n\\n\\n\\n\\n\\n<div id="modal" class="modal">\\n\\n  <form id="form-wrapper" class="form-wrapper" name="form" method="POST">\\n\\n      <nav id="progress-bar" class="progress-bar">\\n          <ul class="progress-bar__container">  \\n              <li class="progress-bar__item current"><a href="#" class="link">Informaci\\xc3\\xb3n General</a></li>\\n              <li class="progress-bar__item"><a href="#" class="link">Informaci\\xc3\\xb3n de Elaboraci\\xc3\\xb3n</a></li>\\n              <li class="progress-bar__item"><a href="#" class="link">Informaci\\xc3\\xb3n de Revisi\\xc3\\xb3n</a></li>\\n              <li class="progress-bar__item"><a href="#" class="link">Aprobado </a></li> \\n              <li class="progress-bar__item"><a href="#" class="link">Ubicaci\\xc3\\xb3n del Documento</a></li>\\n\\n          </ul>\\n      </nav>\\n      \\n      <div id="fieldset-container" class="tab-wrapper ">\\n      \', escape=False)\n    if false:\n        response.write(\'\\n          <fieldset class="tab-panel">\\n              <legend>Editar Documento / Informaci\\xc3\\xb3n General</legend>\\n\\n              <input type="hidden" name="indicador" value="agregar">\\n\\n              <div class="input-group focus">\\n                  <input type="text" class="input" name="nombre_documento" id="nombre_documento" value="\', escape=False)\n        response.write(doc.nombre_doc)\n        response.write(\'" required>\\n                  <label class="label" for="nombre_documento"><i class="lnr lnr-user"></i> Nombre del Documento</label>\\n              </div>\\n\\n              <div class="input-group"> \\n                  <select name="tipo" id="tipo" class="input" >\\n                    <option value=""></option>\\n\\n            <option value="Referente Estrategico">Referente Estrat\\xc3\\xa9gico</option>\\n            <option value="Reglamento">Reglameto</option>\\n            <option value="Manual">Manual de Organizaci\\xc3\\xb3n</option>\\n            <option value="Manual">Manual de Calidad</option>\\n            <option value="Manual">Manual de Proceso de Gesti\\xc3\\xb3n</option>\\n            <option value="Manual">Manual de Proceso T\\xc3\\xa9cnico</option>\\n            <option value="Manual">Manual de Uso</option>\\n            <option value="Otro">Manual de Uso</option>\\n\\n          </select>\\n                  <label class="label" for="tipo">Tipo del Documento</label>\\n              </div>\\n\\n              <div class="input-group"> \\n                  <select name="responsable" id="responsable" class="input">\\n                    <option value=""></option>\\n\\n            <option value="DIRECCI\\xc3\\x93N">DIRECCI\\xc3\\x93N</option>\\n            <option value="LABORATORIO A">LABORATORIO A</option>\\n            <option value="LABORATORIO B">LABORATORIO B</option>\\n            <option value="LABORATORIO C">LABORATORIO C</option>\\n            <option value="LABORATORIO D">LABORATORIO D</option>\\n            <option value="LABORATORIO E">LABORATORIO E</option>\\n            <option value="LABORATORIO F">LABORATORIO F</option>\\n            <option value="LABORATORIO G">LABORATORIO H</option>\\n            <option value="UNIDAD DE ADMINISTRACI\\xc3\\x93N">UNIDAD DE ADMINISTRACI\\xc3\\x93N</option>\\n            <option value="COORDINACI\\xc3\\x93N DE ADQUISICIONES">COORDINACI\\xc3\\x93N DE ADQUISICIONES</option>\\n            <option value="COORDINACI\\xc3\\x93N DE IMPORTACIONES">COORDINACI\\xc3\\x93N DE IMPORTACIONES</option>\\n            <option value="COORDINACI\\xc3\\x93N DE LA CALIDAD">COORDINACI\\xc3\\x93N DE LA CALIDAD</option>\\n            <option value="OFICINA DE PROTECCI\\xc3\\x93N RADIOL\\xc3\\x93GICA">OFICINA DE PROTECCI\\xc3\\x93N RADIOL\\xc3\\x93GICA</option>\\n          \\n          </select>\\n                  <label class="label" for="responsable">Responsable</label>\\n              </div>\\n\\n        <!--<div class="input-group">\\n                  <input type="text" class="input" name="responsable" id="responsable"> \\n                  <label class="label" for="responsable"><i class="lnr lnr-users"></i> Responsable </label>\\n              </div>-->\\n        \\n        <div class="input-group focus">\\n                  <input type="date" class="input" name="fecha_prox_rev" id="fecha_prox_rev" value="\', escape=False)\n        response.write(doc.fecha_prox_rev)\n        response.write(\'">\\n                  <label class="label" for="fecha_prox_rev"><i class="lnr lnr-calendar-full"></i> Fecha de entrega para revisi\\xc3\\xb3n</label>\\n              </div>\\n          </fieldset>\\n\\n          <fieldset class="tab-panel">\\n              <legend>Editar Documento / Informaci\\xc3\\xb3n Elaboraci\\xc3\\xb3n</legend>\\n              \\n              <div class="input-group focus" >\\n                  <input type="text" class="input" name="codigo" id="codigo" value="\', escape=False)\n        response.write(doc.codigo)\n        response.write(\'" disabled="true" required> \\n                  <label class="label" for="codigo"><i class="lnr lnr-code"></i> C\\xc3\\xb3digo Documento</label>\\n              </div>\\n              <div class="input-group focus">\\n                  <input type="text" class="input" name="objetivos" id="objetivos" value="\', escape=False)\n        response.write(doc.objetivo)\n        response.write(\'"> \\n                  <label class="label" for="objetivos"><i class="lnr lnr-flag"></i> Objetivos </label>\\n              </div>\\n        <div class="input-group">\\n\\n\\n                  <select name="periodo" id="periodo" class="input">\\n            <option value=""></option>\\n\\n            <option value="Quincenal">Quincenal</option>\\n            <option value="Mensual">Mensual</option>\\n            <option value="Trimestral">Trimestral</option>\\n            <option value="Semestral">Semestral</option>\\n            <option value="Anual">Anual</option>\\n            <option value="Bienal">Bienal</option>\\n            <option value="Trienal">Trienal</option>\\n\\n          </select> \\n\\n\\n                  <label class="label" for="periodo"><i class="lnr lnr-map-marker"></i>Per\\xc3\\xadodo de Revisi\\xc3\\xb3n</label>\\n              </div>\\n              <!--<div class="input-group">\\n\\n                  <input type="number" class="input" name="anexos" id="anexos" min="0" max="30"> \\n\\n                  <label class="label" for="anexos"><i class="lnr lnr-paperclip"></i> Cantidad de Anexos </label>\\n              </div>-->\\n              <div class="input-group focus">\\n                  <input type="text" class="input" name="elaborado" id="elaborado" value="\', escape=False)\n        response.write(doc.elaborado_actualizado_por)\n        response.write(\'"> \\n                  <label class="label" for="elaborado"><i class="lnr lnr-pencil"></i> Elaborado por </label>\\n              </div>\\n         \\n              <div class="input-group"> \\n                  <select name="estatus" id="estatus" class="input">\\n                    <option value=""></option>\\n\\n            <option value="Planificado">En planificaci\\xc3\\xb3n</option>\\n            <option value="Elaborado">En elaboraci\\xc3\\xb3n</option>\\n            <option value="Revisado">En revisi\\xc3\\xb3n</option>\\n            <option value="Aprobado">Aprobado</option>\\n\\n          </select>\\n                  <label class="label" for="estatus">Estatus</label>\\n              </div>\\n\\n              \\n\\n\\n          </fieldset>\\n\\n          <fieldset class="tab-panel">\\n              <legend>Editar Documento / Informaci\\xc3\\xb3n Revisi\\xc3\\xb3n</legend>\\n\\n        <div class="input-group focus">\\n                  <input type="text" class="input" name="revision_contenido" id="revision_contenido" value="\', escape=False)\n        response.write(doc.rev_contenido_realizado_por)\n        response.write(\'">\\n                  <label class="label" for="revision_contenido"><i class="lnr lnr-spell-check"></i>Revisi\\xc3\\xb3n de contenido realizado por:</label>\\n              </div> \\n              <div class="input-group focus">\\n                  <input type="date" class="input" name="fecha_revision_contenidos" id="fecha_revision_contenidos" value="\', escape=False)\n        response.write(doc.fecha_rev_contenido)\n        response.write(\'">\\n                  <label class="label" for="fecha_revision_contenidos"><i class="lnr lnr-calendar-full"></i> Fecha de registro de revisi\\xc3\\xb3n de contenidos</label>\\n              </div> \\n              \\n              <div class="input-group focus">\\n                  <input type="text" class="input" name="revision_especificaciones" id="revision_especificaciones" value="\', escape=False)\n        response.write(doc.rev_especficaciones_doc_realizado_por)\n        response.write(\'">\\n                  <label class="label" for="revision_especificaciones"><i class="lnr lnr-spell-check"></i>Revisi\\xc3\\xb3n de especificaciones del documento realizado por:</label>\\n              </div> \\n\\n              <div class="input-group focus">\\n                  <input type="date" class="input" name="fecha_revision_especificaciones" id="fecha_revision_especificaciones" value="\', escape=False)\n        response.write(doc.fecha_rev_especificaciones_doc)\n        response.write(\'">\\n                  <label class="label" for="fecha_revision_especificaciones"><i class="lnr lnr-calendar-full"></i> Fecha de revisi\\xc3\\xb3n de especificaciones del documento</label>\\n              </div> \\n              <div class="input-group focus">\\n                  <input type="text" class="input" name="revision_consejo" id="revision_consejo" value="\', escape=False)\n        response.write(doc.rev_por_consejo_asesor)\n        response.write(\'">\\n                  <label class="label" for="revision_consejo"><i class="lnr lnr-spell-check" ></i>Revisi\\xc3\\xb3n por el Consejo Asesor</label>\\n              </div> \\n              <div class="input-group focus">\\n                  <input type="date" class="input" name="fecha_revision_consejo" id="fecha_revision_consejo" value="\', escape=False)\n        response.write(doc.fecha_rev_por_consejo_asesor)\n        response.write(\'">\\n                  <label class="label" for="fecha_revision_consejo"><i class="lnr lnr-calendar-full"></i> Fecha de revisi\\xc3\\xb3n por el Consejo Asesor</label>\\n              </div> \\n\\n              <!--<div class="input-group">\\n\\n\\n                  <input type="text" class="input" name="periodocant" id="periodocant">\\n\\n                  <label class="label" for="periodocant"><i class="lnr lnr-map-redo"></i>Per\\xc3\\xadodo de Revisi\\xc3\\xb3n (cantidad)</label>\\n              </div>-->\\n\\n\\n\\n\\n          </fieldset>\\n          \\n          <fieldset class="tab-panel">\\n              <legend>Editar Documento / Aprobado </legend>\\n\\n\\n              <div class="input-group focus">\\n                  <input type="text" class="input" name="aprobado" id="aprobado" value="\', escape=False)\n        response.write(doc.aprobado_por)\n        response.write(\'">\\n                  <label class="label" for="aprobado"><i class="icon-thumbs-up"></i> Aprobado Por:</label>\\n              </div>\\n              <div class="input-group focus">\\n          <input type="date" class="input" name="fechaAprobacion" id="fechaAprobacion" >\\n          <label class="label" for="fechaAprobacion"><i class="lnr lnr-calendar-full"></i>Fecha de Aprobaci\\xc3\\xb3n</label>\\n        </div>  \\n              <div class="input-group focus">\\n\\n                  <input type="text" class="input" name="cod_registro" id="cod_registro" value="cod_aprob">\\n                  <label class="label" for="cod_registro"><i class="lnr lnr-code"></i> C\\xc3\\xb3digo de Registro de Aprobacion</label>\\n              </div>\\n               <div class="input-group focus">\\n                  <input type="text" class="input" name="cod_controlCambios" id="cod_controlCambios" disabled="true">\\n                  <label class="label" for="cod_controlCambios"><i class="lnr lnr-code"></i> Cod Registro de control de cambios</label>\\n              </div>\\n\\n              <div class="input-group focus">\\n                  <input type="date" class="input" disabled="" name="fechaControlCambios" id="fechaControlCambios">\\n                  <label class="label" for="fechaControlCambios"><i class="lnr lnr-calendar-full"></i> Fecha de reg de control de cambios</label>\\n              </div>\\n              \\n\\n\\n\\n\\n          </fieldset>\\n\\n          <fieldset class="tab-panel">\\n              <legend>Ubicaci\\xc3\\xb3n del Documento</legend>\\n\\n              <div class="input-group focus">\\n                  <input type="text" class="input" name="ubicacion_fisica" id="ubicacion_fisica" ">\\n                  <label class="label" for="ubicacion_fisica"><i class="lnr lnr-pushpin"></i>Ubicaci\\xc3\\xb3n f\\xc3\\xadsica del documento</label>\\n              </div>  \\n             <!--<div class="input-group">\\n                  <input type="text" class="input" name="archivo_el" id="archivo_el" value="\', escape=False)\n        response.write(doc.ubicacion_electronica)\n        response.write(\'>\\n                  <label class="label" for="archivo_el"><i class="lnr lnr-file-empty"></i>Archivo electr\\xc3\\xb3nico</label>\\n              </div>-->\\n              <div class="input-group focus">\\n                  <input type="text" class="input" name="carpeta_el" id="carpeta_el">\\n                  <label class="label" for="carpeta_el"><i class="lnr lnr-enter"></i>Carpeta electr\\xc3\\xb3nica</label>\\n              </div>\\n              \\n                        \\n              \\n                  \\n                  \\n\\n\\n\\n          </fieldset>\\n  \\n\\n         \\n      </div>\\n      <button type="submit" form="form-wrapper" class="submit-button button" value="Submit" name="button" id="edit_send">Guardar</button>\\n      <span class="close">&times;</span>\\n      \\n      <nav id="tab-nav" class="tab-nav">\\n          <button class="tab-nav__button nav-button prev lnr lnr-arrow-up"></button>\\n          <button class="tab-nav__button nav-button next lnr lnr-arrow-down"></button>\\n      </nav>\\n      \\n  </form>\\n\\n</div>\\n\\n\\n\\n\\n\\n\\n\\n  \', escape=False)\n        pass\n    response.write(\'\\n  <script src=\\\'https://cdnjs.cloudflare.com/ajax/libs/jquery/3.3.1/jquery.min.js\\\'></script>\\n  <script type="text/javascript">\\n    var ficha = "\', escape=False)\n    response.write(URL(\'informacion_documentada\',\'ficha\',args=[doc.codigo]))\n    response.write(\'";\\n    $(\\\'.tab-link\\\').click( function() {\\n    \\n    var tabID = $(this).attr(\\\'data-tab\\\');\\n    \\n    $(this).addClass(\\\'active\\\').siblings().removeClass(\\\'active\\\');\\n    \\n    $(\\\'#tab-\\\'+tabID).addClass(\\\'active\\\').siblings().removeClass(\\\'active\\\');\\n  });\\n  </script>\\n  <script type="text/javascript">\\n    // Get the modal\\n    var modal = document.getElementById(\\\'modal\\\');\\n\\n    // Get the button that opens the modal\\n    var btn = document.getElementById("botonModal");\\n\\n    // Get the <span> element that closes the modal\\n    var span = document.getElementsByClassName("close")[0];\\n\\n    // When the user clicks on the button, open the modal \\n    btn.onclick = function() {\\n        modal.style.display = "block";\\n    }\\n\\n    // When the user clicks on <span> (x), close the modal\\n    span.onclick = function() {\\n        modal.style.display = "none";\\n    }\\n\\n    // When the user clicks anywhere outside of the modal, close it\\n    window.onclick = function(event) {\\n        if (event.target == modal) {\\n            modal.style.display = "none";\\n        }\\n    }\\n\\n    $(\\\'#edit_send\\\').click(function(event){\\n        window.reload();\\n    });\\n  </script>\\n<script src=\\\'https://cdnjs.cloudflare.com/ajax/libs/jquery/3.3.1/jquery.min.js\\\'></script>\\n<script src="\', escape=False)\n    response.write(URL(\'static\',\'js/agregarDoc.js\'))\n    response.write(\'"></script>\\n\', escape=False)\n    response.write(\'\\n\\n<script type="text/javascript">\\n  if(window.location.pathname.includes(\\\'personal\\\')){\\n    $(\\\'li#personal\\\').addClass("active");\\n  }\\n  else if (window.location.pathname.includes(\\\'servicios\\\')){\\n    $(\\\'li#servicios\\\').addClass("active");\\n  }\\n</script>\\n</body>\\n</html>\\n\', escape=False)'
p7
sS'snapshot'
p8
(dp9
S'exception'
p10
(dp11
S'__module__'
p12
S"'gluon.rocket'"
p13
sS'__getslice__'
p14
S"<method-wrapper '__getslice__' of SocketTimeout object>"
p15
sS'__str__'
p16
S"<method-wrapper '__str__' of SocketTimeout object>"
p17
sS'__reduce__'
p18
S'<built-in method __reduce__ of SocketTimeout object>'
p19
sS'__dict__'
p20
S'{}'
p21
sS'__sizeof__'
p22
S'<built-in method __sizeof__ of SocketTimeout object>'
p23
sS'__weakref__'
p24
S'None'
p25
sS'message'
p26
S"'Socket timed out before request.'"
p27
sS'__init__'
p28
S"<method-wrapper '__init__' of SocketTimeout object>"
p29
sS'__setattr__'
p30
S"<method-wrapper '__setattr__' of SocketTimeout object>"
p31
sS'__reduce_ex__'
p32
S'<built-in method __reduce_ex__ of SocketTimeout object>'
p33
sS'__new__'
p34
S'<built-in method __new__ of type object>'
p35
sS'__format__'
p36
S'<built-in method __format__ of SocketTimeout object>'
p37
sS'__class__'
p38
S"<class 'gluon.rocket.SocketTimeout'>"
p39
sS'__doc__'
p40
S"'Exception for when a socket times out between requests.'"
p41
sS'__getitem__'
p42
S"<method-wrapper '__getitem__' of SocketTimeout object>"
p43
sS'__setstate__'
p44
S'<built-in method __setstate__ of SocketTimeout object>'
p45
sS'__getattribute__'
p46
S"<method-wrapper '__getattribute__' of SocketTimeout object>"
p47
sS'args'
p48
S"('Socket timed out before request.',)"
p49
sS'__subclasshook__'
p50
S'<built-in method __subclasshook__ of type object>'
p51
sS'__unicode__'
p52
S'<built-in method __unicode__ of SocketTimeout object>'
p53
sS'__delattr__'
p54
S"<method-wrapper '__delattr__' of SocketTimeout object>"
p55
sS'__repr__'
p56
S"<method-wrapper '__repr__' of SocketTimeout object>"
p57
sS'__hash__'
p58
S"<method-wrapper '__hash__' of SocketTimeout object>"
p59
ssS'evalue'
p60
S'Socket timed out before request.'
p61
sS'frames'
p62
(lp63
(dp64
S'file'
p65
S'/home/nairelys/Descargas/Sigulab/web2py/gluon/rocket.py'
p66
sS'dump'
p67
(dp68
S'self'
p69
S'<WSGIWorker(Thread-10, started daemon -1357915328)>'
p70
sS'conn'
p71
S'<gluon.rocket.Connection object>'
p72
sS'self.run_app'
p73
S'<bound method WSGIWorker.run_app of <WSGIWorker(Thread-10, started daemon -1357915328)>>'
p74
ssS'lnum'
p75
I1319
sS'lines'
p76
(dp77
I1314
S'            # Enter connection serve loop'
p78
sI1315
S'            while True:'
p79
sI1316
S'                if __debug__:'
p80
sI1317
S"                    self.err_log.debug('Serving a request')"
p81
sI1318
S'                try:'
p82
sI1319
S'                    self.run_app(conn)'
p83
sI1320
S'                except:'
p84
sI1321
S'                    exc = sys.exc_info()'
p85
sI1322
S'                    handled = self._handleError(*exc)'
p86
sI1323
S'                    if handled:'
p87
ssS'call'
p88
S'(self=<WSGIWorker(Thread-10, started daemon -1357915328)>)'
p89
sS'func'
p90
S'run'
p91
sa(dp92
g65
S'/home/nairelys/Descargas/Sigulab/web2py/gluon/rocket.py'
p93
sg67
(dp94
S'self'
p95
S'<WSGIWorker(Thread-10, started daemon -1357915328)>'
p96
sS'self.environ'
p97
S"{'HTTP_ACCEPT': 'text/html,application/xhtml+xml,application/xml;q=0.9,image/webp,image/apng,*/*;q=0.8', 'HTTP_ACCEPT_ENCODING': 'gzip, deflate, br', 'HTTP_ACCEPT_LANGUAGE': 'es-419,es;q=0.9', 'HTTP_CACHE_CONTROL': 'max-age=0', 'HTTP_CONNECTION': 'keep-alive', 'HTTP_COOKIE': 'csrftoken=V5qZDP9RSfIA9t9ZEr3gCjO16Mg6ALevDygMm7...b2=127.0.0.1-2363a4e0-dccd-462b-8c21-dfb22f7a068f', 'HTTP_HOST': '127.0.0.1:8000', 'HTTP_REFERER': 'http://127.0.0.1:8000/sigulab2/informacion_documentada/lista_documentos', 'HTTP_UPGRADE_INSECURE_REQUESTS': '1', 'HTTP_USER_AGENT': 'Mozilla/5.0 (X11; Linux i686) AppleWebKit/537.36...um/63.0.3239.84 Chrome/63.0.3239.84 Safari/537.36', ...}"
p98
sS'sock_file'
p99
S'<socket._fileobject object>'
p100
sS'environ'
p101
S'undefined'
p102
sS'self.build_environ'
p103
S'<bound method WSGIWorker.build_environ of <WSGIWorker(Thread-10, started daemon -1357915328)>>'
p104
sS'conn'
p105
S'<gluon.rocket.Connection object>'
p106
ssg75
I1812
sg76
(dp107
I1807
S'        else:'
p108
sI1808
S'            sock_file = conn.makefile(BUF_SIZE)'
p109
sI1809
S''
sI1810
S'        try:'
p110
sI1811
S'            # Read the headers and build our WSGI environment'
p111
sI1812
S'            self.environ = environ = self.build_environ(sock_file, conn)'
p112
sI1813
S''
sI1814
S'            # Handle 100 Continue'
p113
sI1815
S"            if environ.get('HTTP_EXPECT', '') == '100-continue':"
p114
sI1816
S"                res = environ['SERVER_PROTOCOL'] + ' 100 Continue\\r\\n\\r\\n'"
p115
ssg88
S'(self=<WSGIWorker(Thread-10, started daemon -1357915328)>, conn=<gluon.rocket.Connection object>)'
p116
sg90
S'run_app'
p117
sa(dp118
g65
S'/home/nairelys/Descargas/Sigulab/web2py/gluon/rocket.py'
p119
sg67
(dp120
S'sock_file'
p121
S'<socket._fileobject object>'
p122
sS'self.read_request_line'
p123
S'<bound method WSGIWorker.read_request_line of <WSGIWorker(Thread-10, started daemon -1357915328)>>'
p124
sS'self'
p125
S'<WSGIWorker(Thread-10, started daemon -1357915328)>'
p126
sS'request'
p127
g102
ssg75
I1632
sg76
(dp128
I1632
S'        request = self.read_request_line(sock_file)'
p129
sI1633
S''
sI1634
S'        # Copy the Base Environment'
p130
sI1635
S'        environ = self.base_environ.copy()'
p131
sI1636
S''
sI1627
S'                                      "wsgiorg.futures": executor.futures})'
p132
sI1628
S''
sI1629
S'    def build_environ(self, sock_file, conn):'
p133
sI1630
S'        """ Build the execution environment. """'
p134
sI1631
S'        # Grab the request line'
p135
ssg88
S'(self=<WSGIWorker(Thread-10, started daemon -1357915328)>, sock_file=<socket._fileobject object>, conn=<gluon.rocket.Connection object>)'
p136
sg90
S'build_environ'
p137
sa(dp138
g65
S'/home/nairelys/Descargas/Sigulab/web2py/gluon/rocket.py'
p139
sg67
(dp140
S'global SocketTimeout'
p141
S"<class 'gluon.rocket.SocketTimeout'>"
p142
ssg75
I1383
sg76
(dp143
I1378
S''
sI1379
S'                d = sock_file.readline()'
p144
sI1380
S'                if PY3K:'
p145
sI1381
S"                    d = d.decode('ISO-8859-1')"
p146
sI1382
S'        except socket.timeout:'
p147
sI1383
S"            raise SocketTimeout('Socket timed out before request.')"
p148
sI1384
S'        except TypeError:'
p149
sI1385
S'            raise SocketClosed('
p150
sI1386
S"                'SSL bug caused closure of socket.  See '"
p151
sI1387
S'                \'"https://groups.google.com/d/topic/web2py/P_Gw0JxWzCs".\')'
p152
ssg88
S'(self=<WSGIWorker(Thread-10, started daemon -1357915328)>, sock_file=<socket._fileobject object>)'
p153
sg90
S'read_request_line'
p154
sasS'pyver'
p155
S'Python 2.7.6: /usr/bin/python (prefix: /usr)'
p156
sS'etype'
p157
S"<class 'gluon.rocket.SocketTimeout'>"
p158
sS'date'
p159
S'Sat Jun 16 23:45:41 2018'
p160
sS'locals'
p161
(dp162
S'sock_file'
p163
S'<socket._fileobject object>'
p164
sS'self'
p165
S'<WSGIWorker(Thread-10, started daemon -1357915328)>'
p166
sssS'traceback'
p167
S'Traceback (most recent call last):\n  File "/home/nairelys/Descargas/Sigulab/web2py/gluon/rocket.py", line 1319, in run\n    self.run_app(conn)\n  File "/home/nairelys/Descargas/Sigulab/web2py/gluon/rocket.py", line 1812, in run_app\n    self.environ = environ = self.build_environ(sock_file, conn)\n  File "/home/nairelys/Descargas/Sigulab/web2py/gluon/rocket.py", line 1632, in build_environ\n    request = self.read_request_line(sock_file)\n  File "/home/nairelys/Descargas/Sigulab/web2py/gluon/rocket.py", line 1383, in read_request_line\n    raise SocketTimeout(\'Socket timed out before request.\')\nSocketTimeout: Socket timed out before request.\n'
p168
s.