(dp1
S'output'
p2
S"<type 'exceptions.AttributeError'> "
p3
sS'layer'
p4
S'/home/nairelys/Descargas/Sigulab/web2py/applications/sigulab2/views/informacion_documentada/ficha.html'
p5
sS'code'
p6
S'response.write(\'<!DOCTYPE html>\\n<html lang="es">\\n<head>\\n  <title>SIGULAB</title>    \\n  \\n  <!-- http://dev.w3.org/html5/markup/meta.name.html -->\\n  <meta name="application-name" content="SIGULAB">\\n\\n  <meta charset="utf-8">\\n  <meta name="viewport" content="width=device-width, initial-scale=1.0">\\n\\n  <!-- www.phpied.com/conditional-comments-block-downloads/ -->\\n  <!-- Always force latest IE rendering engine\\n       (even in intranet) & Chrome Frame\\n       Remove this if you use the .htaccess -->\\n  <meta http-equiv="X-UA-Compatible" content="IE=edge">\\n\\n  <!-- Avoid search sites from indexing this website -->\\n  <meta name="robots" content="noindex" />\\n\\n  <link rel="icon" type="image/png" sizes="16x16" href="\', escape=False)\nresponse.write(URL(\'static\', \'favicon.ico\'))\nresponse.write(\'">\\n    \\n\\n  <link rel="stylesheet" href="\', escape=False)\nresponse.write(URL(\'static\', \'css/bootstrap.min.css\'))\nresponse.write(\'">\\n  <link rel="stylesheet" href="\', escape=False)\nresponse.write(URL(\'static\',\'css/servicios.css\'))\nresponse.write(\'">\\n  <link rel="stylesheet" href="\', escape=False)\nresponse.write(URL(\'static\',\'font-awesome-4.7.0/css/font-awesome.min.css\'))\nresponse.write(\'">\\n  \\n  <script src="\', escape=False)\nresponse.write(URL(\'static\',\'js/jquery.min.js\'))\nresponse.write(\'"></script>\\n  <script src="\', escape=False)\nresponse.write(URL(\'static\',\'js/bootstrap.min.js\'))\nresponse.write(\'"></script>\\n\\n  <!--[if lt IE 9]>\\n  <script src="https://oss.maxcdn.com/libs/html5shiv/3.7.0/html5shiv.js"></script>\\n  <script src="https://oss.maxcdn.com/libs/respond.js/1.4.2/respond.min.js"></script>\\n  <![endif]-->\\n  \\n  \', escape=False)\nresponse.write(\'\\n  <link rel="stylesheet" href="https://cdn.linearicons.com/free/1.0.0/icon-font.min.css">\\n  <meta name="viewport" content="width=device-width, initial-scale=1">\\n  <link rel="stylesheet" href="https://cdnjs.cloudflare.com/ajax/libs/meyer-reset/2.0/reset.min.css">\\n  <link rel="stylesheet" href="\', escape=False)\nresponse.write(URL(\'static\', \'css/agregarDoc.css\'))\nresponse.write(\'">\\n  <link rel=\\\'stylesheet prefetch\\\' href=\\\'https://fonts.googleapis.com/css?family=Poppins:300,400,700\\\'>\\n\\n  <link rel="stylesheet" type="text/css" href="\', escape=False)\nresponse.write(URL(\'static\', \'css/servicios_modal.css\'))\nresponse.write(\'">\\n  <link rel="stylesheet" href="\', escape=False)\nresponse.write(URL(\'static\', \'css/servicios_listado.css\'))\nresponse.write(\'">\\n  <link rel="stylesheet" href="\', escape=False)\nresponse.write(URL(\'static\', \'css/servicios_template_modal.css\'))\nresponse.write(\'">\\n  \\n  <script src="\', escape=False)\nresponse.write(URL(\'static\', \'js/servicios_template_modal.js\'))\nresponse.write(\'"></script>\\n\\n  <!-- Web2py JS - Especialmente para AJAX -->\\n  <script src="\', escape=False)\nresponse.write(URL(\'static\', \'js/web2py.js\'))\nresponse.write(\'"></script>\\n  <style>\\n    .row{\\n      margin-right:0px!important;\\n    }\\n  </style>\\n  <style type="text/css">\\n    \\n    .wrapper {\\n      max-width: 80%;\\n      margin: auto;\\n      margin-top: 10px;\\n    }\\n\\n    .tab-wrapper2 {\\n      text-align: center;\\n      display: block;\\n      margin: auto;\\n      max-width: 1200px;\\n    }\\n\\n    .tabs {\\n      margin: 0;\\n      padding: 0;\\n      display: flex;\\n      justify-content: center;\\n    }\\n\\n    .tab-link {\\n      margin: 0 1%;\\n      list-style: none;\\n      padding: 10px 40px;\\n      font-size: 25px;\\n      color: #aaa;\\n      cursor: pointer;\\n      font-weight: 700;\\n      transition: all ease 0.5s;\\n      border-bottom: solid 3px rgba(255, 255, 255, 0);\\n      letter-spacing: 1px;\\n    }\\n\\n    .tab-link:hover {\\n      color: #999;\\n      border-color: #999;\\n    }\\n\\n    .tab-link.active {\\n      color: #333;\\n      border-color: #333;\\n    }\\n\\n    .tab-link:nth-of-type(1).active {\\n      color: #60e8f2;\\n      border-color: #60e8f2;\\n    }\\n\\n    .tab-link:nth-of-type(2).active {\\n      color: #60e8f2;\\n      border-color: #60e8f2;\\n    }\\n\\n    .tab-link:nth-of-type(3).active {\\n      color: #60e8f2;\\n      border-color: #60e8f2;\\n    }\\n\\n    .content-wrapper {\\n      margin-top: 30px;\\n      padding: 40px 80px;\\n    }\\n\\n    .tab-content {\\n      display: none;\\n      text-align: left;\\n      color: #888;\\n      font-weight: 300;\\n      font-size: 15px;\\n      opacity: 0;\\n      transform: translateY(15px);\\n      animation: fadeIn 0.5s ease 1 forwards;\\n    }\\n\\n    .tab-content.active {\\n      display: block;\\n    }\\n\\n    @keyframes fadeIn {\\n      100% {\\n        opacity: 1;\\n        transform: none;\\n      }\\n    }\\n\\n  </style>\\n\\n\', escape=False)\nresponse.write(\' \\n</head>\\n<body>\\n\\n<!-- Barra de navegaci\\xc3\\xb3n principal -->\\n<div class="container" id="logo">\\n<a class="navbar-brand" href="\', escape=False)\nresponse.write(URL(\'..\', \'sigulab2\'))\nresponse.write(\'"><div class="logotext">SIGULAB</div></a>\\n</div>\\n<nav class="navbar navbar-inverse navbar-fixed-top">\\n  <div class="container-fluid">\\n      <div class="navbar-header">\\n        <button type="button" class="navbar-toggle" data-toggle="collapse" data-target="#myNavbar">\\n          <span class="icon-bar"></span>\\n          <span class="icon-bar"></span>\\n          <span class="icon-bar"></span> \\n          </button>\\n          <a class="navbar-brand" id="hide" href="#"><div class="logotext">SIGULAB</div></a>\\n      </div>\\n      <div class="collapse navbar-collapse" id="myNavbar">\\n\\n        <ul class="nav navbar-nav">\\n            \\n            <li class="dropdown active-item" id="inicio">\\n              <a class="dropdown-toggle" href="\', escape=False)\nresponse.write(URL(\'..\', \'sigulab2\'))\nresponse.write(\'">INICIO</a>\\n            </li>\\n\\n            <li class="dropdown active-item" id="personal">\\n              <a href="#" class="dropdown-toggle" data-toggle="dropdown" role="button" aria-haspopup="true" aria-expanded="false">PERSONAL<span class="caret"></span></a>\\n              <ul class=" dropdown-menu">\\n                <li><a href="\', escape=False)\nresponse.write(URL(\'personal\',\'index\'))\nresponse.write(\'">P\\xc3\\xa1gina Principal</a></li>\\n                <li><a href="\', escape=False)\nresponse.write(URL(\'personal\',\'listado\'))\nresponse.write(\'">Listado General de Personal</a></li>\\n                <li><a href="#">Listado por Categor\\xc3\\xadas de Personal</a></li>\\n                <li><a href="#">Listado por Dependencias de Personal</a></li>\\n                <li><a href="#">Listado por A\\xc3\\xb1os de Servicio de Personal</a></li>\\n              </ul>\\n            </li>\\n            \\n            <li class="dropdown active-item" id="servicios">\\n\\n              <a href="#" class="dropdown-toggle" data-toggle="dropdown" role="button" aria-haspopup="true" aria-expanded="false">SERVICIOS<span class="caret"></span></a>\\n                <ul class=" dropdown-menu">\\n                <li><a href="\', escape=False)\nresponse.write(URL(\'servicios\',\'index\'))\nresponse.write(\'">P\\xc3\\xa1gina Principal</a></li>\\n                <li><a href="\', escape=False)\nresponse.write(URL(\'servicios\',\'listado\'))\nresponse.write(\'">Listado de Servicios</a></li>\\n                <li><a href="\', escape=False)\nresponse.write(URL(\'servicios\',\'solicitudes\'))\nresponse.write(\'">Solicitudes de Servicios</a></li>\\n                <li><a href="\', escape=False)\nresponse.write(URL(\'servicios\',\'certificaciones\'))\nresponse.write(\'">Certificar un servicio</a></li>\\n                <li><a href="\', escape=False)\nresponse.write(URL(\'servicios\',\'historial\'))\nresponse.write(\'">Historial de servicios</a></li>\\n                <li><a href="\', escape=False)\nresponse.write(URL(\'servicios\',\'catalogoServicios\'))\nresponse.write(\'">Cat\\xc3\\xa1logo de Servicios</a></li>\\n              </ul>\\n            </li>\\n\\n            <li class="dropdown active-item" id="smydp">\\n              <a href="#" class="dropdown-toggle" data-toggle="dropdown" role="button" aria-haspopup="true" aria-expanded="false">SMyDP<span class="caret"></span></a>\\n                <ul class="dropdown-menu">\\n                <li><a href="\', escape=False)\nresponse.write(URL(\'smydp\', \'index\'))\nresponse.write(\'">P\\xc3\\xa1gina Principal</a></li>\\n                  <li><a href="\', escape=False)\nresponse.write(URL(\'smydp\', \'catalogo\'))\nresponse.write(\'">Listado de Sustancias</a></li>\\n                  <li><a href="\', escape=False)\nresponse.write(URL(\'smydp\', \'inventarios\'))\nresponse.write(\'">Inventario</a></li>\\n                 </ul>\\n            </li> \\n            <li class="dropdown active-item" id="smydp">\\n              <a href="#" class="dropdown-toggle" data-toggle="dropdown" role="button" aria-haspopup="true" aria-expanded="false">Informaci\\xc3\\xb3n Documentada<span class="caret"></span></a>\\n                <ul class="dropdown-menu">\\n                <li><a href="\', escape=False)\nresponse.write(URL(\'informacion_documentada\', \'index\'))\nresponse.write(\'">P\\xc3\\xa1gina Principal</a></li>\\n                  <li><a href="\', escape=False)\nresponse.write(URL(\'informacion_documentada\', \'lista_documentos\'))\nresponse.write(\'">Listado de Documentos</a></li>\\n                 </ul>\\n            </li> \\n\\n        </ul>\\n\\n      <ul class="nav navbar-nav navbar-right">\\n      \', escape=False)\nif auth.has_membership(\'ADMINISTRADOR PERSONAL\') \\\nor auth.has_membership(\'WEBMASTER\')\\\nor auth.has_membership(\'DIRECTOR\'):\n    response.write(\'\\n        <li class="dropdown">\\n          <div class="dropdown">\\n            <button class="btn btn-primary dropdown-toggle" type="button" data-toggle="dropdown">\\n              <i id="iconoInfo" class="fa fa-cog" aria-hidden="true"></i>\\n            </button>\\n            <ul class="dropdown-menu">\\n              <li><a href="\', escape=False)\n    response.write(URL(\'modulos\',\'register\'))\n    response.write(\'">Registrar Usuario</a></li>\\n              <li><a href="\', escape=False)\n    response.write(URL(\'gestion\',\'usuarios\'))\n    response.write(\'">Usuarios Autorizados</a></li>\\n              <li><a href="\', escape=False)\n    response.write(URL(\'gestion\',\'dependencias\'))\n    response.write(\'">Dependencias</a></li>\\n              <li><a href="\', escape=False)\n    response.write(URL(\'gestion\',\'espacios_fisicos\'))\n    response.write(\'">Espacios F\\xc3\\xadsicos</a></li>\\n            </ul>\\n          </div>\\n        </li>\\n        \', escape=False)\n    pass\nresponse.write(\'\\n\\n        <li class="dropdown">\\n          <div class="dropdown">\\n            <button class="btn btn-primary dropdown-toggle" type="button" data-toggle="dropdown">\\n              <span id="iconoUser" class="glyphicon glyphicon-user dropdown-toggle"></span>\\n            </button>\\n            <ul class="dropdown-menu">\\n              <li>\', escape=False)\nif auth.is_logged_in():\n    response.write(\'<a href="\', escape=False)\n    response.write(URL(\'modulos\', \'editprofile\', args=\'profile\'))\n    response.write(\'">\', escape=False)\n    response.write(auth.user.first_name)\n    response.write(\'  \', escape=False)\n    response.write(auth.user.last_name)\n    response.write(\'</a>\', escape=False)\n    pass\nresponse.write(\'</li>\\n              <li><a href="\', escape=False)\nresponse.write(URL(\'modulos\',\'logout\'))\nresponse.write(\'">Salir</a></li>\\n            </ul>\\n          </div>\\n        </li>\\n      </ul> \\n     </div>\\n  </div>\\n</nav>\\n<!-- Fin de la barra de navegaci\\xc3\\xb3n principal -->\\n\\n<div class="fondoblanco"></div> \\n<div class="separador"></div>\\n\\n\', escape=False)\nresponse.write(\'\\n<nav class="navbar navbar-inverse navbar-fixed-top breadcrumbs">\\n  <div class="breadcrumb">\\n  <a class="breadcrumb-item" href="\', escape=False)\nresponse.write(URL(\'..\', \'sigulab2\'))\nresponse.write(\'">Inicio</a>\\n  <a class="breadcrumb-item" href="\', escape=False)\nresponse.write(URL(\'..\', \'sigulab2\',\'informacion_documentada\',\'\'))\nresponse.write(\'">Informaci\\xc3\\xb3n Documentada</a>\\n  <a class="breadcrumb-item" href="\', escape=False)\nresponse.write(URL(\'..\', \'sigulab2\',\'informacion_documentada\',\'\'))\nresponse.write(\'">Listado de Documentos</a>\\n  <span class="breadcrumb-item active">Ficha</span>\\n  </div>\\n</nav>\\n  \', escape=False)\nfor doc in message:\n    response.write(\'\\n\\n\\n\\n<div class="wrapper">\\n    \\n  <div class="tab-wrapper2">\\n    <ul class="tabs">\\n        <li class="tab-link active" data-tab="1">Informaci\\xc3\\xb3n General</li>\\n        <li class="tab-link" data-tab="2">Historial de Revisi\\xc3\\xb3n</li>\\n        <li class="tab-link" data-tab="3">Ubicaci\\xc3\\xb3n</li>\\n    </ul>\\n  </div>\\n\\n  <div class="content-wrapper">\\n    <div id="tab-1" class="tab-content active">\\n\\n      <p><span style="color: #52798c; font-size: 1.2em;">C\\xc3\\xb3digo:  \', escape=False)\n    response.write(doc.codigo)\n    response.write(\'  </span></p>\\n      <p><span style="color: #52798c; font-size: 1.2em;">Tipo:    \', escape=False)\n    response.write(doc.tipo_doc)\n    response.write(\'  </span></p>\\n      <p><span style="color: #52798c; font-size: 1.2em;">Documento: \', escape=False)\n    response.write(doc.nombre_doc)\n    response.write(\'    </span> </p>\\n      <p><span style="color: #52798c; font-size: 1.2em;">Objetivo: \', escape=False)\n    response.write(doc.objetivo)\n    response.write(\'       </span></p>\\n      <p><span style="color: #52798c; font-size: 1.2em;">Estatus:  \', escape=False)\n    response.write(doc.estatus)\n    response.write(\'    </span></p>\\n      <p><span style="color: #52798c; font-size: 1.2em;">Per\\xc3\\xadodo de Revisi\\xc3\\xb3n:  \', escape=False)\n    response.write(doc.periodo_rev)\n    response.write(\'   </span></p>\\n\\n      <div style="margin-top: 50px; float: right;">\\n        <div class="row container-fluid">\\n            <form method="POST">\\n            <p onclick="estatus()">\\n                <button type="button" id="botonModal" data-toggle="modal" data-target="#adddoc"  class="btn btn-primary btn-lg" style="margin-right: 15px;" >Editar</button>\\n               </p>\\n                <button type="button" class="btn btn-info btn-lg" style="margin-right: 15px;">Ocultar</button>\\n                <button type="submit" class="btn btn-danger btn-lg" name="eliminar" value="eliminar">Eliminar</button>\\n            </form>\\n        </div>\\n      </div>  \\n    \\n\\n    </div>\\n\\n\\n\\n    <div id="tab-2" class="tab-content">\\n\\n\\n\\n      <table class="container">\\n        <thead>\\n          <tr>\\n            <th>Responsable</th>\\n            <th>Elaborado por</th>\\n            <th>Revisi\\xc3\\xb3n de contenido realizado por</th>\\n            <th>Fecha de revisi\\xc3\\xb3n de contenido</th>\\n            <th>Revisi\\xc3\\xb3n de especificaciones del documento realizado por</th>\\n            <th>Fecha de revisi\\xc3\\xb3n de especificaciones del documento</th>\\n            <th>Revisi\\xc3\\xb3n por el Consejo Asesor</th>\\n            <th>Fecha de revisi\\xc3\\xb3n por el Consejo Asesor</th>\\n\\n          </tr>\\n        </thead>\\n        <tbody>\\n          <tr>\\n\\n            <td>\', escape=False)\n    response.write(doc.responsable)\n    response.write(\'</td>\\n            <td>\', escape=False)\n    response.write(doc.elaborado_actualizado_por)\n    response.write(\'</td>\\n            <td>\', escape=False)\n    response.write(doc.rev_contenido_realizado_por)\n    response.write(\'</td>\\n            <td>\', escape=False)\n    response.write(doc.fecha_rev_contenido)\n    response.write(\'</td>\\n            <td>\', escape=False)\n    response.write(doc.rev_especficaciones_doc_realizado_por)\n    response.write(\'</td>\\n            <td>\', escape=False)\n    response.write(doc.fecha_rev_especificaciones_doc)\n    response.write(\'</td>\\n            <td>\', escape=False)\n    response.write(doc.rev_por_consejo_asesor)\n    response.write(\'</td>\\n            <td>\', escape=False)\n    response.write(doc.fecha_rev_por_consejo_asesor)\n    response.write(\'</td>\\n            \\n          </tr>\\n\\n        </tbody>\\n      </table>\\n\\n\\n\\n    </div>\\n    <div id="tab-3" class="tab-content">\\n  \\n      <p><span style="color: #52798c; font-size: 1.2em;">C\\xc3\\xb3digo de registro de Ubicacion: \', escape=False)\n    response.write(doc.registro)\n    response.write(\'  </span></p>\\n      <p><span style="color: #52798c; font-size: 1.2em;">Fecha de registro de Ubicacion:      </span></p>\\n      <p><span style="color: #52798c; font-size: 1.2em;">Carpeta electr\\xc3\\xb3nica:     </span> </p>\\n      <p><span style="color: #52798c; font-size: 1.2em;">Archivo electr\\xc3\\xb3nico:   \', escape=False)\n    response.write(doc.ubicacion_electronica)\n    response.write(\'  </span></p>\\n      <p><span style="color: #52798c; font-size: 1.2em;">Ubicaci\\xc3\\xb3n f\\xc3\\xadsica del documento: \', escape=False)\n    response.write(doc.ubicacion_fisica)\n    response.write(\'     </span></p>\\n    \\n\\n    </div>\\n  </div>\\n  \\n</div>    \\n\\n\\n\\n\\n\\n\\n\\n\\n\\n\\n\\n\\n\\n\\n\\n\\n\\n\\n\\n\\n\\n\\n\\n\\n\\n\\n\\n\\n\\n\\n  <div class="modal fade" id="adddoc" role="dialog" >\\n    <div class="modal-dialog">\\n\\n      <!-- Modal content-->\\n      <div class="modal-content">\\n\\n        <!-- Modal Header -->\\n        <div class="modal-header addHeader">\\n          <div class="row addRow" id="rowHeader">\\n            <div class="col-sm-1" id="col1Header">\\n              <div class="container" id="plus">\\n                <h1 id="agregar">+</h1>\\n              </div>\\n            </div>\\n            <div class="col-sm-11" id="col11Header">\\n              <h4 class="modal-title" id="nuevoServicio">Editar Documento</h4>\\n            </div>\\n          </div>\\n        </div>\\n        <!-- Fin Modal Header -->\\n        \\n        <!-- Modal Body -->\\n        <div class="modal-body addBody">\\n          <div class="row addRow">\\n            <div class="col-md-12 form-box" >\\n                <form id="formularioEdit" class="registration-form" method="post" >\\n\\n                    <!-- Primer Paso -->\\n                    <fieldset class="formField">\\n                      <div class="form-bottom" data-step="1" data-title="Primer Paso">\\n                        <!-- Aqui va la barra lateral -->\\n                        <div class="col-sm-1 col1Body">\\n                          <span class="step activePass">1</span>\\n                          <span class="step">2</span>\\n                          <span class="step">3</span>\\n                          <span class="step">4</span>             \\n                          <span class="step">5</span>\\n              \\n                        </div>\\n                        <!-- Aqui va la informacion -->\\n                        <div class="col-sm-11 col11Body">\\n                          <h4 class="titulosForm">Informaci\\xc3\\xb3n General</h4>\\n\\n                  <div class="form-group" data-atributo="\', escape=False)\n    response.write(doc.estatus)\n    response.write(\'">\\n                      <input disabled=\\\'\\\' type="text" class="input" name="nombre_documento" id="nombre_documento" placeholder="Nombre del Documento" value="\', escape=False)\n    response.write(doc.nombre_doc)\n    response.write(\'">\\n                      \\n                  </div>\\n\\n                  <div class="form-group"> \\n                    <h5>Tipo del Documento</h5>\\n                      <select  disabled=\\\'\\\'  name="tipo" id="tipo" class="input" required>\\n                        <option value="\', escape=False)\n    response.write(doc.tipo_doc)\n    response.write(\'">\', escape=False)\n    response.write(doc.tipo_doc)\n    response.write(\'</option>\\n                \\n\\n              </select>\\n                  </div>\\n\\n                  <div class="form-group"> \\n                    <h5>Responsable</h5>\\n                      <select disabled=\\\'\\\' name="responsable" id="responsable" class="input" required>\\n                        <option  value="\', escape=False)\n    response.write(doc.responsable)\n    response.write(\'"> \', escape=False)\n    response.write(doc.responsable)\n    response.write(\'</option>\\n          \\n              </select>\\n                  </div>\\n\\n            <!--<div class="input-group">\\n                      <input type="text" class="input" name="responsable" id="responsable"> \\n                      <label class="label" for="responsable"><i class="lnr lnr-users"></i> Responsable </label>\\n                  </div>-->\\n            \\n            <div class="form-group">\\n                      <h5>Fecha de entrega para revisi\\xc3\\xb3n</h5><input disabled=\\\'\\\' type="date" class="input" name="fecha_prox_rev" id="fecha_prox_rev" value="\', escape=False)\n    response.write(doc.fecha_prox_rev)\n    response.write(\'" required>\\n                  </div>\\n\\n\\n                 <button type="submit" class="btn btn-submit botonForm" id="submit" form="formularioEdit" name="envio" value="edicion" ><i class="fa fa-floppy-o"></i></button>   \\n                      <button type="button" class="btn btn-next edit botonForm"><i class="fa fa-arrow-right"></i></button>\\n                    </fieldset>\\n                    <!-- Fin Primer Paso -->\\n                    \\n                    <!-- Segundo Paso -->\\n                    <fieldset class="formField">\\n                        <div class="form-bottom" data-step="2" data-title="Segundo Paso">\\n                          <!-- Aqui va la barra lateral -->\\n                          <div class="col-sm-1 col1Body">\\n                            <span class="step">1</span>\\n                            <span class="step activePass">2</span>\\n                            <span class="step">3</span>\\n                            <span class="step">4</span> \\n                            <span class="step">5</span>\\n                          </div>\\n\\n                          <!-- Aqui va la informacion -->\\n                          <div class="col-sm-11 col11Body">\\n                          <h4 class="titulosForm">Informaci\\xc3\\xb3n Elaboraci\\xc3\\xb3n</h4>\\n\\n\\n\\n\\n                  \\n                  <div class="form-group">\\n                      <input disabled="" type="text" class="input" name="codigo" id="codigo" placeholder="C\\xc3\\xb3digo Documento" value="\', escape=False)\n    response.write(doc.codigo)\n    response.write(\'" required>\\n                  </div>\\n\\n                  <div class="form-group">\\n                      <input disabled="" type="text" class="input" name="objetivos" id="objetivos" placeholder="Objetivos" value="\', escape=False)\n    response.write(doc.objetivos)\n    response.write(\'" required> \\n                  </div>\\n            <div class="form-group">\\n              <h5>Per\\xc3\\xadodo de Revisi\\xc3\\xb3n</h5>\\n\\n                      <select name="periodo" id="periodo" class="input" required>\\n                <option value=""></option>\\n\\n                <option value="Quincenal">Quincenal</option>\\n                <option value="Mensual">Mensual</option>\\n                <option value="Trimestral">Trimestral</option>\\n                <option value="Semestral">Semestral</option>\\n                <option value="Anual">Anual</option>\\n                <option value="Bienal">Bienal</option>\\n                <option value="Trienal">Trienal</option>\\n\\n              </select> \\n                      \\n                  </div>\\n                  <!--<div class="input-group">\\n\\n                      <input type="number" class="input" name="anexos" id="anexos" min="0" max="30"> \\n\\n                      <label class="label" for="anexos"><i class="lnr lnr-paperclip"></i> Cantidad de Anexos </label>\\n                  </div>-->\\n                  <div class="form-group">\\n                      <input type="text" class="input" name="elaborado" id="elaborado" placeholder="Elaborado por" required="">  \\n                  </div>\\n                            \\n\\n                        <button type="button" class="btn btn-previous botonForm"><i class="fa fa-arrow-left"></i></button>\\n                        <button type="submit" class="btn btn-submit botonForm" id="submit" form="formularioEdit" name="envio" value="edicion" ><i class="fa fa-floppy-o"></i></button>  \\n                        <button type="button" class="btn btn-next botonForm"><i class="fa fa-arrow-right"></i></button>\\n                    </fieldset>\\n                    <!-- Fin Segundo Paso -->\\n\\n                    <!-- Tercer Paso -->\\n                    <fieldset class="formField">\\n                      <div class="form-bottom" data-step="3" data-title="Tercer Paso">\\n                        <!-- Aqui va la barra lateral -->\\n                        <div class="col-sm-1 col1Body">\\n                          <span class="step">1</span>\\n                          <span class="step">2</span>\\n                          <span class="step activePass">3</span>\\n                          <span class="step">4</span>\\n                          <span class="step">5</span> \\n                        </div>\\n                        \\n                        <!-- Aqui va la informacion -->\\n                        <div class="col-sm-11 col11Body">\\n                        <h4 class="titulosForm"> Informaci\\xc3\\xb3n Revisi\\xc3\\xb3n </h4>\\n\\n\\n\\n\\n            <div class="form-group">\\n                      <input type="text" class="input" name="revision_contenido" id="revision_contenido" placeholder="Revisi\\xc3\\xb3n de contenido realizado por:" required>\\n                  </div> \\n                  <div class="form-group">\\n                      <input type="date" class="input" name="fecha_revision_contenidos" id="fecha_revision_contenidos" placeholder="Fecha de registro de revisi\\xc3\\xb3n de contenidos" required> \\n                  </div> \\n                  \\n                  <div class="form-group">\\n                      <input type="text" class="input" name="revision_especificaciones" id="revision_especificaciones" placeholder="Revisi\\xc3\\xb3n de especificaciones del documento realizado por:" required> \\n                  </div> \\n\\n                  <div class="form-group">\\n                      <input type="date" class="input" name="fecha_revision_especificaciones" id="fecha_revision_especificaciones" placeholder="Fecha de revisi\\xc3\\xb3n de especificaciones del documento" required> \\n                  </div> \\n                  <div class="form-group">\\n                      <input type="text" class="input" name="revision_consejo" id="revision_consejo" placeholder="Revisi\\xc3\\xb3n por el Consejo Asesor" required>\\n                  </div> \\n                  <div class="form-group">\\n                      <input type="date" class="input" name="fecha_revision_consejo" id="fecha_revision_consejo" placeholder="Fecha de revisi\\xc3\\xb3n por el Consejo Asesor" required>  \\n                  </div> \\n\\n                  <!--<div class="input-group">\\n\\n\\n                      <input type="text" class="input" name="periodocant" id="periodocant">\\n\\n                      <label class="label" for="periodocant"><i class="lnr lnr-map-redo"></i>Per\\xc3\\xadodo de Revisi\\xc3\\xb3n (cantidad)</label>\\n                  </div>-->\\n\\n\\n\\n                      <button type="button" class="btn btn-previous botonForm"><i class="fa fa-arrow-left"></i></button>\\n                      <button type="submit" class="btn btn-submit botonForm" id="submit" form="formularioEdit" name="envio" value="edicion" ><i class="fa fa-floppy-o"></i></button>  \\n                      <button type="button" class="btn btn-next botonForm"><i class="fa fa-arrow-right"></i></button>\\n                    </fieldset>\\n                    <!-- Fin Tercer Paso -->\\n\\n                    <!-- Cuarto Paso -->\\n                    <fieldset class="formField">\\n                      <div class="form-bottom" data-step="4" data-title="Cuarto Paso">\\n                      <!-- Aqui va la barra lateral -->\\n                        <div class="col-sm-1 col1Body">\\n                          <span class="step">1</span>\\n                          <span class="step">2</span>\\n                          <span class="step">3</span>\\n                          <span class="step activePass">4</span>\\n                          <span class="step">5</span> \\n                        </div>\\n\\n                      <!-- Aqui va la informacion -->\\n                        <div class="col-sm-11 col11Body" >\\n                        <h4 class="titulosForm"> Aprobado </h4>\\n\\n\\n\\n                  <div class="form-group">\\n                      <input type="text" class="input" name="aprobado" id="aprobado" placeholder="Aprobado Por:"> \\n                  </div>\\n                  <div class="form-group">\\n              <input type="date" class="input" name="fechaAprobacion" id="fechaAprobacion" placeholder="Fecha de Aprobaci\\xc3\\xb3n"> \\n            </div>  \\n                  <div class="form-group">\\n                      <input type="text" class="input" name="cod_registro" id="cod_registro" placeholder="C\\xc3\\xb3digo de Registro de Aprobacion"> \\n                  </div>\\n                   <div class="form-group">\\n                      <input type="text" class="input" name="cod_controlCambios" id="cod_controlCambios" placeholder="Cod Registro de control de cambios"> \\n                  </div>\\n\\n                  <div class="form-group">\\n                      <input type="date" class="input" name="fechaControlCambios" id="fechaControlCambios" placeholder="Fecha de reg de control de cambios"> \\n                  </div>\\n              \\n                      \\n                      <button type="button" class="btn btn-previous botonForm"><i class="fa fa-arrow-left"></i></button>\\n                      <button type="submit" class="btn btn-submit botonForm" id="submit" form="formularioEdit" name="envio" value="edicion" ><i class="fa fa-floppy-o"></i></button>  \\n                      <button type="button" class="btn btn-next botonForm"><i class="fa fa-arrow-right"></i></button>\\n\\n                    </fieldset>\\n                    <!-- Fin Cuarto Paso -->\\n\\n                    <!-- Quinto Paso -->\\n                    <fieldset class="formField">\\n                      <div class="form-bottom" data-step="5" data-title="Quinto Paso">\\n                      <!-- Aqui va la barra lateral -->\\n                        <div class="col-sm-1 col1Body">\\n                          <span class="step ready">1</span>\\n                          <span class="step ready">2</span>\\n                          <span class="step ready">3</span>\\n                          <span class="step ready">4</span> \\n                          <span class="step activePass">5</span>\\n                        </div>\\n\\n                      <!-- Aqui va la informacion -->\\n                        <div class="col-sm-11 col11Body" >\\n\\n                        <h4 class="titulosForm">Ubicaci\\xc3\\xb3n del Documento</h4>\\n\\n\\n\\n\\n\\n                  <div class="form-group">\\n                      <input type="text" class="input" name="ubicacion_fisica" id="ubicacion_fisica" placeholder="Ubicaci\\xc3\\xb3n f\\xc3\\xadsica del documento">\\n                      \\n                  </div>  \\n                  <div class="form-group">\\n                      <input type="text" class="input" name="archivo_el" id="archivo_el" placeholder="Archivo electr\\xc3\\xb3nico"> \\n                  </div>\\n                  <div class="form-group">\\n                      <input type="text" class="input" name="carpeta_el" id="carpeta_el" placeholder="Carpeta electr\\xc3\\xb3nica"> \\n                  </div>\\n\\n\\n\\n\\n\\n                      <button type="button" class="btn btn-previous botonForm"><i class="fa fa-arrow-left"></i></button>\\n                      <button type="submit" class="btn btn-submit botonForm" id="submit" form="formularioEdit" name="envio" value="edicion" ><i class="fa fa-floppy-o"></i></button>  \\n                     \\n                    </fieldset>\\n                    <!-- Fin Quinto Paso -->\\n\\n\\n                </form>\\n            </div>\\n          </div>               \\n        </div>\\n      </div>\\n  \\n    </div>\\n  </div>\\n\\n\\n\\n\\n\\n\\n\\n\\n\\n  \', escape=False)\n    pass\nresponse.write(\'\\n  <script>\\nfunction estatus(){\\n\\n      if($(\\\'.form-group\\\').data(\\\'atributo\\\')==\\\'Aprobado\\\'){\\n\\n        jQuery(\\\'#nombre_documento\\\').removeAttr(\\\'disabled\\\')\\n      }/*else if($(\\\'#adddoc\\\').data(\\\'atributo\\\')==\\\'Elaborado\\\'){\\n\\n      }else if($(\\\'#adddoc\\\').data(\\\'atributo\\\')==\\\'Revisado\\\'){\\n        \\n      }else if($(\\\'.form-group\\\').data(\\\'atributo\\\')==\\\'Aprobado\\\'){\\n        print()\\n        jQuery(\\\'#prueba\\\').removeAttr(\\\'disabled\\\')\\n        \\n      }*/\\n    }\\n\\n  </script>\\n  <script src=\\\'https://cdnjs.cloudflare.com/ajax/libs/jquery/3.3.1/jquery.min.js\\\'></script>\\n  <script type="text/javascript">\\n    var ficha = "\', escape=False)\nresponse.write(URL(\'informacion_documentada\',\'ficha\',args=[doc.codigo]))\nresponse.write(\'";\\n    $(\\\'.tab-link\\\').click( function() {\\n    \\n    var tabID = $(this).attr(\\\'data-tab\\\');\\n    \\n    $(this).addClass(\\\'active\\\').siblings().removeClass(\\\'active\\\');\\n    \\n    $(\\\'#tab-\\\'+tabID).addClass(\\\'active\\\').siblings().removeClass(\\\'active\\\');\\n  });\\n  </script>\\n  <script type="text/javascript">\\n    // Get the modal\\n    var modal = document.getElementById(\\\'adddoc\\\');\\n\\n    // Get the button that opens the modal\\n    var btn = document.getElementById("botonModal");\\n\\n    // Get the <span> element that closes the modal\\n    var span = document.getElementsByClassName("close")[0];\\n\\n    // When the user clicks on the button, open the modal \\n    btn.onclick = function() {\\n        modal.style.display = "block";\\n    }\\n\\n    // When the user clicks on <span> (x), close the modal\\n    span.onclick = function() {\\n        modal.style.display = "none";\\n    }\\n\\n    // When the user clicks anywhere outside of the modal, close it\\n    window.onclick = function(event) {\\n        if (event.target == modal) {\\n            modal.style.display = "none";\\n        }\\n    }\\n\\n    $(\\\'#edit_send\\\').click(function(event){\\n        window.reload();\\n    });\\n  </script>\\n<script src=\\\'https://cdnjs.cloudflare.com/ajax/libs/jquery/3.3.1/jquery.min.js\\\'></script>\\n<script src="\', escape=False)\nresponse.write(URL(\'static\',\'js/agregarDoc.js\'))\nresponse.write(\'"></script>\\n\', escape=False)\nresponse.write(\'\\n\\n<script type="text/javascript">\\n  if(window.location.pathname.includes(\\\'personal\\\')){\\n    $(\\\'li#personal\\\').addClass("active");\\n  }\\n  else if (window.location.pathname.includes(\\\'servicios\\\')){\\n    $(\\\'li#servicios\\\').addClass("active");\\n  }\\n</script>\\n</body>\\n</html>\\n\', escape=False)'
p7
sS'snapshot'
p8
(dp9
S'exception'
p10
(dp11
S'__getslice__'
p12
S"<method-wrapper '__getslice__' of exceptions.AttributeError object>"
p13
sS'__str__'
p14
S"<method-wrapper '__str__' of exceptions.AttributeError object>"
p15
sS'__reduce__'
p16
S'<built-in method __reduce__ of exceptions.AttributeError object>'
p17
sS'__dict__'
p18
S'{}'
p19
sS'message'
p20
S"''"
p21
sS'__sizeof__'
p22
S'<built-in method __sizeof__ of exceptions.AttributeError object>'
p23
sS'__init__'
p24
S"<method-wrapper '__init__' of exceptions.AttributeError object>"
p25
sS'__setattr__'
p26
S"<method-wrapper '__setattr__' of exceptions.AttributeError object>"
p27
sS'__reduce_ex__'
p28
S'<built-in method __reduce_ex__ of exceptions.AttributeError object>'
p29
sS'__new__'
p30
S'<built-in method __new__ of type object>'
p31
sS'__format__'
p32
S'<built-in method __format__ of exceptions.AttributeError object>'
p33
sS'__class__'
p34
S"<type 'exceptions.AttributeError'>"
p35
sS'__doc__'
p36
S"'Attribute not found.'"
p37
sS'__getitem__'
p38
S"<method-wrapper '__getitem__' of exceptions.AttributeError object>"
p39
sS'__setstate__'
p40
S'<built-in method __setstate__ of exceptions.AttributeError object>'
p41
sS'__getattribute__'
p42
S"<method-wrapper '__getattribute__' of exceptions.AttributeError object>"
p43
sS'args'
p44
S'()'
p45
sS'__subclasshook__'
p46
S'<built-in method __subclasshook__ of type object>'
p47
sS'__unicode__'
p48
S'<built-in method __unicode__ of exceptions.AttributeError object>'
p49
sS'__delattr__'
p50
S"<method-wrapper '__delattr__' of exceptions.AttributeError object>"
p51
sS'__repr__'
p52
S"<method-wrapper '__repr__' of exceptions.AttributeError object>"
p53
sS'__hash__'
p54
S"<method-wrapper '__hash__' of exceptions.AttributeError object>"
p55
ssS'evalue'
p56
S''
sS'request'
p57
cgluon.html
XML_unpickle
p58
(S's\xccd\x00\x00<div><table><tr><td style="font-weight:bold;vertical-align:top;">ajax</td><td style="vertical-align:top;">:</td><td><div>False</div></td></tr><tr><td style="font-weight:bold;vertical-align:top;">application</td><td style="vertical-align:top;">:</td><td><div>sigulab2</div></td></tr><tr><td style="font-weight:bold;vertical-align:top;">args</td><td style="vertical-align:top;">:</td><td><div><table><tr><td><div>UML2</div></td></tr></table></div></td></tr><tr><td style="font-weight:bold;vertical-align:top;">cid</td><td style="vertical-align:top;">:</td><td><div>None</div></td></tr><tr><td style="font-weight:bold;vertical-align:top;">client</td><td style="vertical-align:top;">:</td><td><div>127.0.0.1</div></td></tr><tr><td style="font-weight:bold;vertical-align:top;">controller</td><td style="vertical-align:top;">:</td><td><div>informacion_documentada</div></td></tr><tr><td style="font-weight:bold;vertical-align:top;">cookies</td><td style="vertical-align:top;">:</td><td><div><table><tr><td style="font-weight:bold;vertical-align:top;">csrftoken</td><td style="vertical-align:top;">:</td><td><div>V5qZDP9RSfIA9t9ZEr3gCjO16Mg6ALevDygMm7MSuBHGoBTDZBL5zIc7kBdYY5Bd<table><tr><td style="font-weight:bold;vertical-align:top;">comment</td><td style="vertical-align:top;">:</td><td><div></div></td></tr><tr><td style="font-weight:bold;vertical-align:top;">domain</td><td style="vertical-align:top;">:</td><td><div></div></td></tr><tr><td style="font-weight:bold;vertical-align:top;">expires</td><td style="vertical-align:top;">:</td><td><div></div></td></tr><tr><td style="font-weight:bold;vertical-align:top;">httponly</td><td style="vertical-align:top;">:</td><td><div></div></td></tr><tr><td style="font-weight:bold;vertical-align:top;">max-age</td><td style="vertical-align:top;">:</td><td><div></div></td></tr><tr><td style="font-weight:bold;vertical-align:top;">path</td><td style="vertical-align:top;">:</td><td><div></div></td></tr><tr><td style="font-weight:bold;vertical-align:top;">secure</td><td style="vertical-align:top;">:</td><td><div></div></td></tr><tr><td style="font-weight:bold;vertical-align:top;">version</td><td style="vertical-align:top;">:</td><td><div></div></td></tr></table></div></td></tr><tr><td style="font-weight:bold;vertical-align:top;">session_id_admin</td><td style="vertical-align:top;">:</td><td><div>127.0.0.1-49fb89b1-7c4b-44bf-aef9-ad6912710eac<table><tr><td style="font-weight:bold;vertical-align:top;">comment</td><td style="vertical-align:top;">:</td><td><div></div></td></tr><tr><td style="font-weight:bold;vertical-align:top;">domain</td><td style="vertical-align:top;">:</td><td><div></div></td></tr><tr><td style="font-weight:bold;vertical-align:top;">expires</td><td style="vertical-align:top;">:</td><td><div></div></td></tr><tr><td style="font-weight:bold;vertical-align:top;">httponly</td><td style="vertical-align:top;">:</td><td><div></div></td></tr><tr><td style="font-weight:bold;vertical-align:top;">max-age</td><td style="vertical-align:top;">:</td><td><div></div></td></tr><tr><td style="font-weight:bold;vertical-align:top;">path</td><td style="vertical-align:top;">:</td><td><div></div></td></tr><tr><td style="font-weight:bold;vertical-align:top;">secure</td><td style="vertical-align:top;">:</td><td><div></div></td></tr><tr><td style="font-weight:bold;vertical-align:top;">version</td><td style="vertical-align:top;">:</td><td><div></div></td></tr></table></div></td></tr><tr><td style="font-weight:bold;vertical-align:top;">session_id_sigulab2</td><td style="vertical-align:top;">:</td><td><div>127.0.0.1-3fe23a84-4795-4fd7-9c30-7b3dfa0a539c<table><tr><td style="font-weight:bold;vertical-align:top;">comment</td><td style="vertical-align:top;">:</td><td><div></div></td></tr><tr><td style="font-weight:bold;vertical-align:top;">domain</td><td style="vertical-align:top;">:</td><td><div></div></td></tr><tr><td style="font-weight:bold;vertical-align:top;">expires</td><td style="vertical-align:top;">:</td><td><div></div></td></tr><tr><td style="font-weight:bold;vertical-align:top;">httponly</td><td style="vertical-align:top;">:</td><td><div></div></td></tr><tr><td style="font-weight:bold;vertical-align:top;">max-age</td><td style="vertical-align:top;">:</td><td><div></div></td></tr><tr><td style="font-weight:bold;vertical-align:top;">path</td><td style="vertical-align:top;">:</td><td><div></div></td></tr><tr><td style="font-weight:bold;vertical-align:top;">secure</td><td style="vertical-align:top;">:</td><td><div></div></td></tr><tr><td style="font-weight:bold;vertical-align:top;">version</td><td style="vertical-align:top;">:</td><td><div></div></td></tr></table></div></td></tr><tr><td style="font-weight:bold;vertical-align:top;">session_id_welcome</td><td style="vertical-align:top;">:</td><td><div>127.0.0.1-6807927a-da3a-46f7-8714-e3a87c8f9447<table><tr><td style="font-weight:bold;vertical-align:top;">comment</td><td style="vertical-align:top;">:</td><td><div></div></td></tr><tr><td style="font-weight:bold;vertical-align:top;">domain</td><td style="vertical-align:top;">:</td><td><div></div></td></tr><tr><td style="font-weight:bold;vertical-align:top;">expires</td><td style="vertical-align:top;">:</td><td><div></div></td></tr><tr><td style="font-weight:bold;vertical-align:top;">httponly</td><td style="vertical-align:top;">:</td><td><div></div></td></tr><tr><td style="font-weight:bold;vertical-align:top;">max-age</td><td style="vertical-align:top;">:</td><td><div></div></td></tr><tr><td style="font-weight:bold;vertical-align:top;">path</td><td style="vertical-align:top;">:</td><td><div></div></td></tr><tr><td style="font-weight:bold;vertical-align:top;">secure</td><td style="vertical-align:top;">:</td><td><div></div></td></tr><tr><td style="font-weight:bold;vertical-align:top;">version</td><td style="vertical-align:top;">:</td><td><div></div></td></tr></table></div></td></tr></table></div></td></tr><tr><td style="font-weight:bold;vertical-align:top;">env</td><td style="vertical-align:top;">:</td><td><div><table><tr><td style="font-weight:bold;vertical-align:top;">HTTP_ACCEPT</td><td style="vertical-align:top;">:</td><td><div>text/html,application/xhtml+xml,application/xml;q=0.9,image/webp,image/apng,*/*;q=0.8</div></td></tr><tr><td style="font-weight:bold;vertical-align:top;">HTTP_ACCEPT_ENCODING</td><td style="vertical-align:top;">:</td><td><div>gzip, deflate, br</div></td></tr><tr><td style="font-weight:bold;vertical-align:top;">HTTP_ACCEPT_LANGUAGE</td><td style="vertical-align:top;">:</td><td><div>es-419,es;q=0.9</div></td></tr><tr><td style="font-weight:bold;vertical-align:top;">HTTP_CACHE_CONTROL</td><td style="vertical-align:top;">:</td><td><div>max-age=0</div></td></tr><tr><td style="font-weight:bold;vertical-align:top;">HTTP_CONNECTION</td><td style="vertical-align:top;">:</td><td><div>keep-alive</div></td></tr><tr><td style="font-weight:bold;vertical-align:top;">HTTP_COOKIE</td><td style="vertical-align:top;">:</td><td><div>csrftoken=V5qZDP9RSfIA9t9ZEr3gCjO16Mg6ALevDygMm7MSuBHGoBTDZBL5zIc7kBdYY5Bd; session_id_admin=127.0.0.1-49fb89b1-7c4b-44bf-aef9-ad6912710eac; session_id_welcome=127.0.0.1-6807927a-da3a-46f7-8714-e3a87c8f9447; session_id_sigulab2=127.0.0.1-3fe23a84-4795-4fd7-9c30-7b3dfa0a539c</div></td></tr><tr><td style="font-weight:bold;vertical-align:top;">HTTP_HOST</td><td style="vertical-align:top;">:</td><td><div>127.0.0.1:8000</div></td></tr><tr><td style="font-weight:bold;vertical-align:top;">HTTP_REFERER</td><td style="vertical-align:top;">:</td><td><div>http://127.0.0.1:8000/sigulab2/informacion_documentada/lista_documentos</div></td></tr><tr><td style="font-weight:bold;vertical-align:top;">HTTP_UPGRADE_INSECURE_REQUESTS</td><td style="vertical-align:top;">:</td><td><div>1</div></td></tr><tr><td style="font-weight:bold;vertical-align:top;">HTTP_USER_AGENT</td><td style="vertical-align:top;">:</td><td><div>Mozilla/5.0 (X11; Linux i686) AppleWebKit/537.36 (KHTML, like Gecko) Ubuntu Chromium/63.0.3239.84 Chrome/63.0.3239.84 Safari/537.36</div></td></tr><tr><td style="font-weight:bold;vertical-align:top;">PATH_INFO</td><td style="vertical-align:top;">:</td><td><div>/sigulab2/informacion_documentada/ficha/UML2</div></td></tr><tr><td style="font-weight:bold;vertical-align:top;">QUERY_STRING</td><td style="vertical-align:top;">:</td><td><div></div></td></tr><tr><td style="font-weight:bold;vertical-align:top;">REMOTE_ADDR</td><td style="vertical-align:top;">:</td><td><div>127.0.0.1</div></td></tr><tr><td style="font-weight:bold;vertical-align:top;">REMOTE_PORT</td><td style="vertical-align:top;">:</td><td><div>56876</div></td></tr><tr><td style="font-weight:bold;vertical-align:top;">REQUEST_METHOD</td><td style="vertical-align:top;">:</td><td><div>GET</div></td></tr><tr><td style="font-weight:bold;vertical-align:top;">SCRIPT_NAME</td><td style="vertical-align:top;">:</td><td><div></div></td></tr><tr><td style="font-weight:bold;vertical-align:top;">SERVER_NAME</td><td style="vertical-align:top;">:</td><td><div>nairelys-VIT-P2402</div></td></tr><tr><td style="font-weight:bold;vertical-align:top;">SERVER_PORT</td><td style="vertical-align:top;">:</td><td><div>8000</div></td></tr><tr><td style="font-weight:bold;vertical-align:top;">SERVER_PROTOCOL</td><td style="vertical-align:top;">:</td><td><div>HTTP/1.1</div></td></tr><tr><td style="font-weight:bold;vertical-align:top;">SERVER_SOFTWARE</td><td style="vertical-align:top;">:</td><td><div>Rocket 1.2.6</div></td></tr><tr><td style="font-weight:bold;vertical-align:top;">app_folders</td><td style="vertical-align:top;">:</td><td><div>set([&#x27;/home/nairelys/Descargas/Sigulab/web2py/applications/admin/&#x27;, &#x27;/home/nairelys/Descargas/Sigulab/web2py/applications/welcome/&#x27;, &#x27;/home/nairelys/Descargas/Sigulab/web2py/applications/sigulab2/&#x27;])</div></td></tr><tr><td style="font-weight:bold;vertical-align:top;">applications_parent</td><td style="vertical-align:top;">:</td><td><div>/home/nairelys/Descargas/Sigulab/web2py</div></td></tr><tr><td style="font-weight:bold;vertical-align:top;">cmd_args</td><td style="vertical-align:top;">:</td><td><div><table></table></div></td></tr><tr><td style="font-weight:bold;vertical-align:top;">cmd_options</td><td style="vertical-align:top;">:</td><td><div>&lt;Values at 0xb4962cec: {&#x27;verbose&#x27;: False, &#x27;ip&#x27;: &#x27;127.0.0.1&#x27;, &#x27;debuglevel&#x27;: 30, &#x27;with_scheduler&#x27;: False, &#x27;shutdown_timeout&#x27;: 5, &#x27;taskbar&#x27;: False, &#x27;with_coverage&#x27;: False, &#x27;pid_filename&#x27;: &#x27;httpserver.pid&#x27;, &#x27;maxthreads&#x27;: None, &#x27;softcron&#x27;: False, &#x27;server_name&#x27;: &#x27;nairelys-VIT-P2402&#x27;, &#x27;bpython&#x27;: False, &#x27;nogui&#x27;: False, &#x27;port&#x27;: 8000, &#x27;print_errors&#x27;: False, &#x27;extcron&#x27;: False, &#x27;runcron&#x27;: False, &#x27;run_system_tests&#x27;: False, &#x27;test&#x27;: None, &#x27;folder&#x27;: &#x27;/home/nairelys/Descargas/Sigulab/web2py&#x27;, &#x27;config&#x27;: &#x27;&#x27;, &#x27;minthreads&#x27;: None, &#x27;shell&#x27;: None, &#x27;run&#x27;: &#x27;&#x27;, &#x27;log_filename&#x27;: &#x27;httpserver.log&#x27;, &#x27;profiler_dir&#x27;: None, &#x27;args&#x27;: [&#x27;&#x27;], &#x27;socket_timeout&#x27;: 5, &#x27;ssl_ca_certificate&#x27;: None, &#x27;scheduler&#x27;: None, &#x27;interfaces&#x27;: None, &#x27;ssl_private_key&#x27;: &#x27;&#x27;, &#x27;gae&#x27;: None, &#x27;password&#x27;: &#x27;******&#x27;, &#x27;request_queue_size&#x27;: 5, &#x27;ssl_certificate&#x27;: &#x27;&#x27;, &#x27;cronjob&#x27;: False, &#x27;numthreads&#x27;: None, &#x27;quiet&#x27;: False, &#x27;import_models&#x27;: False, &#x27;timeout&#x27;: 10, &#x27;plain&#x27;: False, &#x27;nobanner&#x27;: False}&gt;</div></td></tr><tr><td style="font-weight:bold;vertical-align:top;">db_sessions</td><td style="vertical-align:top;">:</td><td><div>set([])</div></td></tr><tr><td style="font-weight:bold;vertical-align:top;">debugging</td><td style="vertical-align:top;">:</td><td><div>False</div></td></tr><tr><td style="font-weight:bold;vertical-align:top;">gluon_parent</td><td style="vertical-align:top;">:</td><td><div>/home/nairelys/Descargas/Sigulab/web2py</div></td></tr><tr><td style="font-weight:bold;vertical-align:top;">http_accept</td><td style="vertical-align:top;">:</td><td><div>text/html,application/xhtml+xml,application/xml;q=0.9,image/webp,image/apng,*/*;q=0.8</div></td></tr><tr><td style="font-weight:bold;vertical-align:top;">http_accept_encoding</td><td style="vertical-align:top;">:</td><td><div>gzip, deflate, br</div></td></tr><tr><td style="font-weight:bold;vertical-align:top;">http_accept_language</td><td style="vertical-align:top;">:</td><td><div>es-419,es;q=0.9</div></td></tr><tr><td style="font-weight:bold;vertical-align:top;">http_cache_control</td><td style="vertical-align:top;">:</td><td><div>max-age=0</div></td></tr><tr><td style="font-weight:bold;vertical-align:top;">http_connection</td><td style="vertical-align:top;">:</td><td><div>keep-alive</div></td></tr><tr><td style="font-weight:bold;vertical-align:top;">http_cookie</td><td style="vertical-align:top;">:</td><td><div>csrftoken=V5qZDP9RSfIA9t9ZEr3gCjO16Mg6ALevDygMm7MSuBHGoBTDZBL5zIc7kBdYY5Bd; session_id_admin=127.0.0.1-49fb89b1-7c4b-44bf-aef9-ad6912710eac; session_id_welcome=127.0.0.1-6807927a-da3a-46f7-8714-e3a87c8f9447; session_id_sigulab2=127.0.0.1-3fe23a84-4795-4fd7-9c30-7b3dfa0a539c</div></td></tr><tr><td style="font-weight:bold;vertical-align:top;">http_host</td><td style="vertical-align:top;">:</td><td><div>127.0.0.1:8000</div></td></tr><tr><td style="font-weight:bold;vertical-align:top;">http_referer</td><td style="vertical-align:top;">:</td><td><div>http://127.0.0.1:8000/sigulab2/informacion_documentada/lista_documentos</div></td></tr><tr><td style="font-weight:bold;vertical-align:top;">http_upgrade_insecure_requests</td><td style="vertical-align:top;">:</td><td><div>1</div></td></tr><tr><td style="font-weight:bold;vertical-align:top;">http_user_agent</td><td style="vertical-align:top;">:</td><td><div>Mozilla/5.0 (X11; Linux i686) AppleWebKit/537.36 (KHTML, like Gecko) Ubuntu Chromium/63.0.3239.84 Chrome/63.0.3239.84 Safari/537.36</div></td></tr><tr><td style="font-weight:bold;vertical-align:top;">is_jython</td><td style="vertical-align:top;">:</td><td><div>False</div></td></tr><tr><td style="font-weight:bold;vertical-align:top;">is_py2</td><td style="vertical-align:top;">:</td><td><div>True</div></td></tr><tr><td style="font-weight:bold;vertical-align:top;">is_pypy</td><td style="vertical-align:top;">:</td><td><div>False</div></td></tr><tr><td style="font-weight:bold;vertical-align:top;">is_source</td><td style="vertical-align:top;">:</td><td><div>True</div></td></tr><tr><td style="font-weight:bold;vertical-align:top;">local_hosts</td><td style="vertical-align:top;">:</td><td><div><table><tr><td><div>nairelys-VIT-P2402</div></td></tr><tr><td><div>::1</div></td></tr><tr><td><div>127.0.1.1</div></td></tr><tr><td><div>::ffff:127.0.0.1</div></td></tr><tr><td><div>127.0.0.1</div></td></tr></table></div></td></tr><tr><td style="font-weight:bold;vertical-align:top;">path_info</td><td style="vertical-align:top;">:</td><td><div>/sigulab2/informacion_documentada/ficha/UML2</div></td></tr><tr><td style="font-weight:bold;vertical-align:top;">query_string</td><td style="vertical-align:top;">:</td><td><div></div></td></tr><tr><td style="font-weight:bold;vertical-align:top;">remote_addr</td><td style="vertical-align:top;">:</td><td><div>127.0.0.1</div></td></tr><tr><td style="font-weight:bold;vertical-align:top;">remote_port</td><td style="vertical-align:top;">:</td><td><div>56876</div></td></tr><tr><td style="font-weight:bold;vertical-align:top;">request_method</td><td style="vertical-align:top;">:</td><td><div>GET</div></td></tr><tr><td style="font-weight:bold;vertical-align:top;">request_uri</td><td style="vertical-align:top;">:</td><td><div>/sigulab2/informacion_documentada/ficha/UML2</div></td></tr><tr><td style="font-weight:bold;vertical-align:top;">script_name</td><td style="vertical-align:top;">:</td><td><div></div></td></tr><tr><td style="font-weight:bold;vertical-align:top;">server_name</td><td style="vertical-align:top;">:</td><td><div>nairelys-VIT-P2402</div></td></tr><tr><td style="font-weight:bold;vertical-align:top;">server_port</td><td style="vertical-align:top;">:</td><td><div>8000</div></td></tr><tr><td style="font-weight:bold;vertical-align:top;">server_protocol</td><td style="vertical-align:top;">:</td><td><div>HTTP/1.1</div></td></tr><tr><td style="font-weight:bold;vertical-align:top;">server_software</td><td style="vertical-align:top;">:</td><td><div>Rocket 1.2.6</div></td></tr><tr><td style="font-weight:bold;vertical-align:top;">web2py_path</td><td style="vertical-align:top;">:</td><td><div>/home/nairelys/Descargas/Sigulab/web2py</div></td></tr><tr><td style="font-weight:bold;vertical-align:top;">web2py_version</td><td style="vertical-align:top;">:</td><td><div>2.15.4-stable+timestamp.2017.09.02.04.02.22</div></td></tr><tr><td style="font-weight:bold;vertical-align:top;">wsgi.errors</td><td style="vertical-align:top;">:</td><td><div>&lt;open file &#x27;&lt;stderr&gt;&#x27;, mode &#x27;w&#x27; at 0xb74e30d0&gt;</div></td></tr><tr><td style="font-weight:bold;vertical-align:top;">wsgi.file_wrapper</td><td style="vertical-align:top;">:</td><td><div>&lt;class wsgiref.util.FileWrapper at 0xb6e17b3c&gt;</div></td></tr><tr><td style="font-weight:bold;vertical-align:top;">wsgi.input</td><td style="vertical-align:top;">:</td><td><div>&lt;socket._fileobject object at 0xac6c13ec&gt;</div></td></tr><tr><td style="font-weight:bold;vertical-align:top;">wsgi.multiprocess</td><td style="vertical-align:top;">:</td><td><div>False</div></td></tr><tr><td style="font-weight:bold;vertical-align:top;">wsgi.multithread</td><td style="vertical-align:top;">:</td><td><div>True</div></td></tr><tr><td style="font-weight:bold;vertical-align:top;">wsgi.run_once</td><td style="vertical-align:top;">:</td><td><div>False</div></td></tr><tr><td style="font-weight:bold;vertical-align:top;">wsgi.url_scheme</td><td style="vertical-align:top;">:</td><td><div>http</div></td></tr><tr><td style="font-weight:bold;vertical-align:top;">wsgi.version</td><td style="vertical-align:top;">:</td><td><div><table><tr><td><div>1</div></td></tr><tr><td><div>0</div></td></tr></table></div></td></tr><tr><td style="font-weight:bold;vertical-align:top;">wsgi_errors</td><td style="vertical-align:top;">:</td><td><div>&lt;open file &#x27;&lt;stderr&gt;&#x27;, mode &#x27;w&#x27; at 0xb74e30d0&gt;</div></td></tr><tr><td style="font-weight:bold;vertical-align:top;">wsgi_file_wrapper</td><td style="vertical-align:top;">:</td><td><div>&lt;class wsgiref.util.FileWrapper at 0xb6e17b3c&gt;</div></td></tr><tr><td style="font-weight:bold;vertical-align:top;">wsgi_input</td><td style="vertical-align:top;">:</td><td><div>&lt;socket._fileobject object at 0xac6c13ec&gt;</div></td></tr><tr><td style="font-weight:bold;vertical-align:top;">wsgi_multiprocess</td><td style="vertical-align:top;">:</td><td><div>False</div></td></tr><tr><td style="font-weight:bold;vertical-align:top;">wsgi_multithread</td><td style="vertical-align:top;">:</td><td><div>True</div></td></tr><tr><td style="font-weight:bold;vertical-align:top;">wsgi_run_once</td><td style="vertical-align:top;">:</td><td><div>False</div></td></tr><tr><td style="font-weight:bold;vertical-align:top;">wsgi_url_scheme</td><td style="vertical-align:top;">:</td><td><div>http</div></td></tr><tr><td style="font-weight:bold;vertical-align:top;">wsgi_version</td><td style="vertical-align:top;">:</td><td><div><table><tr><td><div>1</div></td></tr><tr><td><div>0</div></td></tr></table></div></td></tr></table></div></td></tr><tr><td style="font-weight:bold;vertical-align:top;">extension</td><td style="vertical-align:top;">:</td><td><div>html</div></td></tr><tr><td style="font-weight:bold;vertical-align:top;">folder</td><td style="vertical-align:top;">:</td><td><div>/home/nairelys/Descargas/Sigulab/web2py/applications/sigulab2/</div></td></tr><tr><td style="font-weight:bold;vertical-align:top;">function</td><td style="vertical-align:top;">:</td><td><div>ficha</div></td></tr><tr><td style="font-weight:bold;vertical-align:top;">global_settings</td><td style="vertical-align:top;">:</td><td><div><table><tr><td style="font-weight:bold;vertical-align:top;">app_folders</td><td style="vertical-align:top;">:</td><td><div>set([&#x27;/home/nairelys/Descargas/Sigulab/web2py/applications/admin/&#x27;, &#x27;/home/nairelys/Descargas/Sigulab/web2py/applications/welcome/&#x27;, &#x27;/home/nairelys/Descargas/Sigulab/web2py/applications/sigulab2/&#x27;])</div></td></tr><tr><td style="font-weight:bold;vertical-align:top;">applications_parent</td><td style="vertical-align:top;">:</td><td><div>/home/nairelys/Descargas/Sigulab/web2py</div></td></tr><tr><td style="font-weight:bold;vertical-align:top;">cmd_args</td><td style="vertical-align:top;">:</td><td><div><table></table></div></td></tr><tr><td style="font-weight:bold;vertical-align:top;">cmd_options</td><td style="vertical-align:top;">:</td><td><div>&lt;Values at 0xb4962cec: {&#x27;verbose&#x27;: False, &#x27;ip&#x27;: &#x27;127.0.0.1&#x27;, &#x27;debuglevel&#x27;: 30, &#x27;with_scheduler&#x27;: False, &#x27;shutdown_timeout&#x27;: 5, &#x27;taskbar&#x27;: False, &#x27;with_coverage&#x27;: False, &#x27;pid_filename&#x27;: &#x27;httpserver.pid&#x27;, &#x27;maxthreads&#x27;: None, &#x27;softcron&#x27;: False, &#x27;server_name&#x27;: &#x27;nairelys-VIT-P2402&#x27;, &#x27;bpython&#x27;: False, &#x27;nogui&#x27;: False, &#x27;port&#x27;: 8000, &#x27;print_errors&#x27;: False, &#x27;extcron&#x27;: False, &#x27;runcron&#x27;: False, &#x27;run_system_tests&#x27;: False, &#x27;test&#x27;: None, &#x27;folder&#x27;: &#x27;/home/nairelys/Descargas/Sigulab/web2py&#x27;, &#x27;config&#x27;: &#x27;&#x27;, &#x27;minthreads&#x27;: None, &#x27;shell&#x27;: None, &#x27;run&#x27;: &#x27;&#x27;, &#x27;log_filename&#x27;: &#x27;httpserver.log&#x27;, &#x27;profiler_dir&#x27;: None, &#x27;args&#x27;: [&#x27;&#x27;], &#x27;socket_timeout&#x27;: 5, &#x27;ssl_ca_certificate&#x27;: None, &#x27;scheduler&#x27;: None, &#x27;interfaces&#x27;: None, &#x27;ssl_private_key&#x27;: &#x27;&#x27;, &#x27;gae&#x27;: None, &#x27;password&#x27;: &#x27;******&#x27;, &#x27;request_queue_size&#x27;: 5, &#x27;ssl_certificate&#x27;: &#x27;&#x27;, &#x27;cronjob&#x27;: False, &#x27;numthreads&#x27;: None, &#x27;quiet&#x27;: False, &#x27;import_models&#x27;: False, &#x27;timeout&#x27;: 10, &#x27;plain&#x27;: False, &#x27;nobanner&#x27;: False}&gt;</div></td></tr><tr><td style="font-weight:bold;vertical-align:top;">db_sessions</td><td style="vertical-align:top;">:</td><td><div>set([])</div></td></tr><tr><td style="font-weight:bold;vertical-align:top;">debugging</td><td style="vertical-align:top;">:</td><td><div>False</div></td></tr><tr><td style="font-weight:bold;vertical-align:top;">gluon_parent</td><td style="vertical-align:top;">:</td><td><div>/home/nairelys/Descargas/Sigulab/web2py</div></td></tr><tr><td style="font-weight:bold;vertical-align:top;">is_jython</td><td style="vertical-align:top;">:</td><td><div>False</div></td></tr><tr><td style="font-weight:bold;vertical-align:top;">is_py2</td><td style="vertical-align:top;">:</td><td><div>True</div></td></tr><tr><td style="font-weight:bold;vertical-align:top;">is_pypy</td><td style="vertical-align:top;">:</td><td><div>False</div></td></tr><tr><td style="font-weight:bold;vertical-align:top;">is_source</td><td style="vertical-align:top;">:</td><td><div>True</div></td></tr><tr><td style="font-weight:bold;vertical-align:top;">local_hosts</td><td style="vertical-align:top;">:</td><td><div><table><tr><td><div>nairelys-VIT-P2402</div></td></tr><tr><td><div>::1</div></td></tr><tr><td><div>127.0.1.1</div></td></tr><tr><td><div>::ffff:127.0.0.1</div></td></tr><tr><td><div>127.0.0.1</div></td></tr></table></div></td></tr><tr><td style="font-weight:bold;vertical-align:top;">web2py_version</td><td style="vertical-align:top;">:</td><td><div>2.15.4-stable+timestamp.2017.09.02.04.02.22</div></td></tr></table></div></td></tr><tr><td style="font-weight:bold;vertical-align:top;">is_https</td><td style="vertical-align:top;">:</td><td><div>False</div></td></tr><tr><td style="font-weight:bold;vertical-align:top;">is_local</td><td style="vertical-align:top;">:</td><td><div>True</div></td></tr><tr><td style="font-weight:bold;vertical-align:top;">is_restful</td><td style="vertical-align:top;">:</td><td><div>False</div></td></tr><tr><td style="font-weight:bold;vertical-align:top;">is_scheduler</td><td style="vertical-align:top;">:</td><td><div>False</div></td></tr><tr><td style="font-weight:bold;vertical-align:top;">is_shell</td><td style="vertical-align:top;">:</td><td><div>False</div></td></tr><tr><td style="font-weight:bold;vertical-align:top;">now</td><td style="vertical-align:top;">:</td><td><div>datetime.datetime(2018, 6, 18, 0, 10, 34, 752760)</div></td></tr><tr><td style="font-weight:bold;vertical-align:top;">raw_args</td><td style="vertical-align:top;">:</td><td><div>UML2</div></td></tr><tr><td style="font-weight:bold;vertical-align:top;">raw_extension</td><td style="vertical-align:top;">:</td><td><div>None</div></td></tr><tr><td style="font-weight:bold;vertical-align:top;">url</td><td style="vertical-align:top;">:</td><td><div>/sigulab2/informacion_documentada/ficha/UML2</div></td></tr><tr><td style="font-weight:bold;vertical-align:top;">utcnow</td><td style="vertical-align:top;">:</td><td><div>datetime.datetime(2018, 6, 18, 4, 10, 34, 752800)</div></td></tr><tr><td style="font-weight:bold;vertical-align:top;">wsgi</td><td style="vertical-align:top;">:</td><td><div>&lt;gluon.main.LazyWSGI object at 0xabf4f5cc&gt;</div></td></tr></table></div>'
tRp59
sS'frames'
p60
(lp61
(dp62
S'file'
p63
S'/home/nairelys/Descargas/Sigulab/web2py/gluon/restricted.py'
p64
sS'dump'
p65
(dp66
S'environment'
p67
S"{'A': <class 'gluon.html.A'>, 'ANY_OF': <class 'gluon.validators.ANY_OF'>, 'ASSIGNJS': <function ASSIGNJS>, 'AppConfig': <function AppConfig>, 'Auth': <class 'gluon.tools.Auth'>, 'B': <class 'gluon.html.B'>, 'BEAUTIFY': <class 'gluon.html.BEAUTIFY'>, 'BODY': <class 'gluon.html.BODY'>, 'BR': <class 'gluon.html.BR'>, 'BUTTON': <class 'gluon.html.BUTTON'>, ...}"
p68
sS'ccode'
p69
S'<code object <module> at 0xb035a068, file "/home...iews/informacion_documentada/ficha.html", line 1>'
p70
ssS'lnum'
p71
I219
sS'lines'
p72
(dp73
I214
S'    if environment is None:'
p74
sI215
S'        environment = {}'
p75
sI216
S"    environment['__file__'] = layer"
p76
sI217
S"    environment['__name__'] = '__restricted__'"
p77
sI218
S'    try:'
p78
sI219
S'        exec(ccode, environment)'
p79
sI220
S'    except HTTP:'
p80
sI221
S'        raise'
p81
sI222
S'    except RestrictedError:'
p82
sI223
S'        # do not encapsulate (obfuscate) the original RestrictedError'
p83
ssS'call'
p84
S'(ccode=<code object <module> at 0xb035a068, file "/home...iews/informacion_documentada/ficha.html", line 1>, environment={\'A\': <class \'gluon.html.A\'>, \'ANY_OF\': <class \'gluon.validators.ANY_OF\'>, \'ASSIGNJS\': <function ASSIGNJS>, \'AppConfig\': <function AppConfig>, \'Auth\': <class \'gluon.tools.Auth\'>, \'B\': <class \'gluon.html.B\'>, \'BEAUTIFY\': <class \'gluon.html.BEAUTIFY\'>, \'BODY\': <class \'gluon.html.BODY\'>, \'BR\': <class \'gluon.html.BR\'>, \'BUTTON\': <class \'gluon.html.BUTTON\'>, ...}, layer=\'/home/nairelys/Descargas/Sigulab/web2py/applicat...sigulab2/views/informacion_documentada/ficha.html\', scode=\'response.write(\\\'<!DOCTYPE html>\\\\n<html lang="es"... }\\\\n</script>\\\\n</body>\\\\n</html>\\\\n\\\', escape=False)\')'
p85
sS'func'
p86
S'restricted'
p87
sa(dp88
g63
S'/home/nairelys/Descargas/Sigulab/web2py/applications/sigulab2/views/informacion_documentada/ficha.html'
p89
sg65
(dp90
S'style'
p91
S'undefined'
p92
sS'span'
p93
g92
sS'doc.codigo'
p94
S"'UML2'"
p95
sS'doc'
p96
S"<Row {'fecha_rev_por_consejo_asesor': datetime.d...': '', 'codigo': 'UML2', 'ubicacion_fisica': ''}>"
p97
sS'C'
g92
sS'p'
g92
sS'digo'
p98
g92
ssg71
I143
sg72
(dp99
I134
S'    response.write(\'</option>\\n                \\n\\n              </select>\\n                  </div>\\n\\n                  <div class="form-group"> \\n                    <h5>Responsable</h5>\\n                      <select disabled=\\\'\\\' name="responsable" id="responsable" class="input" required>\\n                        <option  value="\', escape=False)'
p100
sI135
S'    response.write(doc.responsable)'
p101
sI136
S'    response.write(\'"> \', escape=False)'
p102
sI137
S'    response.write(doc.responsable)'
p103
sI138
S'    response.write(\'</option>\\n          \\n              </select>\\n                  </div>\\n\\n            <!--<div class="input-group">\\n                      <input type="text" class="input" name="responsable" id="responsable"> \\n                      <label class="label" for="responsable"><i class="lnr lnr-users"></i> Responsable </label>\\n                  </div>-->\\n            \\n            <div class="form-group">\\n                      <h5>Fecha de entrega para revisi\\xc3\\xb3n</h5><input disabled=\\\'\\\' type="date" class="input" name="fecha_prox_rev" id="fecha_prox_rev" value="\', escape=False)'
p104
sI139
S'    response.write(doc.fecha_prox_rev)'
p105
sI140
S'    response.write(\'" required>\\n                  </div>\\n\\n\\n                 <button type="submit" class="btn btn-submit botonForm" id="submit" form="formularioEdit" name="envio" value="edicion" ><i class="fa fa-floppy-o"></i></button>   \\n                      <button type="button" class="btn btn-next edit botonForm"><i class="fa fa-arrow-right"></i></button>\\n                    </fieldset>\\n                    <!-- Fin Primer Paso -->\\n                    \\n                    <!-- Segundo Paso -->\\n                    <fieldset class="formField">\\n                        <div class="form-bottom" data-step="2" data-title="Segundo Paso">\\n                          <!-- Aqui va la barra lateral -->\\n                          <div class="col-sm-1 col1Body">\\n                            <span class="step">1</span>\\n                            <span class="step activePass">2</span>\\n                            <span class="step">3</span>\\n                            <span class="step">4</span> \\n                            <span class="step">5</span>\\n                          </div>\\n\\n                          <!-- Aqui va la informacion -->\\n                          <div class="col-sm-11 col11Body">\\n                          <h4 class="titulosForm">Informaci\\xc3\\xb3n Elaboraci\\xc3\\xb3n</h4>\\n\\n\\n\\n\\n                  \\n                  <div class="form-group">\\n                      <input disabled="" type="text" class="input" name="codigo" id="codigo" placeholder="C\\xc3\\xb3digo Documento" value="\', escape=False)'
p106
sI141
S'    response.write(doc.codigo)'
p107
sI142
S'    response.write(\'" required>\\n                  </div>\\n\\n                  <div class="form-group">\\n                      <input disabled="" type="text" class="input" name="objetivos" id="objetivos" placeholder="Objetivos" value="\', escape=False)'
p108
sI143
S'    response.write(doc.objetivos)'
p109
sI144
S'    response.write(\'" required> \\n                  </div>\\n            <div class="form-group">\\n              <h5>Per\\xc3\\xadodo de Revisi\\xc3\\xb3n</h5>\\n\\n                      <select name="periodo" id="periodo" class="input" required>\\n                <option value=""></option>\\n\\n                <option value="Quincenal">Quincenal</option>\\n                <option value="Mensual">Mensual</option>\\n                <option value="Trimestral">Trimestral</option>\\n                <option value="Semestral">Semestral</option>\\n                <option value="Anual">Anual</option>\\n                <option value="Bienal">Bienal</option>\\n                <option value="Trienal">Trienal</option>\\n\\n              </select> \\n                      \\n                  </div>\\n                  <!--<div class="input-group">\\n\\n                      <input type="number" class="input" name="anexos" id="anexos" min="0" max="30"> \\n\\n                      <label class="label" for="anexos"><i class="lnr lnr-paperclip"></i> Cantidad de Anexos </label>\\n                  </div>-->\\n                  <div class="form-group">\\n                      <input type="text" class="input" name="elaborado" id="elaborado" placeholder="Elaborado por" required="">  \\n                  </div>\\n                            \\n\\n                        <button type="button" class="btn btn-previous botonForm"><i class="fa fa-arrow-left"></i></button>\\n                        <button type="submit" class="btn btn-submit botonForm" id="submit" form="formularioEdit" name="envio" value="edicion" ><i class="fa fa-floppy-o"></i></button>  \\n                        <button type="button" class="btn btn-next botonForm"><i class="fa fa-arrow-right"></i></button>\\n                    </fieldset>\\n                    <!-- Fin Segundo Paso -->\\n\\n                    <!-- Tercer Paso -->\\n                    <fieldset class="formField">\\n                      <div class="form-bottom" data-step="3" data-title="Tercer Paso">\\n                        <!-- Aqui va la barra lateral -->\\n                        <div class="col-sm-1 col1Body">\\n                          <span class="step">1</span>\\n                          <span class="step">2</span>\\n                          <span class="step activePass">3</span>\\n                          <span class="step">4</span>\\n                          <span class="step">5</span> \\n                        </div>\\n                        \\n                        <!-- Aqui va la informacion -->\\n                        <div class="col-sm-11 col11Body">\\n                        <h4 class="titulosForm"> Informaci\\xc3\\xb3n Revisi\\xc3\\xb3n </h4>\\n\\n\\n\\n\\n            <div class="form-group">\\n                      <input type="text" class="input" name="revision_contenido" id="revision_contenido" placeholder="Revisi\\xc3\\xb3n de contenido realizado por:" required>\\n                  </div> \\n                  <div class="form-group">\\n                      <input type="date" class="input" name="fecha_revision_contenidos" id="fecha_revision_contenidos" placeholder="Fecha de registro de revisi\\xc3\\xb3n de contenidos" required> \\n                  </div> \\n                  \\n                  <div class="form-group">\\n                      <input type="text" class="input" name="revision_especificaciones" id="revision_especificaciones" placeholder="Revisi\\xc3\\xb3n de especificaciones del documento realizado por:" required> \\n                  </div> \\n\\n                  <div class="form-group">\\n                      <input type="date" class="input" name="fecha_revision_especificaciones" id="fecha_revision_especificaciones" placeholder="Fecha de revisi\\xc3\\xb3n de especificaciones del documento" required> \\n                  </div> \\n                  <div class="form-group">\\n                      <input type="text" class="input" name="revision_consejo" id="revision_consejo" placeholder="Revisi\\xc3\\xb3n por el Consejo Asesor" required>\\n                  </div> \\n                  <div class="form-group">\\n                      <input type="date" class="input" name="fecha_revision_consejo" id="fecha_revision_consejo" placeholder="Fecha de revisi\\xc3\\xb3n por el Consejo Asesor" required>  \\n                  </div> \\n\\n                  <!--<div class="input-group">\\n\\n\\n                      <input type="text" class="input" name="periodocant" id="periodocant">\\n\\n                      <label class="label" for="periodocant"><i class="lnr lnr-map-redo"></i>Per\\xc3\\xadodo de Revisi\\xc3\\xb3n (cantidad)</label>\\n                  </div>-->\\n\\n\\n\\n                      <button type="button" class="btn btn-previous botonForm"><i class="fa fa-arrow-left"></i></button>\\n                      <button type="submit" class="btn btn-submit botonForm" id="submit" form="formularioEdit" name="envio" value="edicion" ><i class="fa fa-floppy-o"></i></button>  \\n                      <button type="button" class="btn btn-next botonForm"><i class="fa fa-arrow-right"></i></button>\\n                    </fieldset>\\n                    <!-- Fin Tercer Paso -->\\n\\n                    <!-- Cuarto Paso -->\\n                    <fieldset class="formField">\\n                      <div class="form-bottom" data-step="4" data-title="Cuarto Paso">\\n                      <!-- Aqui va la barra lateral -->\\n                        <div class="col-sm-1 col1Body">\\n                          <span class="step">1</span>\\n                          <span class="step">2</span>\\n                          <span class="step">3</span>\\n                          <span class="step activePass">4</span>\\n                          <span class="step">5</span> \\n                        </div>\\n\\n                      <!-- Aqui va la informacion -->\\n                        <div class="col-sm-11 col11Body" >\\n                        <h4 class="titulosForm"> Aprobado </h4>\\n\\n\\n\\n                  <div class="form-group">\\n                      <input type="text" class="input" name="aprobado" id="aprobado" placeholder="Aprobado Por:"> \\n                  </div>\\n                  <div class="form-group">\\n              <input type="date" class="input" name="fechaAprobacion" id="fechaAprobacion" placeholder="Fecha de Aprobaci\\xc3\\xb3n"> \\n            </div>  \\n                  <div class="form-group">\\n                      <input type="text" class="input" name="cod_registro" id="cod_registro" placeholder="C\\xc3\\xb3digo de Registro de Aprobacion"> \\n                  </div>\\n                   <div class="form-group">\\n                      <input type="text" class="input" name="cod_controlCambios" id="cod_controlCambios" placeholder="Cod Registro de control de cambios"> \\n                  </div>\\n\\n                  <div class="form-group">\\n                      <input type="date" class="input" name="fechaControlCambios" id="fechaControlCambios" placeholder="Fecha de reg de control de cambios"> \\n                  </div>\\n              \\n                      \\n                      <button type="button" class="btn btn-previous botonForm"><i class="fa fa-arrow-left"></i></button>\\n                      <button type="submit" class="btn btn-submit botonForm" id="submit" form="formularioEdit" name="envio" value="edicion" ><i class="fa fa-floppy-o"></i></button>  \\n                      <button type="button" class="btn btn-next botonForm"><i class="fa fa-arrow-right"></i></button>\\n\\n                    </fieldset>\\n                    <!-- Fin Cuarto Paso -->\\n\\n                    <!-- Quinto Paso -->\\n                    <fieldset class="formField">\\n                      <div class="form-bottom" data-step="5" data-title="Quinto Paso">\\n                      <!-- Aqui va la barra lateral -->\\n                        <div class="col-sm-1 col1Body">\\n                          <span class="step ready">1</span>\\n                          <span class="step ready">2</span>\\n                          <span class="step ready">3</span>\\n                          <span class="step ready">4</span> \\n                          <span class="step activePass">5</span>\\n                        </div>\\n\\n                      <!-- Aqui va la informacion -->\\n                        <div class="col-sm-11 col11Body" >\\n\\n                        <h4 class="titulosForm">Ubicaci\\xc3\\xb3n del Documento</h4>\\n\\n\\n\\n\\n\\n                  <div class="form-group">\\n                      <input type="text" class="input" name="ubicacion_fisica" id="ubicacion_fisica" placeholder="Ubicaci\\xc3\\xb3n f\\xc3\\xadsica del documento">\\n                      \\n                  </div>  \\n                  <div class="form-group">\\n                      <input type="text" class="input" name="archivo_el" id="archivo_el" placeholder="Archivo electr\\xc3\\xb3nico"> \\n                  </div>\\n                  <div class="form-group">\\n                      <input type="text" class="input" name="carpeta_el" id="carpeta_el" placeholder="Carpeta electr\\xc3\\xb3nica"> \\n                  </div>\\n\\n\\n\\n\\n\\n                      <button type="button" class="btn btn-previous botonForm"><i class="fa fa-arrow-left"></i></button>\\n                      <button type="submit" class="btn btn-submit botonForm" id="submit" form="formularioEdit" name="envio" value="edicion" ><i class="fa fa-floppy-o"></i></button>  \\n                     \\n                    </fieldset>\\n                    <!-- Fin Quinto Paso -->\\n\\n\\n                </form>\\n            </div>\\n          </div>               \\n        </div>\\n      </div>\\n  \\n    </div>\\n  </div>\\n\\n\\n\\n\\n\\n\\n\\n\\n\\n  \', escape=False)'
p110
sI145
S'    pass'
p111
sI146
S'response.write(\'\\n  <script>\\nfunction estatus(){\\n\\n      if($(\\\'.form-group\\\').data(\\\'atributo\\\')==\\\'Aprobado\\\'){\\n\\n        jQuery(\\\'#nombre_documento\\\').removeAttr(\\\'disabled\\\')\\n      }/*else if($(\\\'#adddoc\\\').data(\\\'atributo\\\')==\\\'Elaborado\\\'){\\n\\n      }else if($(\\\'#adddoc\\\').data(\\\'atributo\\\')==\\\'Revisado\\\'){\\n        \\n      }else if($(\\\'.form-group\\\').data(\\\'atributo\\\')==\\\'Aprobado\\\'){\\n        print()\\n        jQuery(\\\'#prueba\\\').removeAttr(\\\'disabled\\\')\\n        \\n      }*/\\n    }\\n\\n  </script>\\n  <script src=\\\'https://cdnjs.cloudflare.com/ajax/libs/jquery/3.3.1/jquery.min.js\\\'></script>\\n  <script type="text/javascript">\\n    var ficha = "\', escape=False)'
p112
sI147
S"response.write(URL('informacion_documentada','ficha',args=[doc.codigo]))"
p113
sI148
S'response.write(\'";\\n    $(\\\'.tab-link\\\').click( function() {\\n    \\n    var tabID = $(this).attr(\\\'data-tab\\\');\\n    \\n    $(this).addClass(\\\'active\\\').siblings().removeClass(\\\'active\\\');\\n    \\n    $(\\\'#tab-\\\'+tabID).addClass(\\\'active\\\').siblings().removeClass(\\\'active\\\');\\n  });\\n  </script>\\n  <script type="text/javascript">\\n    // Get the modal\\n    var modal = document.getElementById(\\\'adddoc\\\');\\n\\n    // Get the button that opens the modal\\n    var btn = document.getElementById("botonModal");\\n\\n    // Get the <span> element that closes the modal\\n    var span = document.getElementsByClassName("close")[0];\\n\\n    // When the user clicks on the button, open the modal \\n    btn.onclick = function() {\\n        modal.style.display = "block";\\n    }\\n\\n    // When the user clicks on <span> (x), close the modal\\n    span.onclick = function() {\\n        modal.style.display = "none";\\n    }\\n\\n    // When the user clicks anywhere outside of the modal, close it\\n    window.onclick = function(event) {\\n        if (event.target == modal) {\\n            modal.style.display = "none";\\n        }\\n    }\\n\\n    $(\\\'#edit_send\\\').click(function(event){\\n        window.reload();\\n    });\\n  </script>\\n<script src=\\\'https://cdnjs.cloudflare.com/ajax/libs/jquery/3.3.1/jquery.min.js\\\'></script>\\n<script src="\', escape=False)'
p114
sI149
S"response.write(URL('static','js/agregarDoc.js'))"
p115
sI150
S'response.write(\'"></script>\\n\', escape=False)'
p116
sI151
S'response.write(\'\\n\\n<script type="text/javascript">\\n  if(window.location.pathname.includes(\\\'personal\\\')){\\n    $(\\\'li#personal\\\').addClass("active");\\n  }\\n  else if (window.location.pathname.includes(\\\'servicios\\\')){\\n    $(\\\'li#servicios\\\').addClass("active");\\n  }\\n</script>\\n</body>\\n</html>\\n\', escape=False)'
p117
ssg84
S'()'
p118
sg86
S'<module>'
p119
sa(dp120
g63
S'/home/nairelys/Descargas/Sigulab/web2py/gluon/packages/dal/pydal/objects.py'
p121
sg65
(dp122
S'builtinAttributeError'
p123
S"<type 'exceptions.AttributeError'>"
p124
ssg71
I99
sg72
(dp125
I96
S'        try:'
p126
sI97
S'            return self.__getitem__(k)'
p127
sI98
S'        except KeyError:'
p128
sI99
S'            raise AttributeError'
p129
sI100
S''
sI101
S'    def __copy__(self):'
p130
sI102
S'        return Row(self)'
p131
sI103
S''
sI94
S''
sI95
S'    def __getattr__(self, k):'
p132
ssg84
S"(self=<Row {'fecha_rev_por_consejo_asesor': datetime.d...': '', 'codigo': 'UML2', 'ubicacion_fisica': ''}>, k='objetivos')"
p133
sg86
S'__getattr__'
p134
sasS'pyver'
p135
S'Python 2.7.6: /usr/bin/python (prefix: /usr)'
p136
sS'session'
p137
g58
(S's\xe4\x07\x00\x00<div><table><tr><td style="font-weight:bold;vertical-align:top;">auth</td><td style="vertical-align:top;">:</td><td><div><table><tr><td style="font-weight:bold;vertical-align:top;">expiration</td><td style="vertical-align:top;">:</td><td><div>3600</div></td></tr><tr><td style="font-weight:bold;vertical-align:top;">hmac_key</td><td style="vertical-align:top;">:</td><td><div>0a93f4ba-bb74-4657-894e-3d434c969e70</div></td></tr><tr><td style="font-weight:bold;vertical-align:top;">last_visit</td><td style="vertical-align:top;">:</td><td><div>datetime.datetime(2018, 6, 18, 0, 9, 26, 540588)</div></td></tr><tr><td style="font-weight:bold;vertical-align:top;">user</td><td style="vertical-align:top;">:</td><td><div><table><tr><td style="font-weight:bold;vertical-align:top;">email</td><td style="vertical-align:top;">:</td><td><div>sigulabusb@gmail.com</div></td></tr><tr><td style="font-weight:bold;vertical-align:top;">first_name</td><td style="vertical-align:top;">:</td><td><div>Super Usuario</div></td></tr><tr><td style="font-weight:bold;vertical-align:top;">id</td><td style="vertical-align:top;">:</td><td><div>1L</div></td></tr><tr><td style="font-weight:bold;vertical-align:top;">last_name</td><td style="vertical-align:top;">:</td><td><div></div></td></tr><tr><td style="font-weight:bold;vertical-align:top;">registration_id</td><td style="vertical-align:top;">:</td><td><div></div></td></tr><tr><td style="font-weight:bold;vertical-align:top;">registration_key</td><td style="vertical-align:top;">:</td><td><div></div></td></tr><tr><td style="font-weight:bold;vertical-align:top;">reset_password_key</td><td style="vertical-align:top;">:</td><td><div></div></td></tr></table></div></td></tr><tr><td style="font-weight:bold;vertical-align:top;">user_groups</td><td style="vertical-align:top;">:</td><td><div><table><tr><td style="font-weight:bold;vertical-align:top;">1</td><td style="vertical-align:top;">:</td><td><div>WEBMASTER</div></td></tr></table></div></td></tr></table></div></td></tr></table></div>'
tRp138
sS'etype'
p139
S"<type 'exceptions.AttributeError'>"
p140
sS'date'
p141
S'Mon Jun 18 00:10:34 2018'
p142
sS'response'
p143
g58
(S's\x0b@\x00\x00<div><table><tr><td style="font-weight:bold;vertical-align:top;">body</td><td style="vertical-align:top;">:</td><td><div>&lt;cStringIO.StringO object at 0xabdd54a0&gt;</div></td></tr><tr><td style="font-weight:bold;vertical-align:top;">cookies</td><td style="vertical-align:top;">:</td><td><div><table><tr><td style="font-weight:bold;vertical-align:top;">session_id_sigulab2</td><td style="vertical-align:top;">:</td><td><div>127.0.0.1-3fe23a84-4795-4fd7-9c30-7b3dfa0a539c<table><tr><td style="font-weight:bold;vertical-align:top;">comment</td><td style="vertical-align:top;">:</td><td><div></div></td></tr><tr><td style="font-weight:bold;vertical-align:top;">domain</td><td style="vertical-align:top;">:</td><td><div></div></td></tr><tr><td style="font-weight:bold;vertical-align:top;">expires</td><td style="vertical-align:top;">:</td><td><div></div></td></tr><tr><td style="font-weight:bold;vertical-align:top;">httponly</td><td style="vertical-align:top;">:</td><td><div></div></td></tr><tr><td style="font-weight:bold;vertical-align:top;">max-age</td><td style="vertical-align:top;">:</td><td><div></div></td></tr><tr><td style="font-weight:bold;vertical-align:top;">path</td><td style="vertical-align:top;">:</td><td><div>/</div></td></tr><tr><td style="font-weight:bold;vertical-align:top;">secure</td><td style="vertical-align:top;">:</td><td><div></div></td></tr><tr><td style="font-weight:bold;vertical-align:top;">version</td><td style="vertical-align:top;">:</td><td><div></div></td></tr></table></div></td></tr></table></div></td></tr><tr><td style="font-weight:bold;vertical-align:top;">delimiters</td><td style="vertical-align:top;">:</td><td><div><table><tr><td><div>{{</div></td></tr><tr><td><div>}}</div></td></tr></table></div></td></tr><tr><td style="font-weight:bold;vertical-align:top;">files</td><td style="vertical-align:top;">:</td><td><div><table></table></div></td></tr><tr><td style="font-weight:bold;vertical-align:top;">flash</td><td style="vertical-align:top;">:</td><td><div></div></td></tr><tr><td style="font-weight:bold;vertical-align:top;">form_label_separator</td><td style="vertical-align:top;">:</td><td><div></div></td></tr><tr><td style="font-weight:bold;vertical-align:top;">formstyle</td><td style="vertical-align:top;">:</td><td><div>bootstrap3_inline</div></td></tr><tr><td style="font-weight:bold;vertical-align:top;">generic_patterns</td><td style="vertical-align:top;">:</td><td><div><table><tr><td><div>*</div></td></tr></table></div></td></tr><tr><td style="font-weight:bold;vertical-align:top;">google_analytics_id</td><td style="vertical-align:top;">:</td><td><div>None</div></td></tr><tr><td style="font-weight:bold;vertical-align:top;">headers</td><td style="vertical-align:top;">:</td><td><div><table><tr><td style="font-weight:bold;vertical-align:top;">X-Powered-By</td><td style="vertical-align:top;">:</td><td><div>web2py</div></td></tr></table></div></td></tr><tr><td style="font-weight:bold;vertical-align:top;">logo</td><td style="vertical-align:top;">:</td><td><div><a class="navbar-brand" href="http://www.web2py.com/" id="web2py-logo"><b>web<span>2</span>py</b>&trade;&nbsp;</a></div></td></tr><tr><td style="font-weight:bold;vertical-align:top;">menu</td><td style="vertical-align:top;">:</td><td><div><table><tr><td><div><table><tr><td><div>Inicio</div></td></tr><tr><td><div>False</div></td></tr><tr><td><div>/sigulab2/default/index</div></td></tr><tr><td><div><table></table></div></td></tr></table></div></td></tr><tr><td><div><table><tr><td><div>Mis Sitios</div></td></tr><tr><td><div>False</div></td></tr><tr><td><div>/admin/default/site</div></td></tr></table></div></td></tr><tr><td><div><table><tr><td><div>Esta Aplicaci\xc3\xb3n</div></td></tr><tr><td><div>False</div></td></tr><tr><td><div>#</div></td></tr><tr><td><div><table><tr><td><div><table><tr><td><div>Dise\xc3\xb1o</div></td></tr><tr><td><div>False</div></td></tr><tr><td><div>/admin/default/design/sigulab2</div></td></tr></table></div></td></tr><tr><td><div><li class="divider"></li></div></td></tr><tr><td><div><table><tr><td><div>Controlador</div></td></tr><tr><td><div>False</div></td></tr><tr><td><div>/admin/default/edit/sigulab2/controllers/informacion_documentada.py</div></td></tr></table></div></td></tr><tr><td><div><table><tr><td><div>Vista</div></td></tr><tr><td><div>False</div></td></tr><tr><td><div>/admin/default/edit/sigulab2/views/informacion_documentada/ficha.html</div></td></tr></table></div></td></tr><tr><td><div><table><tr><td><div>Modelo BDD</div></td></tr><tr><td><div>False</div></td></tr><tr><td><div>/admin/default/edit/sigulab2/models/db.py</div></td></tr></table></div></td></tr><tr><td><div><table><tr><td><div>Modelo "menu"</div></td></tr><tr><td><div>False</div></td></tr><tr><td><div>/admin/default/edit/sigulab2/models/menu.py</div></td></tr></table></div></td></tr><tr><td><div><table><tr><td><div>Config.ini</div></td></tr><tr><td><div>False</div></td></tr><tr><td><div>/admin/default/edit/sigulab2/private/appconfig.ini</div></td></tr></table></div></td></tr><tr><td><div><table><tr><td><div>Dise\xc3\xb1o de p\xc3\xa1gina</div></td></tr><tr><td><div>False</div></td></tr><tr><td><div>/admin/default/edit/sigulab2/views/layout.html</div></td></tr></table></div></td></tr><tr><td><div><table><tr><td><div>Hoja de estilo</div></td></tr><tr><td><div>False</div></td></tr><tr><td><div>/admin/default/edit/sigulab2/static/css/web2py-bootstrap3.css</div></td></tr></table></div></td></tr><tr><td><div><table><tr><td><div>Base de datos</div></td></tr><tr><td><div>False</div></td></tr><tr><td><div>/sigulab2/appadmin/index</div></td></tr></table></div></td></tr><tr><td><div><table><tr><td><div>Errores</div></td></tr><tr><td><div>False</div></td></tr><tr><td><div>/admin/default/errors/sigulab2</div></td></tr></table></div></td></tr><tr><td><div><table><tr><td><div>Acerca de</div></td></tr><tr><td><div>False</div></td></tr><tr><td><div>/admin/default/about/sigulab2</div></td></tr></table></div></td></tr></table></div></td></tr></table></div></td></tr><tr><td><div><table><tr><td><div>web2py.com</div></td></tr><tr><td><div>False</div></td></tr><tr><td><div>#</div></td></tr><tr><td><div><table><tr><td><div><table><tr><td><div>Descargas</div></td></tr><tr><td><div>False</div></td></tr><tr><td><div>http://www.web2py.com/examples/default/download</div></td></tr></table></div></td></tr><tr><td><div><table><tr><td><div>Soporte</div></td></tr><tr><td><div>False</div></td></tr><tr><td><div>http://www.web2py.com/examples/default/support</div></td></tr></table></div></td></tr><tr><td><div><table><tr><td><div>Demostraci\xc3\xb3n</div></td></tr><tr><td><div>False</div></td></tr><tr><td><div>http://web2py.com/demo_admin</div></td></tr></table></div></td></tr><tr><td><div><table><tr><td><div>Ejemplos R\xc3\xa1pidos</div></td></tr><tr><td><div>False</div></td></tr><tr><td><div>http://web2py.com/examples/default/examples</div></td></tr></table></div></td></tr><tr><td><div><table><tr><td><div>Preguntas frecuentes</div></td></tr><tr><td><div>False</div></td></tr><tr><td><div>http://web2py.com/AlterEgo</div></td></tr></table></div></td></tr><tr><td><div><table><tr><td><div>V\xc3\xaddeos</div></td></tr><tr><td><div>False</div></td></tr><tr><td><div>http://www.web2py.com/examples/default/videos/</div></td></tr></table></div></td></tr><tr><td><div><table><tr><td><div>Aplicaciones Libres</div></td></tr><tr><td><div>False</div></td></tr><tr><td><div>http://web2py.com/appliances</div></td></tr></table></div></td></tr><tr><td><div><table><tr><td><div>Plugins</div></td></tr><tr><td><div>False</div></td></tr><tr><td><div>http://web2py.com/plugins</div></td></tr></table></div></td></tr><tr><td><div><table><tr><td><div>Recetas</div></td></tr><tr><td><div>False</div></td></tr><tr><td><div>http://web2pyslices.com/</div></td></tr></table></div></td></tr></table></div></td></tr></table></div></td></tr><tr><td><div><table><tr><td><div>Documentaci\xc3\xb3n</div></td></tr><tr><td><div>False</div></td></tr><tr><td><div>#</div></td></tr><tr><td><div><table><tr><td><div><table><tr><td><div>Libro Online</div></td></tr><tr><td><div>False</div></td></tr><tr><td><div>http://www.web2py.com/book</div></td></tr></table></div></td></tr><tr><td><div><li class="divider"></li></div></td></tr><tr><td><div><table><tr><td><div>Prefacio</div></td></tr><tr><td><div>False</div></td></tr><tr><td><div>http://www.web2py.com/book/default/chapter/00</div></td></tr></table></div></td></tr><tr><td><div><table><tr><td><div>Introducci\xc3\xb3n</div></td></tr><tr><td><div>False</div></td></tr><tr><td><div>http://www.web2py.com/book/default/chapter/01</div></td></tr></table></div></td></tr><tr><td><div><table><tr><td><div>Python</div></td></tr><tr><td><div>False</div></td></tr><tr><td><div>http://www.web2py.com/book/default/chapter/02</div></td></tr></table></div></td></tr><tr><td><div><table><tr><td><div>Resumen</div></td></tr><tr><td><div>False</div></td></tr><tr><td><div>http://www.web2py.com/book/default/chapter/03</div></td></tr></table></div></td></tr><tr><td><div><table><tr><td><div>El N\xc3\xbacleo</div></td></tr><tr><td><div>False</div></td></tr><tr><td><div>http://www.web2py.com/book/default/chapter/04</div></td></tr></table></div></td></tr><tr><td><div><table><tr><td><div>Las Vistas</div></td></tr><tr><td><div>False</div></td></tr><tr><td><div>http://www.web2py.com/book/default/chapter/05</div></td></tr></table></div></td></tr><tr><td><div><table><tr><td><div>Base de datos</div></td></tr><tr><td><div>False</div></td></tr><tr><td><div>http://www.web2py.com/book/default/chapter/06</div></td></tr></table></div></td></tr><tr><td><div><table><tr><td><div>Formularios y validadores</div></td></tr><tr><td><div>False</div></td></tr><tr><td><div>http://www.web2py.com/book/default/chapter/07</div></td></tr></table></div></td></tr><tr><td><div><table><tr><td><div>Correo electr\xc3\xb3nico y SMS</div></td></tr><tr><td><div>False</div></td></tr><tr><td><div>http://www.web2py.com/book/default/chapter/08</div></td></tr></table></div></td></tr><tr><td><div><table><tr><td><div>Control de Acceso</div></td></tr><tr><td><div>False</div></td></tr><tr><td><div>http://www.web2py.com/book/default/chapter/09</div></td></tr></table></div></td></tr><tr><td><div><table><tr><td><div>Servicios</div></td></tr><tr><td><div>False</div></td></tr><tr><td><div>http://www.web2py.com/book/default/chapter/10</div></td></tr></table></div></td></tr><tr><td><div><table><tr><td><div>Recetas AJAX</div></td></tr><tr><td><div>False</div></td></tr><tr><td><div>http://www.web2py.com/book/default/chapter/11</div></td></tr></table></div></td></tr><tr><td><div><table><tr><td><div>Componentes y Plugins</div></td></tr><tr><td><div>False</div></td></tr><tr><td><div>http://www.web2py.com/book/default/chapter/12</div></td></tr></table></div></td></tr><tr><td><div><table><tr><td><div>Recetas de despliegue</div></td></tr><tr><td><div>False</div></td></tr><tr><td><div>http://www.web2py.com/book/default/chapter/13</div></td></tr></table></div></td></tr><tr><td><div><table><tr><td><div>Otras Recetas</div></td></tr><tr><td><div>False</div></td></tr><tr><td><div>http://www.web2py.com/book/default/chapter/14</div></td></tr></table></div></td></tr><tr><td><div><table><tr><td><div>Ayudando a web2py</div></td></tr><tr><td><div>False</div></td></tr><tr><td><div>http://www.web2py.com/book/default/chapter/15</div></td></tr></table></div></td></tr><tr><td><div><table><tr><td><div>Compra el libro de web2py</div></td></tr><tr><td><div>False</div></td></tr><tr><td><div>http://stores.lulu.com/web2py</div></td></tr></table></div></td></tr></table></div></td></tr></table></div></td></tr><tr><td><div><table><tr><td><div>Comunidad</div></td></tr><tr><td><div>False</div></td></tr><tr><td><div>None</div></td></tr><tr><td><div><table><tr><td><div><table><tr><td><div>Grupos</div></td></tr><tr><td><div>False</div></td></tr><tr><td><div>http://www.web2py.com/examples/default/usergroups</div></td></tr></table></div></td></tr><tr><td><div><table><tr><td><div>Twitter</div></td></tr><tr><td><div>False</div></td></tr><tr><td><div>http://twitter.com/web2py</div></td></tr></table></div></td></tr><tr><td><div><table><tr><td><div>Chat en vivo</div></td></tr><tr><td><div>False</div></td></tr><tr><td><div>http://webchat.freenode.net/?channels=web2py</div></td></tr></table></div></td></tr></table></div></td></tr></table></div></td></tr></table></div></td></tr><tr><td style="font-weight:bold;vertical-align:top;">meta</td><td style="vertical-align:top;">:</td><td><div><table><tr><td style="font-weight:bold;vertical-align:top;">author</td><td style="vertical-align:top;">:</td><td><div>Octopus Technologies &lt;13-10191@usb.ve:</div></td></tr><tr><td style="font-weight:bold;vertical-align:top;">description</td><td style="vertical-align:top;">:</td><td><div>Sistema de Gestion de la Unidad de Laboratorios</div></td></tr><tr><td style="font-weight:bold;vertical-align:top;">generator</td><td style="vertical-align:top;">:</td><td><div>Web2py Web Framework</div></td></tr><tr><td style="font-weight:bold;vertical-align:top;">keywords</td><td style="vertical-align:top;">:</td><td><div>sigulab</div></td></tr></table></div></td></tr><tr><td style="font-weight:bold;vertical-align:top;">models_to_run</td><td style="vertical-align:top;">:</td><td><div><table><tr><td><div>^\\w+\\.py$</div></td></tr><tr><td><div>^informacion_documentada/\\w+\\.py$</div></td></tr><tr><td><div>^informacion_documentada/ficha/\\w+\\.py$</div></td></tr></table></div></td></tr><tr><td style="font-weight:bold;vertical-align:top;">postprocessing</td><td style="vertical-align:top;">:</td><td><div><table></table></div></td></tr><tr><td style="font-weight:bold;vertical-align:top;">session_client</td><td style="vertical-align:top;">:</td><td><div>127.0.0.1</div></td></tr><tr><td style="font-weight:bold;vertical-align:top;">session_cookie_compression_level</td><td style="vertical-align:top;">:</td><td><div>None</div></td></tr><tr><td style="font-weight:bold;vertical-align:top;">session_cookie_expires</td><td style="vertical-align:top;">:</td><td><div>None</div></td></tr><tr><td style="font-weight:bold;vertical-align:top;">session_data_name</td><td style="vertical-align:top;">:</td><td><div>session_data_sigulab2</div></td></tr><tr><td style="font-weight:bold;vertical-align:top;">session_file</td><td style="vertical-align:top;">:</td><td><div>&lt;open file &#x27;/home/nairelys/Descargas/Sigulab/web2py/applications/sigulab2/sessions/191/093/127.0.0.1-3fe23a84-4795-4fd7-9c30-7b3dfa0a539c&#x27;, mode &#x27;rb+&#x27; at 0xabd93180&gt;</div></td></tr><tr><td style="font-weight:bold;vertical-align:top;">session_filename</td><td style="vertical-align:top;">:</td><td><div>/home/nairelys/Descargas/Sigulab/web2py/applications/sigulab2/sessions/127.0.0.1-3fe23a84-4795-4fd7-9c30-7b3dfa0a539c</div></td></tr><tr><td style="font-weight:bold;vertical-align:top;">session_hash</td><td style="vertical-align:top;">:</td><td><div>9c8aab30849b97c032b7a7364fd769b6</div></td></tr><tr><td style="font-weight:bold;vertical-align:top;">session_id</td><td style="vertical-align:top;">:</td><td><div>127.0.0.1-3fe23a84-4795-4fd7-9c30-7b3dfa0a539c</div></td></tr><tr><td style="font-weight:bold;vertical-align:top;">session_id_name</td><td style="vertical-align:top;">:</td><td><div>session_id_sigulab2</div></td></tr><tr><td style="font-weight:bold;vertical-align:top;">session_locked</td><td style="vertical-align:top;">:</td><td><div>True</div></td></tr><tr><td style="font-weight:bold;vertical-align:top;">session_masterapp</td><td style="vertical-align:top;">:</td><td><div>sigulab2</div></td></tr><tr><td style="font-weight:bold;vertical-align:top;">session_new</td><td style="vertical-align:top;">:</td><td><div>False</div></td></tr><tr><td style="font-weight:bold;vertical-align:top;">session_storage_type</td><td style="vertical-align:top;">:</td><td><div>file</div></td></tr><tr><td style="font-weight:bold;vertical-align:top;">status</td><td style="vertical-align:top;">:</td><td><div>200</div></td></tr><tr><td style="font-weight:bold;vertical-align:top;">subtitle</td><td style="vertical-align:top;">:</td><td><div></div></td></tr><tr><td style="font-weight:bold;vertical-align:top;">title</td><td style="vertical-align:top;">:</td><td><div>Sigulab2</div></td></tr><tr><td style="font-weight:bold;vertical-align:top;">view</td><td style="vertical-align:top;">:</td><td><div>informacion_documentada/ficha.html</div></td></tr></table></div>'
tRp144
sS'locals'
p145
(dp146
S'k'
S"'objetivos'"
p147
sS'self'
p148
S"<Row {'fecha_rev_por_consejo_asesor': datetime.d...': '', 'codigo': 'UML2', 'ubicacion_fisica': ''}>"
p149
sssS'traceback'
p150
S'Traceback (most recent call last):\n  File "/home/nairelys/Descargas/Sigulab/web2py/gluon/restricted.py", line 219, in restricted\n    exec(ccode, environment)\n  File "/home/nairelys/Descargas/Sigulab/web2py/applications/sigulab2/views/informacion_documentada/ficha.html", line 143, in <module>\n  File "/home/nairelys/Descargas/Sigulab/web2py/gluon/packages/dal/pydal/objects.py", line 99, in __getattr__\n    raise AttributeError\nAttributeError\n'
p151
s.