(dp1
S'output'
p2
S'<class \'psycopg2.ProgrammingError\'> relation "registros" already exists\n'
p3
sS'layer'
p4
S'/home/nairelys/Descargas/Sigulab/web2py/applications/sigulab2/models/informacion_documentada.py'
p5
sS'code'
p6
S'<code object <module> at 0xb02f1da0, file "/home/nairelys/Descargas/Sigulab/web2py/applications/sigulab2/models/informacion_documentada.py", line 16>'
p7
sS'snapshot'
p8
(dp9
S'exception'
p10
(dp11
S'__module__'
p12
S"'psycopg2'"
p13
sS'__getslice__'
p14
S"<method-wrapper '__getslice__' of ProgrammingError object>"
p15
sS'__str__'
p16
S"<method-wrapper '__str__' of ProgrammingError object>"
p17
sS'__reduce__'
p18
S'<built-in method __reduce__ of ProgrammingError object>'
p19
sS'__dict__'
p20
S'{\'cursor\': <cursor object at 0xb02e8a7c; closed: 0>, \'pgcode\': \'42P07\', \'pgerror\': \'ERROR:  relation "registros" already exists\\n\'}'
p21
sS'__sizeof__'
p22
S'<built-in method __sizeof__ of ProgrammingError object>'
p23
sS'__weakref__'
p24
S'None'
p25
sS'message'
p26
S'\'relation "registros" already exists\\n\''
p27
sS'__init__'
p28
S"<method-wrapper '__init__' of ProgrammingError object>"
p29
sS'__setattr__'
p30
S"<method-wrapper '__setattr__' of ProgrammingError object>"
p31
sS'__reduce_ex__'
p32
S'<built-in method __reduce_ex__ of ProgrammingError object>'
p33
sS'__new__'
p34
S'<built-in method __new__ of type object>'
p35
sS'__format__'
p36
S'<built-in method __format__ of ProgrammingError object>'
p37
sS'__class__'
p38
S"<class 'psycopg2.ProgrammingError'>"
p39
sS'pgerror'
p40
S'\'ERROR:  relation "registros" already exists\\n\''
p41
sS'__doc__'
p42
S"'Error related to database programming (SQL error, table not found etc).'"
p43
sS'__getitem__'
p44
S"<method-wrapper '__getitem__' of ProgrammingError object>"
p45
sS'__setstate__'
p46
S'<built-in method __setstate__ of ProgrammingError object>'
p47
sS'__getattribute__'
p48
S"<method-wrapper '__getattribute__' of ProgrammingError object>"
p49
sS'args'
p50
S'(\'relation "registros" already exists\\n\',)'
p51
sS'__subclasshook__'
p52
S'<built-in method __subclasshook__ of type object>'
p53
sS'pgcode'
p54
S"'42P07'"
p55
sS'__unicode__'
p56
S'<built-in method __unicode__ of ProgrammingError object>'
p57
sS'cursor'
p58
S'<cursor object at 0xb02e8a7c; closed: 0>'
p59
sS'__delattr__'
p60
S"<method-wrapper '__delattr__' of ProgrammingError object>"
p61
sS'__repr__'
p62
S"<method-wrapper '__repr__' of ProgrammingError object>"
p63
sS'__hash__'
p64
S"<method-wrapper '__hash__' of ProgrammingError object>"
p65
ssS'evalue'
p66
S'relation "registros" already exists\n'
p67
sS'request'
p68
cgluon.html
XML_unpickle
p69
(S's\xdeb\x00\x00<div><table><tr><td style="font-weight:bold;vertical-align:top;">ajax</td><td style="vertical-align:top;">:</td><td><div>False</div></td></tr><tr><td style="font-weight:bold;vertical-align:top;">application</td><td style="vertical-align:top;">:</td><td><div>sigulab2</div></td></tr><tr><td style="font-weight:bold;vertical-align:top;">args</td><td style="vertical-align:top;">:</td><td><div><table></table></div></td></tr><tr><td style="font-weight:bold;vertical-align:top;">cid</td><td style="vertical-align:top;">:</td><td><div>None</div></td></tr><tr><td style="font-weight:bold;vertical-align:top;">client</td><td style="vertical-align:top;">:</td><td><div>127.0.0.1</div></td></tr><tr><td style="font-weight:bold;vertical-align:top;">controller</td><td style="vertical-align:top;">:</td><td><div>default</div></td></tr><tr><td style="font-weight:bold;vertical-align:top;">cookies</td><td style="vertical-align:top;">:</td><td><div><table><tr><td style="font-weight:bold;vertical-align:top;">csrftoken</td><td style="vertical-align:top;">:</td><td><div>V5qZDP9RSfIA9t9ZEr3gCjO16Mg6ALevDygMm7MSuBHGoBTDZBL5zIc7kBdYY5Bd<table><tr><td style="font-weight:bold;vertical-align:top;">comment</td><td style="vertical-align:top;">:</td><td><div></div></td></tr><tr><td style="font-weight:bold;vertical-align:top;">domain</td><td style="vertical-align:top;">:</td><td><div></div></td></tr><tr><td style="font-weight:bold;vertical-align:top;">expires</td><td style="vertical-align:top;">:</td><td><div></div></td></tr><tr><td style="font-weight:bold;vertical-align:top;">httponly</td><td style="vertical-align:top;">:</td><td><div></div></td></tr><tr><td style="font-weight:bold;vertical-align:top;">max-age</td><td style="vertical-align:top;">:</td><td><div></div></td></tr><tr><td style="font-weight:bold;vertical-align:top;">path</td><td style="vertical-align:top;">:</td><td><div></div></td></tr><tr><td style="font-weight:bold;vertical-align:top;">secure</td><td style="vertical-align:top;">:</td><td><div></div></td></tr><tr><td style="font-weight:bold;vertical-align:top;">version</td><td style="vertical-align:top;">:</td><td><div></div></td></tr></table></div></td></tr><tr><td style="font-weight:bold;vertical-align:top;">session_id_admin</td><td style="vertical-align:top;">:</td><td><div>127.0.0.1-8517a585-772b-4294-a6e7-9965560dfd6b<table><tr><td style="font-weight:bold;vertical-align:top;">comment</td><td style="vertical-align:top;">:</td><td><div></div></td></tr><tr><td style="font-weight:bold;vertical-align:top;">domain</td><td style="vertical-align:top;">:</td><td><div></div></td></tr><tr><td style="font-weight:bold;vertical-align:top;">expires</td><td style="vertical-align:top;">:</td><td><div></div></td></tr><tr><td style="font-weight:bold;vertical-align:top;">httponly</td><td style="vertical-align:top;">:</td><td><div></div></td></tr><tr><td style="font-weight:bold;vertical-align:top;">max-age</td><td style="vertical-align:top;">:</td><td><div></div></td></tr><tr><td style="font-weight:bold;vertical-align:top;">path</td><td style="vertical-align:top;">:</td><td><div></div></td></tr><tr><td style="font-weight:bold;vertical-align:top;">secure</td><td style="vertical-align:top;">:</td><td><div></div></td></tr><tr><td style="font-weight:bold;vertical-align:top;">version</td><td style="vertical-align:top;">:</td><td><div></div></td></tr></table></div></td></tr><tr><td style="font-weight:bold;vertical-align:top;">session_id_sigulab2</td><td style="vertical-align:top;">:</td><td><div>127.0.0.1-4b72257d-d627-44f5-8c0a-773acb78d8e2<table><tr><td style="font-weight:bold;vertical-align:top;">comment</td><td style="vertical-align:top;">:</td><td><div></div></td></tr><tr><td style="font-weight:bold;vertical-align:top;">domain</td><td style="vertical-align:top;">:</td><td><div></div></td></tr><tr><td style="font-weight:bold;vertical-align:top;">expires</td><td style="vertical-align:top;">:</td><td><div></div></td></tr><tr><td style="font-weight:bold;vertical-align:top;">httponly</td><td style="vertical-align:top;">:</td><td><div></div></td></tr><tr><td style="font-weight:bold;vertical-align:top;">max-age</td><td style="vertical-align:top;">:</td><td><div></div></td></tr><tr><td style="font-weight:bold;vertical-align:top;">path</td><td style="vertical-align:top;">:</td><td><div></div></td></tr><tr><td style="font-weight:bold;vertical-align:top;">secure</td><td style="vertical-align:top;">:</td><td><div></div></td></tr><tr><td style="font-weight:bold;vertical-align:top;">version</td><td style="vertical-align:top;">:</td><td><div></div></td></tr></table></div></td></tr><tr><td style="font-weight:bold;vertical-align:top;">session_id_welcome</td><td style="vertical-align:top;">:</td><td><div>127.0.0.1-94e5e188-2301-4078-ba4f-b019200dcd9d<table><tr><td style="font-weight:bold;vertical-align:top;">comment</td><td style="vertical-align:top;">:</td><td><div></div></td></tr><tr><td style="font-weight:bold;vertical-align:top;">domain</td><td style="vertical-align:top;">:</td><td><div></div></td></tr><tr><td style="font-weight:bold;vertical-align:top;">expires</td><td style="vertical-align:top;">:</td><td><div></div></td></tr><tr><td style="font-weight:bold;vertical-align:top;">httponly</td><td style="vertical-align:top;">:</td><td><div></div></td></tr><tr><td style="font-weight:bold;vertical-align:top;">max-age</td><td style="vertical-align:top;">:</td><td><div></div></td></tr><tr><td style="font-weight:bold;vertical-align:top;">path</td><td style="vertical-align:top;">:</td><td><div></div></td></tr><tr><td style="font-weight:bold;vertical-align:top;">secure</td><td style="vertical-align:top;">:</td><td><div></div></td></tr><tr><td style="font-weight:bold;vertical-align:top;">version</td><td style="vertical-align:top;">:</td><td><div></div></td></tr></table></div></td></tr></table></div></td></tr><tr><td style="font-weight:bold;vertical-align:top;">env</td><td style="vertical-align:top;">:</td><td><div><table><tr><td style="font-weight:bold;vertical-align:top;">HTTP_ACCEPT</td><td style="vertical-align:top;">:</td><td><div>text/html,application/xhtml+xml,application/xml;q=0.9,image/webp,image/apng,*/*;q=0.8</div></td></tr><tr><td style="font-weight:bold;vertical-align:top;">HTTP_ACCEPT_ENCODING</td><td style="vertical-align:top;">:</td><td><div>gzip, deflate, br</div></td></tr><tr><td style="font-weight:bold;vertical-align:top;">HTTP_ACCEPT_LANGUAGE</td><td style="vertical-align:top;">:</td><td><div>es-419,es;q=0.9</div></td></tr><tr><td style="font-weight:bold;vertical-align:top;">HTTP_CONNECTION</td><td style="vertical-align:top;">:</td><td><div>keep-alive</div></td></tr><tr><td style="font-weight:bold;vertical-align:top;">HTTP_COOKIE</td><td style="vertical-align:top;">:</td><td><div>csrftoken=V5qZDP9RSfIA9t9ZEr3gCjO16Mg6ALevDygMm7MSuBHGoBTDZBL5zIc7kBdYY5Bd; session_id_admin=127.0.0.1-8517a585-772b-4294-a6e7-9965560dfd6b; session_id_sigulab2=127.0.0.1-4b72257d-d627-44f5-8c0a-773acb78d8e2; session_id_welcome=127.0.0.1-94e5e188-2301-4078-ba4f-b019200dcd9d</div></td></tr><tr><td style="font-weight:bold;vertical-align:top;">HTTP_HOST</td><td style="vertical-align:top;">:</td><td><div>127.0.0.1:8000</div></td></tr><tr><td style="font-weight:bold;vertical-align:top;">HTTP_REFERER</td><td style="vertical-align:top;">:</td><td><div>http://127.0.0.1:8000/admin/default/site</div></td></tr><tr><td style="font-weight:bold;vertical-align:top;">HTTP_UPGRADE_INSECURE_REQUESTS</td><td style="vertical-align:top;">:</td><td><div>1</div></td></tr><tr><td style="font-weight:bold;vertical-align:top;">HTTP_USER_AGENT</td><td style="vertical-align:top;">:</td><td><div>Mozilla/5.0 (X11; Linux i686) AppleWebKit/537.36 (KHTML, like Gecko) Ubuntu Chromium/63.0.3239.84 Chrome/63.0.3239.84 Safari/537.36</div></td></tr><tr><td style="font-weight:bold;vertical-align:top;">PATH_INFO</td><td style="vertical-align:top;">:</td><td><div>/sigulab2/default/index</div></td></tr><tr><td style="font-weight:bold;vertical-align:top;">QUERY_STRING</td><td style="vertical-align:top;">:</td><td><div></div></td></tr><tr><td style="font-weight:bold;vertical-align:top;">REMOTE_ADDR</td><td style="vertical-align:top;">:</td><td><div>127.0.0.1</div></td></tr><tr><td style="font-weight:bold;vertical-align:top;">REMOTE_PORT</td><td style="vertical-align:top;">:</td><td><div>57777</div></td></tr><tr><td style="font-weight:bold;vertical-align:top;">REQUEST_METHOD</td><td style="vertical-align:top;">:</td><td><div>GET</div></td></tr><tr><td style="font-weight:bold;vertical-align:top;">SCRIPT_NAME</td><td style="vertical-align:top;">:</td><td><div></div></td></tr><tr><td style="font-weight:bold;vertical-align:top;">SERVER_NAME</td><td style="vertical-align:top;">:</td><td><div>nairelys-VIT-P2402</div></td></tr><tr><td style="font-weight:bold;vertical-align:top;">SERVER_PORT</td><td style="vertical-align:top;">:</td><td><div>8000</div></td></tr><tr><td style="font-weight:bold;vertical-align:top;">SERVER_PROTOCOL</td><td style="vertical-align:top;">:</td><td><div>HTTP/1.1</div></td></tr><tr><td style="font-weight:bold;vertical-align:top;">SERVER_SOFTWARE</td><td style="vertical-align:top;">:</td><td><div>Rocket 1.2.6</div></td></tr><tr><td style="font-weight:bold;vertical-align:top;">app_folders</td><td style="vertical-align:top;">:</td><td><div>set([&#x27;/home/nairelys/Descargas/Sigulab/web2py/applications/admin/&#x27;, &#x27;/home/nairelys/Descargas/Sigulab/web2py/applications/welcome/&#x27;, &#x27;/home/nairelys/Descargas/Sigulab/web2py/applications/sigulab2/&#x27;])</div></td></tr><tr><td style="font-weight:bold;vertical-align:top;">applications_parent</td><td style="vertical-align:top;">:</td><td><div>/home/nairelys/Descargas/Sigulab/web2py</div></td></tr><tr><td style="font-weight:bold;vertical-align:top;">cmd_args</td><td style="vertical-align:top;">:</td><td><div><table></table></div></td></tr><tr><td style="font-weight:bold;vertical-align:top;">cmd_options</td><td style="vertical-align:top;">:</td><td><div>&lt;Values at 0xb4943cec: {&#x27;verbose&#x27;: False, &#x27;ip&#x27;: &#x27;127.0.0.1&#x27;, &#x27;debuglevel&#x27;: 30, &#x27;with_scheduler&#x27;: False, &#x27;shutdown_timeout&#x27;: 5, &#x27;taskbar&#x27;: False, &#x27;with_coverage&#x27;: False, &#x27;pid_filename&#x27;: &#x27;httpserver.pid&#x27;, &#x27;maxthreads&#x27;: None, &#x27;softcron&#x27;: False, &#x27;server_name&#x27;: &#x27;nairelys-VIT-P2402&#x27;, &#x27;bpython&#x27;: False, &#x27;nogui&#x27;: False, &#x27;port&#x27;: 8000, &#x27;print_errors&#x27;: False, &#x27;extcron&#x27;: False, &#x27;runcron&#x27;: False, &#x27;run_system_tests&#x27;: False, &#x27;test&#x27;: None, &#x27;folder&#x27;: &#x27;/home/nairelys/Descargas/Sigulab/web2py&#x27;, &#x27;config&#x27;: &#x27;&#x27;, &#x27;minthreads&#x27;: None, &#x27;shell&#x27;: None, &#x27;run&#x27;: &#x27;&#x27;, &#x27;log_filename&#x27;: &#x27;httpserver.log&#x27;, &#x27;profiler_dir&#x27;: None, &#x27;args&#x27;: [&#x27;&#x27;], &#x27;socket_timeout&#x27;: 5, &#x27;ssl_ca_certificate&#x27;: None, &#x27;scheduler&#x27;: None, &#x27;interfaces&#x27;: None, &#x27;ssl_private_key&#x27;: &#x27;&#x27;, &#x27;gae&#x27;: None, &#x27;password&#x27;: &#x27;******&#x27;, &#x27;request_queue_size&#x27;: 5, &#x27;ssl_certificate&#x27;: &#x27;&#x27;, &#x27;cronjob&#x27;: False, &#x27;numthreads&#x27;: None, &#x27;quiet&#x27;: False, &#x27;import_models&#x27;: False, &#x27;timeout&#x27;: 10, &#x27;plain&#x27;: False, &#x27;nobanner&#x27;: False}&gt;</div></td></tr><tr><td style="font-weight:bold;vertical-align:top;">db_sessions</td><td style="vertical-align:top;">:</td><td><div>set([])</div></td></tr><tr><td style="font-weight:bold;vertical-align:top;">debugging</td><td style="vertical-align:top;">:</td><td><div>False</div></td></tr><tr><td style="font-weight:bold;vertical-align:top;">gluon_parent</td><td style="vertical-align:top;">:</td><td><div>/home/nairelys/Descargas/Sigulab/web2py</div></td></tr><tr><td style="font-weight:bold;vertical-align:top;">http_accept</td><td style="vertical-align:top;">:</td><td><div>text/html,application/xhtml+xml,application/xml;q=0.9,image/webp,image/apng,*/*;q=0.8</div></td></tr><tr><td style="font-weight:bold;vertical-align:top;">http_accept_encoding</td><td style="vertical-align:top;">:</td><td><div>gzip, deflate, br</div></td></tr><tr><td style="font-weight:bold;vertical-align:top;">http_accept_language</td><td style="vertical-align:top;">:</td><td><div>es-419,es;q=0.9</div></td></tr><tr><td style="font-weight:bold;vertical-align:top;">http_connection</td><td style="vertical-align:top;">:</td><td><div>keep-alive</div></td></tr><tr><td style="font-weight:bold;vertical-align:top;">http_cookie</td><td style="vertical-align:top;">:</td><td><div>csrftoken=V5qZDP9RSfIA9t9ZEr3gCjO16Mg6ALevDygMm7MSuBHGoBTDZBL5zIc7kBdYY5Bd; session_id_admin=127.0.0.1-8517a585-772b-4294-a6e7-9965560dfd6b; session_id_sigulab2=127.0.0.1-4b72257d-d627-44f5-8c0a-773acb78d8e2; session_id_welcome=127.0.0.1-94e5e188-2301-4078-ba4f-b019200dcd9d</div></td></tr><tr><td style="font-weight:bold;vertical-align:top;">http_host</td><td style="vertical-align:top;">:</td><td><div>127.0.0.1:8000</div></td></tr><tr><td style="font-weight:bold;vertical-align:top;">http_referer</td><td style="vertical-align:top;">:</td><td><div>http://127.0.0.1:8000/admin/default/site</div></td></tr><tr><td style="font-weight:bold;vertical-align:top;">http_upgrade_insecure_requests</td><td style="vertical-align:top;">:</td><td><div>1</div></td></tr><tr><td style="font-weight:bold;vertical-align:top;">http_user_agent</td><td style="vertical-align:top;">:</td><td><div>Mozilla/5.0 (X11; Linux i686) AppleWebKit/537.36 (KHTML, like Gecko) Ubuntu Chromium/63.0.3239.84 Chrome/63.0.3239.84 Safari/537.36</div></td></tr><tr><td style="font-weight:bold;vertical-align:top;">is_jython</td><td style="vertical-align:top;">:</td><td><div>False</div></td></tr><tr><td style="font-weight:bold;vertical-align:top;">is_py2</td><td style="vertical-align:top;">:</td><td><div>True</div></td></tr><tr><td style="font-weight:bold;vertical-align:top;">is_pypy</td><td style="vertical-align:top;">:</td><td><div>False</div></td></tr><tr><td style="font-weight:bold;vertical-align:top;">is_source</td><td style="vertical-align:top;">:</td><td><div>True</div></td></tr><tr><td style="font-weight:bold;vertical-align:top;">local_hosts</td><td style="vertical-align:top;">:</td><td><div><table><tr><td><div>nairelys-VIT-P2402</div></td></tr><tr><td><div>::1</div></td></tr><tr><td><div>127.0.1.1</div></td></tr><tr><td><div>::ffff:127.0.0.1</div></td></tr><tr><td><div>127.0.0.1</div></td></tr></table></div></td></tr><tr><td style="font-weight:bold;vertical-align:top;">path_info</td><td style="vertical-align:top;">:</td><td><div>/sigulab2/default/index</div></td></tr><tr><td style="font-weight:bold;vertical-align:top;">query_string</td><td style="vertical-align:top;">:</td><td><div></div></td></tr><tr><td style="font-weight:bold;vertical-align:top;">remote_addr</td><td style="vertical-align:top;">:</td><td><div>127.0.0.1</div></td></tr><tr><td style="font-weight:bold;vertical-align:top;">remote_port</td><td style="vertical-align:top;">:</td><td><div>57777</div></td></tr><tr><td style="font-weight:bold;vertical-align:top;">request_method</td><td style="vertical-align:top;">:</td><td><div>GET</div></td></tr><tr><td style="font-weight:bold;vertical-align:top;">request_uri</td><td style="vertical-align:top;">:</td><td><div>/sigulab2/default/index</div></td></tr><tr><td style="font-weight:bold;vertical-align:top;">script_name</td><td style="vertical-align:top;">:</td><td><div></div></td></tr><tr><td style="font-weight:bold;vertical-align:top;">server_name</td><td style="vertical-align:top;">:</td><td><div>nairelys-VIT-P2402</div></td></tr><tr><td style="font-weight:bold;vertical-align:top;">server_port</td><td style="vertical-align:top;">:</td><td><div>8000</div></td></tr><tr><td style="font-weight:bold;vertical-align:top;">server_protocol</td><td style="vertical-align:top;">:</td><td><div>HTTP/1.1</div></td></tr><tr><td style="font-weight:bold;vertical-align:top;">server_software</td><td style="vertical-align:top;">:</td><td><div>Rocket 1.2.6</div></td></tr><tr><td style="font-weight:bold;vertical-align:top;">web2py_path</td><td style="vertical-align:top;">:</td><td><div>/home/nairelys/Descargas/Sigulab/web2py</div></td></tr><tr><td style="font-weight:bold;vertical-align:top;">web2py_version</td><td style="vertical-align:top;">:</td><td><div>2.15.4-stable+timestamp.2017.09.02.04.02.22</div></td></tr><tr><td style="font-weight:bold;vertical-align:top;">wsgi.errors</td><td style="vertical-align:top;">:</td><td><div>&lt;open file &#x27;&lt;stderr&gt;&#x27;, mode &#x27;w&#x27; at 0xb74c40d0&gt;</div></td></tr><tr><td style="font-weight:bold;vertical-align:top;">wsgi.file_wrapper</td><td style="vertical-align:top;">:</td><td><div>&lt;class wsgiref.util.FileWrapper at 0xb6df8b3c&gt;</div></td></tr><tr><td style="font-weight:bold;vertical-align:top;">wsgi.input</td><td style="vertical-align:top;">:</td><td><div>&lt;socket._fileobject object at 0xb20e4b2c&gt;</div></td></tr><tr><td style="font-weight:bold;vertical-align:top;">wsgi.multiprocess</td><td style="vertical-align:top;">:</td><td><div>False</div></td></tr><tr><td style="font-weight:bold;vertical-align:top;">wsgi.multithread</td><td style="vertical-align:top;">:</td><td><div>True</div></td></tr><tr><td style="font-weight:bold;vertical-align:top;">wsgi.run_once</td><td style="vertical-align:top;">:</td><td><div>False</div></td></tr><tr><td style="font-weight:bold;vertical-align:top;">wsgi.url_scheme</td><td style="vertical-align:top;">:</td><td><div>http</div></td></tr><tr><td style="font-weight:bold;vertical-align:top;">wsgi.version</td><td style="vertical-align:top;">:</td><td><div><table><tr><td><div>1</div></td></tr><tr><td><div>0</div></td></tr></table></div></td></tr><tr><td style="font-weight:bold;vertical-align:top;">wsgi_errors</td><td style="vertical-align:top;">:</td><td><div>&lt;open file &#x27;&lt;stderr&gt;&#x27;, mode &#x27;w&#x27; at 0xb74c40d0&gt;</div></td></tr><tr><td style="font-weight:bold;vertical-align:top;">wsgi_file_wrapper</td><td style="vertical-align:top;">:</td><td><div>&lt;class wsgiref.util.FileWrapper at 0xb6df8b3c&gt;</div></td></tr><tr><td style="font-weight:bold;vertical-align:top;">wsgi_input</td><td style="vertical-align:top;">:</td><td><div>&lt;socket._fileobject object at 0xb20e4b2c&gt;</div></td></tr><tr><td style="font-weight:bold;vertical-align:top;">wsgi_multiprocess</td><td style="vertical-align:top;">:</td><td><div>False</div></td></tr><tr><td style="font-weight:bold;vertical-align:top;">wsgi_multithread</td><td style="vertical-align:top;">:</td><td><div>True</div></td></tr><tr><td style="font-weight:bold;vertical-align:top;">wsgi_run_once</td><td style="vertical-align:top;">:</td><td><div>False</div></td></tr><tr><td style="font-weight:bold;vertical-align:top;">wsgi_url_scheme</td><td style="vertical-align:top;">:</td><td><div>http</div></td></tr><tr><td style="font-weight:bold;vertical-align:top;">wsgi_version</td><td style="vertical-align:top;">:</td><td><div><table><tr><td><div>1</div></td></tr><tr><td><div>0</div></td></tr></table></div></td></tr></table></div></td></tr><tr><td style="font-weight:bold;vertical-align:top;">extension</td><td style="vertical-align:top;">:</td><td><div>html</div></td></tr><tr><td style="font-weight:bold;vertical-align:top;">folder</td><td style="vertical-align:top;">:</td><td><div>/home/nairelys/Descargas/Sigulab/web2py/applications/sigulab2/</div></td></tr><tr><td style="font-weight:bold;vertical-align:top;">function</td><td style="vertical-align:top;">:</td><td><div>index</div></td></tr><tr><td style="font-weight:bold;vertical-align:top;">global_settings</td><td style="vertical-align:top;">:</td><td><div><table><tr><td style="font-weight:bold;vertical-align:top;">app_folders</td><td style="vertical-align:top;">:</td><td><div>set([&#x27;/home/nairelys/Descargas/Sigulab/web2py/applications/admin/&#x27;, &#x27;/home/nairelys/Descargas/Sigulab/web2py/applications/welcome/&#x27;, &#x27;/home/nairelys/Descargas/Sigulab/web2py/applications/sigulab2/&#x27;])</div></td></tr><tr><td style="font-weight:bold;vertical-align:top;">applications_parent</td><td style="vertical-align:top;">:</td><td><div>/home/nairelys/Descargas/Sigulab/web2py</div></td></tr><tr><td style="font-weight:bold;vertical-align:top;">cmd_args</td><td style="vertical-align:top;">:</td><td><div><table></table></div></td></tr><tr><td style="font-weight:bold;vertical-align:top;">cmd_options</td><td style="vertical-align:top;">:</td><td><div>&lt;Values at 0xb4943cec: {&#x27;verbose&#x27;: False, &#x27;ip&#x27;: &#x27;127.0.0.1&#x27;, &#x27;debuglevel&#x27;: 30, &#x27;with_scheduler&#x27;: False, &#x27;shutdown_timeout&#x27;: 5, &#x27;taskbar&#x27;: False, &#x27;with_coverage&#x27;: False, &#x27;pid_filename&#x27;: &#x27;httpserver.pid&#x27;, &#x27;maxthreads&#x27;: None, &#x27;softcron&#x27;: False, &#x27;server_name&#x27;: &#x27;nairelys-VIT-P2402&#x27;, &#x27;bpython&#x27;: False, &#x27;nogui&#x27;: False, &#x27;port&#x27;: 8000, &#x27;print_errors&#x27;: False, &#x27;extcron&#x27;: False, &#x27;runcron&#x27;: False, &#x27;run_system_tests&#x27;: False, &#x27;test&#x27;: None, &#x27;folder&#x27;: &#x27;/home/nairelys/Descargas/Sigulab/web2py&#x27;, &#x27;config&#x27;: &#x27;&#x27;, &#x27;minthreads&#x27;: None, &#x27;shell&#x27;: None, &#x27;run&#x27;: &#x27;&#x27;, &#x27;log_filename&#x27;: &#x27;httpserver.log&#x27;, &#x27;profiler_dir&#x27;: None, &#x27;args&#x27;: [&#x27;&#x27;], &#x27;socket_timeout&#x27;: 5, &#x27;ssl_ca_certificate&#x27;: None, &#x27;scheduler&#x27;: None, &#x27;interfaces&#x27;: None, &#x27;ssl_private_key&#x27;: &#x27;&#x27;, &#x27;gae&#x27;: None, &#x27;password&#x27;: &#x27;******&#x27;, &#x27;request_queue_size&#x27;: 5, &#x27;ssl_certificate&#x27;: &#x27;&#x27;, &#x27;cronjob&#x27;: False, &#x27;numthreads&#x27;: None, &#x27;quiet&#x27;: False, &#x27;import_models&#x27;: False, &#x27;timeout&#x27;: 10, &#x27;plain&#x27;: False, &#x27;nobanner&#x27;: False}&gt;</div></td></tr><tr><td style="font-weight:bold;vertical-align:top;">db_sessions</td><td style="vertical-align:top;">:</td><td><div>set([])</div></td></tr><tr><td style="font-weight:bold;vertical-align:top;">debugging</td><td style="vertical-align:top;">:</td><td><div>False</div></td></tr><tr><td style="font-weight:bold;vertical-align:top;">gluon_parent</td><td style="vertical-align:top;">:</td><td><div>/home/nairelys/Descargas/Sigulab/web2py</div></td></tr><tr><td style="font-weight:bold;vertical-align:top;">is_jython</td><td style="vertical-align:top;">:</td><td><div>False</div></td></tr><tr><td style="font-weight:bold;vertical-align:top;">is_py2</td><td style="vertical-align:top;">:</td><td><div>True</div></td></tr><tr><td style="font-weight:bold;vertical-align:top;">is_pypy</td><td style="vertical-align:top;">:</td><td><div>False</div></td></tr><tr><td style="font-weight:bold;vertical-align:top;">is_source</td><td style="vertical-align:top;">:</td><td><div>True</div></td></tr><tr><td style="font-weight:bold;vertical-align:top;">local_hosts</td><td style="vertical-align:top;">:</td><td><div><table><tr><td><div>nairelys-VIT-P2402</div></td></tr><tr><td><div>::1</div></td></tr><tr><td><div>127.0.1.1</div></td></tr><tr><td><div>::ffff:127.0.0.1</div></td></tr><tr><td><div>127.0.0.1</div></td></tr></table></div></td></tr><tr><td style="font-weight:bold;vertical-align:top;">web2py_version</td><td style="vertical-align:top;">:</td><td><div>2.15.4-stable+timestamp.2017.09.02.04.02.22</div></td></tr></table></div></td></tr><tr><td style="font-weight:bold;vertical-align:top;">is_https</td><td style="vertical-align:top;">:</td><td><div>False</div></td></tr><tr><td style="font-weight:bold;vertical-align:top;">is_local</td><td style="vertical-align:top;">:</td><td><div>True</div></td></tr><tr><td style="font-weight:bold;vertical-align:top;">is_restful</td><td style="vertical-align:top;">:</td><td><div>False</div></td></tr><tr><td style="font-weight:bold;vertical-align:top;">is_scheduler</td><td style="vertical-align:top;">:</td><td><div>False</div></td></tr><tr><td style="font-weight:bold;vertical-align:top;">is_shell</td><td style="vertical-align:top;">:</td><td><div>False</div></td></tr><tr><td style="font-weight:bold;vertical-align:top;">now</td><td style="vertical-align:top;">:</td><td><div>datetime.datetime(2018, 6, 21, 21, 18, 24, 434005)</div></td></tr><tr><td style="font-weight:bold;vertical-align:top;">raw_args</td><td style="vertical-align:top;">:</td><td><div></div></td></tr><tr><td style="font-weight:bold;vertical-align:top;">raw_extension</td><td style="vertical-align:top;">:</td><td><div>None</div></td></tr><tr><td style="font-weight:bold;vertical-align:top;">url</td><td style="vertical-align:top;">:</td><td><div>/sigulab2/default/index</div></td></tr><tr><td style="font-weight:bold;vertical-align:top;">utcnow</td><td style="vertical-align:top;">:</td><td><div>datetime.datetime(2018, 6, 22, 1, 18, 24, 434034)</div></td></tr><tr><td style="font-weight:bold;vertical-align:top;">wsgi</td><td style="vertical-align:top;">:</td><td><div>&lt;gluon.main.LazyWSGI object at 0xb1664e6c&gt;</div></td></tr></table></div>'
tRp70
sS'frames'
p71
(lp72
(dp73
S'file'
p74
S'/home/nairelys/Descargas/Sigulab/web2py/gluon/restricted.py'
p75
sS'dump'
p76
(dp77
S'environment'
p78
S"{'A': <class 'gluon.html.A'>, 'ANY_OF': <class 'gluon.validators.ANY_OF'>, 'ASSIGNJS': <function ASSIGNJS>, 'AppConfig': <function AppConfig>, 'Auth': <class 'gluon.tools.Auth'>, 'B': <class 'gluon.html.B'>, 'BEAUTIFY': <class 'gluon.html.BEAUTIFY'>, 'BODY': <class 'gluon.html.BODY'>, 'BR': <class 'gluon.html.BR'>, 'BUTTON': <class 'gluon.html.BUTTON'>, ...}"
p79
sS'ccode'
p80
S'<code object <module> at 0xb02f1da0, file "/home...lab2/models/informacion_documentada.py", line 16>'
p81
ssS'lnum'
p82
I219
sS'lines'
p83
(dp84
I214
S'    if environment is None:'
p85
sI215
S'        environment = {}'
p86
sI216
S"    environment['__file__'] = layer"
p87
sI217
S"    environment['__name__'] = '__restricted__'"
p88
sI218
S'    try:'
p89
sI219
S'        exec(ccode, environment)'
p90
sI220
S'    except HTTP:'
p91
sI221
S'        raise'
p92
sI222
S'    except RestrictedError:'
p93
sI223
S'        # do not encapsulate (obfuscate) the original RestrictedError'
p94
ssS'call'
p95
S'(ccode=<code object <module> at 0xb02f1da0, file "/home...lab2/models/informacion_documentada.py", line 16>, environment={\'A\': <class \'gluon.html.A\'>, \'ANY_OF\': <class \'gluon.validators.ANY_OF\'>, \'ASSIGNJS\': <function ASSIGNJS>, \'AppConfig\': <function AppConfig>, \'Auth\': <class \'gluon.tools.Auth\'>, \'B\': <class \'gluon.html.B\'>, \'BEAUTIFY\': <class \'gluon.html.BEAUTIFY\'>, \'BODY\': <class \'gluon.html.BODY\'>, \'BR\': <class \'gluon.html.BR\'>, \'BUTTON\': <class \'gluon.html.BUTTON\'>, ...}, layer=\'/home/nairelys/Descargas/Sigulab/web2py/applications/sigulab2/models/informacion_documentada.py\', scode=<code object <module> at 0xb02f1da0, file "/home...lab2/models/informacion_documentada.py", line 16>)'
p96
sS'func'
p97
S'restricted'
p98
sa(dp99
g74
S'/home/nairelys/Descargas/Sigulab/web2py/applications/sigulab2/models/informacion_documentada.py'
p100
sg76
(dp101
S'primarykey'
p102
S'undefined'
p103
ssg82
I36
sg83
(dp104
I32
S"      Field('doc_electronico', 'string', label=T('Doc. Electr\xc3\xb3nico')),"
p105
sI33
S''
sI34
S"      Field('archivo_fisico', 'string', label=T('Archivo Fisico')),"
p106
sI35
S''
sI36
S"      primarykey=['codigo']"
p107
sI37
S')'
sI38
S''
sI39
S''
sI40
S''
sI31
S''
ssg95
S'()'
p108
sg97
S'<module>'
p109
sa(dp110
g74
S'/home/nairelys/Descargas/Sigulab/web2py/gluon/packages/dal/pydal/base.py'
p111
sg76
(dp112
S'fields'
p113
S'(<pydal.objects.Field object>, <pydal.objects.Field object>, <pydal.objects.Field object>, <pydal.objects.Field object>, <pydal.objects.Field object>, <pydal.objects.Field object>, <pydal.objects.Field object>, <pydal.objects.Field object>)'
p114
sS'self'
p115
S'<DAL uri="postgres:******@localhost:5432/sigulab2">'
p116
sS'args'
p117
S"{'primarykey': ['codigo']}"
p118
sS'tablename'
p119
S"'registros'"
p120
sS'table'
p121
g103
sS'self.lazy_define_table'
p122
S'<bound method DAL.lazy_define_table of <DAL uri="postgres:******@localhost:5432/sigulab2">>'
p123
ssg82
I587
sg83
(dp124
I582
S'                                  (tablename, invalid_args))'
p125
sI583
S'        if self._lazy_tables and tablename not in self._LAZY_TABLES:'
p126
sI584
S'            self._LAZY_TABLES[tablename] = (tablename, fields, args)'
p127
sI585
S'            table = None'
p128
sI586
S'        else:'
p129
sI587
S'            table = self.lazy_define_table(tablename, *fields, **args)'
p130
sI588
S'        if tablename not in self.tables:'
p131
sI589
S'            self.tables.append(tablename)'
p132
sI590
S'        return table'
p133
sI591
S''
ssg95
S'(self=<DAL uri="postgres:******@localhost:5432/sigulab2">, tablename=\'registros\', *fields=(<pydal.objects.Field object>, <pydal.objects.Field object>, <pydal.objects.Field object>, <pydal.objects.Field object>, <pydal.objects.Field object>, <pydal.objects.Field object>, <pydal.objects.Field object>, <pydal.objects.Field object>), **args={\'primarykey\': [\'codigo\']})'
p134
sg97
S'define_table'
p135
sa(dp136
g74
S'/home/nairelys/Descargas/Sigulab/web2py/gluon/packages/dal/pydal/base.py'
p137
sg76
(dp138
S'polymodel'
p139
S'None'
p140
ssg82
I621
sg83
(dp141
I616
S'            try:'
p142
sI617
S'                GLOBAL_LOCKER.acquire()'
p143
sI618
S'                self._adapter.create_table('
p144
sI619
S'                    table, migrate=migrate,'
p145
sI620
S'                    fake_migrate=fake_migrate,'
p146
sI621
S'                    polymodel=polymodel)'
p147
sI622
S'            finally:'
p148
sI623
S'                GLOBAL_LOCKER.release()'
p149
sI624
S'        else:'
p150
sI625
S'            table._dbt = None'
p151
ssg95
S'(self=<DAL uri="postgres:******@localhost:5432/sigulab2">, tablename=\'registros\', *fields=(<pydal.objects.Field object>, <pydal.objects.Field object>, <pydal.objects.Field object>, <pydal.objects.Field object>, <pydal.objects.Field object>, <pydal.objects.Field object>, <pydal.objects.Field object>, <pydal.objects.Field object>), **args={\'primarykey\': [\'codigo\']})'
p152
sg97
S'lazy_define_table'
p153
sa(dp154
g74
S'/home/nairelys/Descargas/Sigulab/web2py/gluon/packages/dal/pydal/adapters/base.py'
p155
sg76
(dp156
S'self'
p157
S'<pydal.adapters.postgres.PostgrePsyco object>'
p158
sS'args'
p159
S'(<Table registros (usuario, codigo, fecha_creacio...rio, remitente, doc_electronico, archivo_fisico)>,)'
p160
sS'self.migrator'
p161
S'<pydal.migrator.Migrator object>'
p162
sS'self.migrator.create_table'
p163
S'<bound method Migrator.create_table of <pydal.migrator.Migrator object>>'
p164
sS'kwargs'
p165
S"{'fake_migrate': False, 'migrate': True, 'polymodel': None}"
p166
ssg82
I797
sg83
(dp167
I800
S'        super(SQLAdapter, self)._drop_table_cleanup(table)'
p168
sI801
S'        if table._dbt:'
p169
sI792
S''
sI793
S'    def bulk_insert(self, table, items):'
p170
sI794
S'        return [self.insert(table, item) for item in items]'
p171
sI795
S''
sI796
S'    def create_table(self, *args, **kwargs):'
p172
sI797
S'        return self.migrator.create_table(*args, **kwargs)'
p173
sI798
S''
sI799
S'    def _drop_table_cleanup(self, table):'
p174
ssg95
S"(self=<pydal.adapters.postgres.PostgrePsyco object>, *args=(<Table registros (usuario, codigo, fecha_creacio...rio, remitente, doc_electronico, archivo_fisico)>,), **kwargs={'fake_migrate': False, 'migrate': True, 'polymodel': None})"
p175
sg97
S'create_table'
p176
sa(dp177
g74
S'/home/nairelys/Descargas/Sigulab/web2py/gluon/packages/dal/pydal/migrator.py'
p178
sg76
(dp179
S'query'
p180
S'\'CREATE TABLE "registros"(\\n    "usuario" VARCHAR(...isico" VARCHAR(512),\\n    PRIMARY KEY("codigo")) ;\''
p181
sS'self'
p182
S'<pydal.migrator.Migrator object>'
p183
sS'self.adapter'
p184
S'<pydal.adapters.postgres.PostgrePsyco object>'
p185
sS'self.adapter.create_sequence_and_triggers'
p186
S'<bound method PostgrePsyco.create_sequence_and_t...of <pydal.adapters.postgres.PostgrePsyco object>>'
p187
sS'table'
p188
S'<Table registros (usuario, codigo, fecha_creacio...rio, remitente, doc_electronico, archivo_fisico)>'
p189
ssg82
I277
sg83
(dp190
I272
S'            if table._dbt:'
p191
sI273
S"                self.log('timestamp: %s\\n%s\\n'"
p192
sI274
S'                         % (datetime.datetime.today().isoformat(),'
p193
sI275
S'                            query), table)'
p194
sI276
S'            if not fake_migrate:'
p195
sI277
S'                self.adapter.create_sequence_and_triggers(query, table)'
p196
sI278
S'                db.commit()'
p197
sI279
S'                # Postgres geom fields are added now,'
p198
sI280
S'                # after the table has been created'
p199
sI281
S'                for query in postcreation_fields:'
p200
ssg95
S'(self=<pydal.migrator.Migrator object>, table=<Table registros (usuario, codigo, fecha_creacio...rio, remitente, doc_electronico, archivo_fisico)>, migrate=True, fake_migrate=False, polymodel=None)'
p201
sg97
g176
sa(dp202
g74
S'/home/nairelys/Descargas/Sigulab/web2py/gluon/packages/dal/pydal/adapters/base.py'
p203
sg76
(dp204
S'query'
p205
S'\'CREATE TABLE "registros"(\\n    "usuario" VARCHAR(...isico" VARCHAR(512),\\n    PRIMARY KEY("codigo")) ;\''
p206
sS'self'
p207
S'<pydal.adapters.postgres.PostgrePsyco object>'
p208
sS'self.execute'
p209
S'<bound method PostgrePsyco.wrap of <pydal.adapters.postgres.PostgrePsyco object>>'
p210
ssg82
I880
sg83
(dp211
I875
S'    @with_connection'
p212
sI876
S'    def rollback_prepared(self, key):'
p213
sI877
S'        self.connection.rollback()'
p214
sI878
S''
sI879
S'    def create_sequence_and_triggers(self, query, table, **args):'
p215
sI880
S'        self.execute(query)'
p216
sI881
S''
sI882
S'    def sqlsafe_table(self, tablename, original_tablename=None):'
p217
sI883
S'        if original_tablename is not None:'
p218
sI884
S'            return self.dialect.alias(original_tablename, tablename)'
p219
ssg95
S'(self=<pydal.adapters.postgres.PostgrePsyco object>, query=\'CREATE TABLE "registros"(\\n    "usuario" VARCHAR(...isico" VARCHAR(512),\\n    PRIMARY KEY("codigo")) ;\', table=<Table registros (usuario, codigo, fecha_creacio...rio, remitente, doc_electronico, archivo_fisico)>, **args={})'
p220
sg97
S'create_sequence_and_triggers'
p221
sa(dp222
g74
S'/home/nairelys/Descargas/Sigulab/web2py/gluon/packages/dal/pydal/adapters/__init__.py'
p223
sg76
(dp224
S'kwargs'
p225
S'{}'
p226
sS'args'
p227
S'(<pydal.adapters.postgres.PostgrePsyco object>, \'CREATE TABLE "registros"(\\n    "usuario" VARCHAR(...isico" VARCHAR(512),\\n    PRIMARY KEY("codigo")) ;\')'
p228
sS'f'
S'<function execute>'
p229
ssg82
I67
sg83
(dp230
I64
S'            if len(args) > 1:'
p231
sI65
S'                raise ValueError(args[1])'
p232
sI66
S"            raise RuntimeError('no connection available')"
p233
sI67
S'        return f(*args, **kwargs)'
p234
sI68
S'    return wrap'
p235
sI69
S''
sI70
S''
sI71
S'from .base import SQLAdapter, NoSQLAdapter'
p236
sI62
S'    def wrap(*args, **kwargs):'
p237
sI63
S'        if not args[0].connection:'
p238
ssg95
S'(*args=(<pydal.adapters.postgres.PostgrePsyco object>, \'CREATE TABLE "registros"(\\n    "usuario" VARCHAR(...isico" VARCHAR(512),\\n    PRIMARY KEY("codigo")) ;\'), **kwargs={})'
p239
sg97
S'wrap'
p240
sa(dp241
g74
S'/home/nairelys/Descargas/Sigulab/web2py/gluon/packages/dal/pydal/adapters/base.py'
p242
sg76
(dp243
S'rv'
p244
g103
sS'self'
p245
S'<pydal.adapters.postgres.PostgrePsyco object>'
p246
sS'args'
p247
S'(\'CREATE TABLE "registros"(\\n    "usuario" VARCHAR(...isico" VARCHAR(512),\\n    PRIMARY KEY("codigo")) ;\',)'
p248
sS'self.cursor'
p249
S'<cursor object at 0xb02e8a7c; closed: 0>'
p250
sS'command'
p251
S'\'CREATE TABLE "registros"(\\n    "usuario" VARCHAR(...isico" VARCHAR(512),\\n    PRIMARY KEY("codigo")) ;\''
p252
sS'self.cursor.execute'
p253
S'<built-in method execute of psycopg2._psycopg.cursor object>'
p254
sS'kwargs'
p255
g226
ssg82
I412
sg83
(dp256
I416
S''
sI407
S'    def execute(self, *args, **kwargs):'
p257
sI408
S'        command = self.filter_sql_command(args[0])'
p258
sI409
S'        handlers = self._build_handlers_for_execution()'
p259
sI410
S'        for handler in handlers:'
p260
sI411
S'            handler.before_execute(command)'
p261
sI412
S'        rv = self.cursor.execute(command, *args[1:], **kwargs)'
p262
sI413
S'        for handler in handlers:'
p263
sI414
S'            handler.after_execute(command)'
p264
sI415
S'        return rv'
p265
ssg95
S'(self=<pydal.adapters.postgres.PostgrePsyco object>, *args=(\'CREATE TABLE "registros"(\\n    "usuario" VARCHAR(...isico" VARCHAR(512),\\n    PRIMARY KEY("codigo")) ;\',), **kwargs={})'
p266
sg97
S'execute'
p267
sasS'pyver'
p268
S'Python 2.7.6: /usr/bin/python (prefix: /usr)'
p269
sS'session'
p270
g69
(S's\x1a\x00\x00\x00<div><table></table></div>'
tRp271
sS'etype'
p272
S"<class 'psycopg2.ProgrammingError'>"
p273
sS'date'
p274
S'Thu Jun 21 21:18:26 2018'
p275
sS'response'
p276
g69
(S'sC\x16\x00\x00<div><table><tr><td style="font-weight:bold;vertical-align:top;">body</td><td style="vertical-align:top;">:</td><td><div>&lt;cStringIO.StringO object at 0xb2ab38a0&gt;</div></td></tr><tr><td style="font-weight:bold;vertical-align:top;">cookies</td><td style="vertical-align:top;">:</td><td><div><table><tr><td style="font-weight:bold;vertical-align:top;">session_id_sigulab2</td><td style="vertical-align:top;">:</td><td><div>127.0.0.1-364e1663-4806-4bb9-9fbc-18109964c500<table><tr><td style="font-weight:bold;vertical-align:top;">comment</td><td style="vertical-align:top;">:</td><td><div></div></td></tr><tr><td style="font-weight:bold;vertical-align:top;">domain</td><td style="vertical-align:top;">:</td><td><div></div></td></tr><tr><td style="font-weight:bold;vertical-align:top;">expires</td><td style="vertical-align:top;">:</td><td><div></div></td></tr><tr><td style="font-weight:bold;vertical-align:top;">httponly</td><td style="vertical-align:top;">:</td><td><div></div></td></tr><tr><td style="font-weight:bold;vertical-align:top;">max-age</td><td style="vertical-align:top;">:</td><td><div></div></td></tr><tr><td style="font-weight:bold;vertical-align:top;">path</td><td style="vertical-align:top;">:</td><td><div>/</div></td></tr><tr><td style="font-weight:bold;vertical-align:top;">secure</td><td style="vertical-align:top;">:</td><td><div></div></td></tr><tr><td style="font-weight:bold;vertical-align:top;">version</td><td style="vertical-align:top;">:</td><td><div></div></td></tr></table></div></td></tr></table></div></td></tr><tr><td style="font-weight:bold;vertical-align:top;">delimiters</td><td style="vertical-align:top;">:</td><td><div><table><tr><td><div>{{</div></td></tr><tr><td><div>}}</div></td></tr></table></div></td></tr><tr><td style="font-weight:bold;vertical-align:top;">files</td><td style="vertical-align:top;">:</td><td><div><table></table></div></td></tr><tr><td style="font-weight:bold;vertical-align:top;">flash</td><td style="vertical-align:top;">:</td><td><div></div></td></tr><tr><td style="font-weight:bold;vertical-align:top;">form_label_separator</td><td style="vertical-align:top;">:</td><td><div></div></td></tr><tr><td style="font-weight:bold;vertical-align:top;">formstyle</td><td style="vertical-align:top;">:</td><td><div>bootstrap3_inline</div></td></tr><tr><td style="font-weight:bold;vertical-align:top;">generic_patterns</td><td style="vertical-align:top;">:</td><td><div><table><tr><td><div>*</div></td></tr></table></div></td></tr><tr><td style="font-weight:bold;vertical-align:top;">headers</td><td style="vertical-align:top;">:</td><td><div><table><tr><td style="font-weight:bold;vertical-align:top;">X-Powered-By</td><td style="vertical-align:top;">:</td><td><div>web2py</div></td></tr></table></div></td></tr><tr><td style="font-weight:bold;vertical-align:top;">menu</td><td style="vertical-align:top;">:</td><td><div><table></table></div></td></tr><tr><td style="font-weight:bold;vertical-align:top;">meta</td><td style="vertical-align:top;">:</td><td><div><table></table></div></td></tr><tr><td style="font-weight:bold;vertical-align:top;">models_to_run</td><td style="vertical-align:top;">:</td><td><div><table><tr><td><div>^\\w+\\.py$</div></td></tr><tr><td><div>^default/\\w+\\.py$</div></td></tr><tr><td><div>^default/index/\\w+\\.py$</div></td></tr></table></div></td></tr><tr><td style="font-weight:bold;vertical-align:top;">postprocessing</td><td style="vertical-align:top;">:</td><td><div><table></table></div></td></tr><tr><td style="font-weight:bold;vertical-align:top;">session_client</td><td style="vertical-align:top;">:</td><td><div>127.0.0.1</div></td></tr><tr><td style="font-weight:bold;vertical-align:top;">session_cookie_compression_level</td><td style="vertical-align:top;">:</td><td><div>None</div></td></tr><tr><td style="font-weight:bold;vertical-align:top;">session_cookie_expires</td><td style="vertical-align:top;">:</td><td><div>None</div></td></tr><tr><td style="font-weight:bold;vertical-align:top;">session_data_name</td><td style="vertical-align:top;">:</td><td><div>session_data_sigulab2</div></td></tr><tr><td style="font-weight:bold;vertical-align:top;">session_file</td><td style="vertical-align:top;">:</td><td><div>None</div></td></tr><tr><td style="font-weight:bold;vertical-align:top;">session_filename</td><td style="vertical-align:top;">:</td><td><div>/home/nairelys/Descargas/Sigulab/web2py/applications/sigulab2/sessions/127.0.0.1-364e1663-4806-4bb9-9fbc-18109964c500</div></td></tr><tr><td style="font-weight:bold;vertical-align:top;">session_hash</td><td style="vertical-align:top;">:</td><td><div>c0762cbf4baf7f9af97c051e7fcb8083</div></td></tr><tr><td style="font-weight:bold;vertical-align:top;">session_id</td><td style="vertical-align:top;">:</td><td><div>127.0.0.1-364e1663-4806-4bb9-9fbc-18109964c500</div></td></tr><tr><td style="font-weight:bold;vertical-align:top;">session_id_name</td><td style="vertical-align:top;">:</td><td><div>session_id_sigulab2</div></td></tr><tr><td style="font-weight:bold;vertical-align:top;">session_masterapp</td><td style="vertical-align:top;">:</td><td><div>sigulab2</div></td></tr><tr><td style="font-weight:bold;vertical-align:top;">session_new</td><td style="vertical-align:top;">:</td><td><div>True</div></td></tr><tr><td style="font-weight:bold;vertical-align:top;">session_storage_type</td><td style="vertical-align:top;">:</td><td><div>file</div></td></tr><tr><td style="font-weight:bold;vertical-align:top;">status</td><td style="vertical-align:top;">:</td><td><div>200</div></td></tr><tr><td style="font-weight:bold;vertical-align:top;">view</td><td style="vertical-align:top;">:</td><td><div>default/index.html</div></td></tr></table></div>'
tRp277
sS'locals'
p278
(dp279
S'handlers'
p280
S'[<pydal.helpers.classes.TimingHandler object>]'
p281
sS'self'
p282
S'<pydal.adapters.postgres.PostgrePsyco object>'
p283
sg50
S'(\'CREATE TABLE "registros"(\\n    "usuario" VARCHAR(...isico" VARCHAR(512),\\n    PRIMARY KEY("codigo")) ;\',)'
p284
sS'handler'
p285
S'<pydal.helpers.classes.TimingHandler object>'
p286
sS'command'
p287
S'\'CREATE TABLE "registros"(\\n    "usuario" VARCHAR(...isico" VARCHAR(512),\\n    PRIMARY KEY("codigo")) ;\''
p288
sS'kwargs'
p289
g226
sssS'traceback'
p290
S'Traceback (most recent call last):\n  File "/home/nairelys/Descargas/Sigulab/web2py/gluon/restricted.py", line 219, in restricted\n    exec(ccode, environment)\n  File "/home/nairelys/Descargas/Sigulab/web2py/applications/sigulab2/models/informacion_documentada.py", line 36, in <module>\n    primarykey=[\'codigo\']\n  File "/home/nairelys/Descargas/Sigulab/web2py/gluon/packages/dal/pydal/base.py", line 587, in define_table\n    table = self.lazy_define_table(tablename, *fields, **args)\n  File "/home/nairelys/Descargas/Sigulab/web2py/gluon/packages/dal/pydal/base.py", line 621, in lazy_define_table\n    polymodel=polymodel)\n  File "/home/nairelys/Descargas/Sigulab/web2py/gluon/packages/dal/pydal/adapters/base.py", line 797, in create_table\n    return self.migrator.create_table(*args, **kwargs)\n  File "/home/nairelys/Descargas/Sigulab/web2py/gluon/packages/dal/pydal/migrator.py", line 277, in create_table\n    self.adapter.create_sequence_and_triggers(query, table)\n  File "/home/nairelys/Descargas/Sigulab/web2py/gluon/packages/dal/pydal/adapters/base.py", line 880, in create_sequence_and_triggers\n    self.execute(query)\n  File "/home/nairelys/Descargas/Sigulab/web2py/gluon/packages/dal/pydal/adapters/__init__.py", line 67, in wrap\n    return f(*args, **kwargs)\n  File "/home/nairelys/Descargas/Sigulab/web2py/gluon/packages/dal/pydal/adapters/base.py", line 412, in execute\n    rv = self.cursor.execute(command, *args[1:], **kwargs)\nProgrammingError: relation "registros" already exists\n\n'
p291
s.